Archive member included       because of file (symbol)

/usr/local/clas/devel_new/VxWorks55/ppc/target/lib/ppc/PPC604/common/libarch.a(altivecArchLib.o)
                              sysLib.o (_func_altivecProbeRtn)
/usr/local/clas/devel_new/VxWorks55/ppc/target/lib/ppc/PPC604/common/libarch.a(altivecLib.o)
                              /usr/local/clas/devel_new/VxWorks55/ppc/target/lib/ppc/PPC604/common/libarch.a(altivecArchLib.o) (altivecCreateHookRtn)
/usr/local/clas/devel_new/VxWorks55/ppc/target/lib/ppc/PPC604/common/libarch.a(altivecShow.o)
                              /usr/local/clas/devel_new/VxWorks55/ppc/target/lib/ppc/PPC604/common/libarch.a(altivecArchLib.o) (altivecTaskRegsShow)
/usr/local/clas/devel_new/VxWorks55/ppc/target/lib/ppc/PPC604/common/libarch.a(bALib.o)
                              bootConfig.o (bcopy)
/usr/local/clas/devel_new/VxWorks55/ppc/target/lib/ppc/PPC604/common/libarch.a(cacheArchLib.o)
                              sysLib.o (_pSysL2CacheInvFunc)
/usr/local/clas/devel_new/VxWorks55/ppc/target/lib/ppc/PPC604/common/libarch.a(excArchLib.o)
                              sysIntCtrl.o (excConnect)
/usr/local/clas/devel_new/VxWorks55/ppc/target/lib/ppc/PPC604/common/libarch.a(excArchShow.o)
                              bootConfig.o (excShowInit)
/usr/local/clas/devel_new/VxWorks55/ppc/target/lib/ppc/PPC604/common/libarch.a(intALib.o)
                              /usr/local/clas/devel_new/VxWorks55/ppc/target/lib/ppc/PPC604/common/libarch.a(excArchLib.o) (intEnt)
/usr/local/clas/devel_new/VxWorks55/ppc/target/lib/ppc/PPC604/common/libarch.a(intArchLib.o)
                              sysIntCtrl.o (_func_intConnectRtn)
/usr/local/clas/devel_new/VxWorks55/ppc/target/lib/ppc/PPC604/common/libarch.a(mmuArchVars.o)
                              /usr/local/clas/devel_new/VxWorks55/ppc/target/lib/ppc/PPC604/common/libarch.a(cacheArchLib.o) (mmuPpcIEnabled)
/usr/local/clas/devel_new/VxWorks55/ppc/target/lib/ppc/PPC604/common/libarch.a(trcLib.o)
                              bootConfig.o (trcStack)
/usr/local/clas/devel_new/VxWorks55/ppc/target/lib/ppc/PPC604/common/libarch.a(vxALib.o)
                              tests/testtool.o (vxTimeBaseSet)
/usr/local/clas/devel_new/VxWorks55/ppc/target/lib/ppc/PPC604/common/libarch.a(vxLib.o)
                              /usr/local/clas/devel_new/VxWorks55/ppc/target/lib/ppc/PPC604/common/libarch.a(vxALib.o) (vxPowMgtEnable)
/usr/local/clas/devel_new/VxWorks55/ppc/target/lib/ppc/PPC604/common/libarch.a(pow.o)
                              tests/testtool.o (exp)
/usr/local/clas/devel_new/VxWorks55/ppc/target/lib/ppc/PPC604/common/libarch.a(sqrt.o)
                              tests/testtool.o (sqrt)
/usr/local/clas/devel_new/VxWorks55/ppc/target/lib/ppc/PPC604/common/libarch.a(trig.o)
                              tests/testtool.o (sin)
/usr/local/clas/devel_new/VxWorks55/ppc/target/lib/ppc/PPC604/common/libarch.a(altivecALib.o)
                              /usr/local/clas/devel_new/VxWorks55/ppc/target/lib/ppc/PPC604/common/libarch.a(altivecLib.o) (altivecSave)
/usr/local/clas/devel_new/VxWorks55/ppc/target/lib/ppc/PPC604/common/libarch.a(cacheALib.o)
                              /usr/local/clas/devel_new/VxWorks55/ppc/target/lib/ppc/PPC604/common/libarch.a(cacheArchLib.o) (cachePpcEnable)
/usr/local/clas/devel_new/VxWorks55/ppc/target/lib/ppc/PPC604/common/libarch.a(excALib.o)
                              /usr/local/clas/devel_new/VxWorks55/ppc/target/lib/ppc/PPC604/common/libarch.a(excArchLib.o) (excEnt)
/usr/local/clas/devel_new/VxWorks55/ppc/target/lib/ppc/PPC604/common/libdrv.a(endLib.o)
                              mgiEnd.obj (mib2Init)
/usr/local/clas/devel_new/VxWorks55/ppc/target/lib/ppc/PPC604/common/libdrv.a(if_loop.o)
                              bootConfig.o (loattach)
/usr/local/clas/devel_new/VxWorks55/ppc/target/lib/ppc/PPC604/common/libnet.a(if.o)
                              bootConfig.o (ifreset)
/usr/local/clas/devel_new/VxWorks55/ppc/target/lib/ppc/PPC604/common/libnet.a(if_ether.o)
                              bootConfig.o (ipEtherResolvRtn)
/usr/local/clas/devel_new/VxWorks55/ppc/target/lib/ppc/PPC604/common/libnet.a(if_subr.o)
                              /usr/local/clas/devel_new/VxWorks55/ppc/target/lib/ppc/PPC604/common/libnet.a(if_ether.o) (etherbroadcastaddr)
/usr/local/clas/devel_new/VxWorks55/ppc/target/lib/ppc/PPC604/common/libnet.a(in.o)
                              /usr/local/clas/devel_new/VxWorks55/ppc/target/lib/ppc/PPC604/common/libnet.a(if_ether.o) (in_lnaof)
/usr/local/clas/devel_new/VxWorks55/ppc/target/lib/ppc/PPC604/common/libnet.a(ip_input.o)
                              /usr/local/clas/devel_new/VxWorks55/ppc/target/lib/ppc/PPC604/common/libdrv.a(if_loop.o) (ipintrq)
/usr/local/clas/devel_new/VxWorks55/ppc/target/lib/ppc/PPC604/common/libnet.a(ip_output.o)
                              /usr/local/clas/devel_new/VxWorks55/ppc/target/lib/ppc/PPC604/common/libnet.a(ip_input.o) (ip_output)
/usr/local/clas/devel_new/VxWorks55/ppc/target/lib/ppc/PPC604/common/libnet.a(radix.o)
                              /usr/local/clas/devel_new/VxWorks55/ppc/target/lib/ppc/PPC604/common/libnet.a(if.o) (rn_refines)
/usr/local/clas/devel_new/VxWorks55/ppc/target/lib/ppc/PPC604/common/libnet.a(route.o)
                              /usr/local/clas/devel_new/VxWorks55/ppc/target/lib/ppc/PPC604/common/libnet.a(if_ether.o) (rt_tables)
/usr/local/clas/devel_new/VxWorks55/ppc/target/lib/ppc/PPC604/common/libnet.a(udp_usrreq.o)
                              /usr/local/clas/devel_new/VxWorks55/ppc/target/lib/ppc/PPC604/common/libnet.a(if.o) (udb)
/usr/local/clas/devel_new/VxWorks55/ppc/target/lib/ppc/PPC604/common/libnet.a(uipc_dom.o)
                              /usr/local/clas/devel_new/VxWorks55/ppc/target/lib/ppc/PPC604/common/libnet.a(radix.o) (domains)
/usr/local/clas/devel_new/VxWorks55/ppc/target/lib/ppc/PPC604/common/libnet.a(uipc_mbuf.o)
                              /usr/local/clas/devel_new/VxWorks55/ppc/target/lib/ppc/PPC604/common/libnet.a(if_subr.o) (_pNetDpool)
/usr/local/clas/devel_new/VxWorks55/ppc/target/lib/ppc/PPC604/common/libnet.a(uipc_sock2.o)
                              /usr/local/clas/devel_new/VxWorks55/ppc/target/lib/ppc/PPC604/common/libnet.a(udp_usrreq.o) (soisconnected)
/usr/local/clas/devel_new/VxWorks55/ppc/target/lib/ppc/PPC604/common/libnet.a(unixLib.o)
                              /usr/local/clas/devel_new/VxWorks55/ppc/target/lib/ppc/PPC604/common/libdrv.a(if_loop.o) (splnet)
/usr/local/clas/devel_new/VxWorks55/ppc/target/lib/ppc/PPC604/common/libnet.a(ipProto.o)
                              bootConfig.o (ipAttach)
/usr/local/clas/devel_new/VxWorks55/ppc/target/lib/ppc/PPC604/common/libnet.a(bsdSockLib.o)
                              bootConfig.o (bsdSockLibInit)
/usr/local/clas/devel_new/VxWorks55/ppc/target/lib/ppc/PPC604/common/libnet.a(etherMultiLib.o)
                              mgiEnd.obj (etherMultiAdd)
/usr/local/clas/devel_new/VxWorks55/ppc/target/lib/ppc/PPC604/common/libnet.a(ftpLib.o)
                              bootConfig.o (ftpCommand)
/usr/local/clas/devel_new/VxWorks55/ppc/target/lib/ppc/PPC604/common/libnet.a(hostLib.o)
                              bootConfig.o (hostTblInit)
/usr/local/clas/devel_new/VxWorks55/ppc/target/lib/ppc/PPC604/common/libnet.a(icmpLib.o)
                              bootConfig.o (icmpLibInit)
/usr/local/clas/devel_new/VxWorks55/ppc/target/lib/ppc/PPC604/common/libnet.a(ifLib.o)
                              bootConfig.o (ifAddrSet)
/usr/local/clas/devel_new/VxWorks55/ppc/target/lib/ppc/PPC604/common/libnet.a(igmpLib.o)
                              bootConfig.o (igmpLibInit)
/usr/local/clas/devel_new/VxWorks55/ppc/target/lib/ppc/PPC604/common/libnet.a(inetLib.o)
                              bootConfig.o (inet_addr)
/usr/local/clas/devel_new/VxWorks55/ppc/target/lib/ppc/PPC604/common/libnet.a(ipLib.o)
                              bootConfig.o (ipLibInit)
/usr/local/clas/devel_new/VxWorks55/ppc/target/lib/ppc/PPC604/common/libnet.a(muxLib.o)
                              bootConfig.o (muxLibInit)
/usr/local/clas/devel_new/VxWorks55/ppc/target/lib/ppc/PPC604/common/libnet.a(muxTkLib.o)
                              bootConfig.o (muxMaxBinds)
/usr/local/clas/devel_new/VxWorks55/ppc/target/lib/ppc/PPC604/common/libnet.a(netLib.o)
                              bootConfig.o (netTaskPriority)
/usr/local/clas/devel_new/VxWorks55/ppc/target/lib/ppc/PPC604/common/libnet.a(pingLib.o)
                              tests/testtool.o (pingLibInit)
/usr/local/clas/devel_new/VxWorks55/ppc/target/lib/ppc/PPC604/common/libnet.a(remLib.o)
                              bootConfig.o (rcmd)
/usr/local/clas/devel_new/VxWorks55/ppc/target/lib/ppc/PPC604/common/libnet.a(routeLib.o)
                              bootConfig.o (routeAdd)
/usr/local/clas/devel_new/VxWorks55/ppc/target/lib/ppc/PPC604/common/libnet.a(routeCommonLib.o)
                              /usr/local/clas/devel_new/VxWorks55/ppc/target/lib/ppc/PPC604/common/libnet.a(route.o) (rtrequestAddEqui)
/usr/local/clas/devel_new/VxWorks55/ppc/target/lib/ppc/PPC604/common/libnet.a(sockLib.o)
                              /usr/local/clas/devel_new/VxWorks55/ppc/target/lib/ppc/PPC604/common/libnet.a(bsdSockLib.o) (pSockFdMap)
/usr/local/clas/devel_new/VxWorks55/ppc/target/lib/ppc/PPC604/common/libnet.a(tcpLib.o)
                              bootConfig.o (tcpLibInit)
/usr/local/clas/devel_new/VxWorks55/ppc/target/lib/ppc/PPC604/common/libnet.a(tftpLib.o)
                              bootConfig.o (tftpXfer)
/usr/local/clas/devel_new/VxWorks55/ppc/target/lib/ppc/PPC604/common/libnet.a(udpLib.o)
                              bootConfig.o (udpLibInit)
/usr/local/clas/devel_new/VxWorks55/ppc/target/lib/ppc/PPC604/common/libnet.a(netBufLib.o)
                              /usr/local/clas/devel_new/VxWorks55/ppc/target/lib/ppc/PPC604/common/libnet.a(uipc_mbuf.o) (_pNetBufCollect)
/usr/local/clas/devel_new/VxWorks55/ppc/target/lib/ppc/PPC604/common/libnet.a(ifIndexLib.o)
                              /usr/local/clas/devel_new/VxWorks55/ppc/target/lib/ppc/PPC604/common/libnet.a(if.o) (ifIndexAlloc)
/usr/local/clas/devel_new/VxWorks55/ppc/target/lib/ppc/PPC604/common/libnet.a(igmp.o)
                              /usr/local/clas/devel_new/VxWorks55/ppc/target/lib/ppc/PPC604/common/libnet.a(igmpLib.o) (igmp_init)
/usr/local/clas/devel_new/VxWorks55/ppc/target/lib/ppc/PPC604/common/libnet.a(in_cksum.o)
                              /usr/local/clas/devel_new/VxWorks55/ppc/target/lib/ppc/PPC604/common/libnet.a(ip_input.o) (in_cksum)
/usr/local/clas/devel_new/VxWorks55/ppc/target/lib/ppc/PPC604/common/libnet.a(in_pcb.o)
                              /usr/local/clas/devel_new/VxWorks55/ppc/target/lib/ppc/PPC604/common/libnet.a(udp_usrreq.o) (in_pcballoc)
/usr/local/clas/devel_new/VxWorks55/ppc/target/lib/ppc/PPC604/common/libnet.a(in_proto.o)
                              /usr/local/clas/devel_new/VxWorks55/ppc/target/lib/ppc/PPC604/common/libnet.a(ip_input.o) (inetdomain)
/usr/local/clas/devel_new/VxWorks55/ppc/target/lib/ppc/PPC604/common/libnet.a(ip_icmp.o)
                              /usr/local/clas/devel_new/VxWorks55/ppc/target/lib/ppc/PPC604/common/libnet.a(icmpLib.o) (icmpmaskrepl)
/usr/local/clas/devel_new/VxWorks55/ppc/target/lib/ppc/PPC604/common/libnet.a(raw_ip.o)
                              /usr/local/clas/devel_new/VxWorks55/ppc/target/lib/ppc/PPC604/common/libnet.a(ipLib.o) (rip_init)
/usr/local/clas/devel_new/VxWorks55/ppc/target/lib/ppc/PPC604/common/libnet.a(sys_socket.o)
                              /usr/local/clas/devel_new/VxWorks55/ppc/target/lib/ppc/PPC604/common/libnet.a(bsdSockLib.o) (soo_ioctl)
/usr/local/clas/devel_new/VxWorks55/ppc/target/lib/ppc/PPC604/common/libnet.a(tcp_input.o)
                              /usr/local/clas/devel_new/VxWorks55/ppc/target/lib/ppc/PPC604/common/libnet.a(tcpLib.o) (tcprexmtthresh)
/usr/local/clas/devel_new/VxWorks55/ppc/target/lib/ppc/PPC604/common/libnet.a(tcp_output.o)
                              /usr/local/clas/devel_new/VxWorks55/ppc/target/lib/ppc/PPC604/common/libnet.a(tcp_input.o) (tcp_output)
/usr/local/clas/devel_new/VxWorks55/ppc/target/lib/ppc/PPC604/common/libnet.a(tcp_subr.o)
                              /usr/local/clas/devel_new/VxWorks55/ppc/target/lib/ppc/PPC604/common/libnet.a(tcpLib.o) (tcp_mssdflt)
/usr/local/clas/devel_new/VxWorks55/ppc/target/lib/ppc/PPC604/common/libnet.a(tcp_timer.o)
                              /usr/local/clas/devel_new/VxWorks55/ppc/target/lib/ppc/PPC604/common/libnet.a(tcpLib.o) (tcp_keepidle)
/usr/local/clas/devel_new/VxWorks55/ppc/target/lib/ppc/PPC604/common/libnet.a(tcp_usrreq.o)
                              /usr/local/clas/devel_new/VxWorks55/ppc/target/lib/ppc/PPC604/common/libnet.a(tcp_input.o) (tcpTraceRtn)
/usr/local/clas/devel_new/VxWorks55/ppc/target/lib/ppc/PPC604/common/libnet.a(uipc_sock.o)
                              /usr/local/clas/devel_new/VxWorks55/ppc/target/lib/ppc/PPC604/common/libnet.a(bsdSockLib.o) (socreate)
/usr/local/clas/devel_new/VxWorks55/ppc/target/lib/ppc/PPC604/common/libnet.a(random.o)
                              /usr/local/clas/devel_new/VxWorks55/ppc/target/lib/ppc/PPC604/common/libnet.a(igmp.o) (random)
/usr/local/clas/devel_new/VxWorks55/ppc/target/lib/ppc/PPC604/common/libos.a(__ctype_tab.o)
                              bootConfig.o (__ctype)
/usr/local/clas/devel_new/VxWorks55/ppc/target/lib/ppc/PPC604/common/libos.a(fabs.o)
                              tests/testtool.o (fabs)
/usr/local/clas/devel_new/VxWorks55/ppc/target/lib/ppc/PPC604/common/libos.a(fclose.o)
                              tests/testtool.o (fclose)
/usr/local/clas/devel_new/VxWorks55/ppc/target/lib/ppc/PPC604/common/libos.a(fflush.o)
                              pciScan.o (fflush)
/usr/local/clas/devel_new/VxWorks55/ppc/target/lib/ppc/PPC604/common/libos.a(fgets.o)
                              tests/testtool.o (fgets)
/usr/local/clas/devel_new/VxWorks55/ppc/target/lib/ppc/PPC604/common/libos.a(fopen.o)
                              tests/testtool.o (fopen)
/usr/local/clas/devel_new/VxWorks55/ppc/target/lib/ppc/PPC604/common/libos.a(fprintf.o)
                              frcBibShow.o (fprintf)
/usr/local/clas/devel_new/VxWorks55/ppc/target/lib/ppc/PPC604/common/libos.a(gets.o)
                              tests/testtool.o (gets)
/usr/local/clas/devel_new/VxWorks55/ppc/target/lib/ppc/PPC604/common/libos.a(perror.o)
                              tests/testtool.o (perror)
/usr/local/clas/devel_new/VxWorks55/ppc/target/lib/ppc/PPC604/common/libos.a(refill.o)
                              /usr/local/clas/devel_new/VxWorks55/ppc/target/lib/ppc/PPC604/common/libos.a(fgets.o) (__srefill)
/usr/local/clas/devel_new/VxWorks55/ppc/target/lib/ppc/PPC604/common/libos.a(rget.o)
                              tests/testtool.o (__srget)
/usr/local/clas/devel_new/VxWorks55/ppc/target/lib/ppc/PPC604/common/libos.a(scanf.o)
                              bFlashDrv.o (scanf)
/usr/local/clas/devel_new/VxWorks55/ppc/target/lib/ppc/PPC604/common/libos.a(stdio.o)
                              /usr/local/clas/devel_new/VxWorks55/ppc/target/lib/ppc/PPC604/common/libos.a(refill.o) (__sread)
/usr/local/clas/devel_new/VxWorks55/ppc/target/lib/ppc/PPC604/common/libos.a(stdioLib.o)
                              tests/testtool.o (fpClassId)
/usr/local/clas/devel_new/VxWorks55/ppc/target/lib/ppc/PPC604/common/libos.a(ungetc.o)
                              /usr/local/clas/devel_new/VxWorks55/ppc/target/lib/ppc/PPC604/common/libos.a(scanf.o) (ungetc)
/usr/local/clas/devel_new/VxWorks55/ppc/target/lib/ppc/PPC604/common/libos.a(wbuf.o)
                              tests/testtool.o (__swbuf)
/usr/local/clas/devel_new/VxWorks55/ppc/target/lib/ppc/PPC604/common/libos.a(wsetup.o)
                              /usr/local/clas/devel_new/VxWorks55/ppc/target/lib/ppc/PPC604/common/libos.a(wbuf.o) (__swsetup)
/usr/local/clas/devel_new/VxWorks55/ppc/target/lib/ppc/PPC604/common/libos.a(vfprintf.o)
                              /usr/local/clas/devel_new/VxWorks55/ppc/target/lib/ppc/PPC604/common/libos.a(fprintf.o) (vfprintf)
/usr/local/clas/devel_new/VxWorks55/ppc/target/lib/ppc/PPC604/common/libos.a(abs.o)
                              sysLib.o (abs)
/usr/local/clas/devel_new/VxWorks55/ppc/target/lib/ppc/PPC604/common/libos.a(atof.o)
                              tests/testtool.o (atof)
/usr/local/clas/devel_new/VxWorks55/ppc/target/lib/ppc/PPC604/common/libos.a(atoi.o)
                              mgiEnd.obj (atoi)
/usr/local/clas/devel_new/VxWorks55/ppc/target/lib/ppc/PPC604/common/libos.a(atol.o)
                              tests/testtool.o (atol)
/usr/local/clas/devel_new/VxWorks55/ppc/target/lib/ppc/PPC604/common/libos.a(strtod.o)
                              /usr/local/clas/devel_new/VxWorks55/ppc/target/lib/ppc/PPC604/common/libos.a(atof.o) (strtod)
/usr/local/clas/devel_new/VxWorks55/ppc/target/lib/ppc/PPC604/common/libos.a(strtol.o)
                              /usr/local/clas/devel_new/VxWorks55/ppc/target/lib/ppc/PPC604/common/libos.a(atoi.o) (strtol)
/usr/local/clas/devel_new/VxWorks55/ppc/target/lib/ppc/PPC604/common/libos.a(strtoul.o)
                              mgiEnd.obj (strtoul)
/usr/local/clas/devel_new/VxWorks55/ppc/target/lib/ppc/PPC604/common/libos.a(memchr.o)
                              /usr/local/clas/devel_new/VxWorks55/ppc/target/lib/ppc/PPC604/common/libos.a(fgets.o) (memchr)
/usr/local/clas/devel_new/VxWorks55/ppc/target/lib/ppc/PPC604/common/libos.a(memcpy.o)
                              rtc.o (memcpy)
/usr/local/clas/devel_new/VxWorks55/ppc/target/lib/ppc/PPC604/common/libos.a(memmove.o)
                              tests/testtool.o (memmove)
/usr/local/clas/devel_new/VxWorks55/ppc/target/lib/ppc/PPC604/common/libos.a(memset.o)
                              sysLib.o (memset)
/usr/local/clas/devel_new/VxWorks55/ppc/target/lib/ppc/PPC604/common/libos.a(strcat.o)
                              bootConfig.o (strcat)
/usr/local/clas/devel_new/VxWorks55/ppc/target/lib/ppc/PPC604/common/libos.a(strchr.o)
                              tests/testtool.o (strchr)
/usr/local/clas/devel_new/VxWorks55/ppc/target/lib/ppc/PPC604/common/libos.a(strcmp.o)
                              bootConfig.o (strcmp)
/usr/local/clas/devel_new/VxWorks55/ppc/target/lib/ppc/PPC604/common/libos.a(strcpy.o)
                              bootConfig.o (strcpy)
/usr/local/clas/devel_new/VxWorks55/ppc/target/lib/ppc/PPC604/common/libos.a(strerror.o)
                              /usr/local/clas/devel_new/VxWorks55/ppc/target/lib/ppc/PPC604/common/libos.a(perror.o) (strerror)
/usr/local/clas/devel_new/VxWorks55/ppc/target/lib/ppc/PPC604/common/libos.a(strlen.o)
                              bootConfig.o (strlen)
/usr/local/clas/devel_new/VxWorks55/ppc/target/lib/ppc/PPC604/common/libos.a(strncmp.o)
                              bootConfig.o (strncmp)
/usr/local/clas/devel_new/VxWorks55/ppc/target/lib/ppc/PPC604/common/libos.a(strncpy.o)
                              bootConfig.o (strncpy)
/usr/local/clas/devel_new/VxWorks55/ppc/target/lib/ppc/PPC604/common/libos.a(strstr.o)
                              mgiEnd.obj (strstr)
/usr/local/clas/devel_new/VxWorks55/ppc/target/lib/ppc/PPC604/common/libos.a(strtok_r.o)
                              mgiEnd.obj (strtok_r)
/usr/local/clas/devel_new/VxWorks55/ppc/target/lib/ppc/PPC604/common/libos.a(asctime.o)
                              rtc.o (asctime)
/usr/local/clas/devel_new/VxWorks55/ppc/target/lib/ppc/PPC604/common/libos.a(localtime.o)
                              tests/testtool.o (localtime)
/usr/local/clas/devel_new/VxWorks55/ppc/target/lib/ppc/PPC604/common/libos.a(strftime.o)
                              /usr/local/clas/devel_new/VxWorks55/ppc/target/lib/ppc/PPC604/common/libos.a(asctime.o) (strftime)
/usr/local/clas/devel_new/VxWorks55/ppc/target/lib/ppc/PPC604/common/libos.a(time.o)
                              tests/testtool.o (time)
/usr/local/clas/devel_new/VxWorks55/ppc/target/lib/ppc/PPC604/common/libos.a(fpType.o)
                              /usr/local/clas/devel_new/VxWorks55/ppc/target/lib/ppc/PPC604/common/libos.a(fabs.o) (fpTypeGet)
/usr/local/clas/devel_new/VxWorks55/ppc/target/lib/ppc/PPC604/common/libos.a(cacheLib.o)
                              /usr/local/clas/devel_new/VxWorks55/ppc/target/lib/ppc/PPC604/common/libarch.a(cacheArchLib.o) (cacheDataMode)
/usr/local/clas/devel_new/VxWorks55/ppc/target/lib/ppc/PPC604/common/libos.a(classLib.o)
                              bootConfig.o (classLibInit)
/usr/local/clas/devel_new/VxWorks55/ppc/target/lib/ppc/PPC604/common/libos.a(clockLib.o)
                              /usr/local/clas/devel_new/VxWorks55/ppc/target/lib/ppc/PPC604/common/libos.a(time.o) (clock_gettime)
/usr/local/clas/devel_new/VxWorks55/ppc/target/lib/ppc/PPC604/common/libos.a(copyright.o)
                              /usr/local/clas/devel_new/VxWorks55/ppc/target/lib/ppc/PPC604/common/libarch.a(intALib.o) (copyright_wind_river)
/usr/local/clas/devel_new/VxWorks55/ppc/target/lib/ppc/PPC604/common/libos.a(envLib.o)
                              tests/testtool.o (getenv)
/usr/local/clas/devel_new/VxWorks55/ppc/target/lib/ppc/PPC604/common/libos.a(errnoLib.o)
                              bootConfig.o (__errno)
/usr/local/clas/devel_new/VxWorks55/ppc/target/lib/ppc/PPC604/common/libos.a(excLib.o)
                              bootConfig.o (excInit)
/usr/local/clas/devel_new/VxWorks55/ppc/target/lib/ppc/PPC604/common/libos.a(fioLib.o)
                              /usr/local/clas/devel_new/VxWorks55/ppc/target/lib/ppc/PPC604/common/libnet.a(ftpLib.o) (printErr)
/usr/local/clas/devel_new/VxWorks55/ppc/target/lib/ppc/PPC604/common/libos.a(funcBind.o)
                              /usr/local/clas/devel_new/VxWorks55/ppc/target/lib/ppc/PPC604/common/libnet.a(ftpLib.o) (ftplDebug)
/usr/local/clas/devel_new/VxWorks55/ppc/target/lib/ppc/PPC604/common/libos.a(hashLib.o)
                              bootConfig.o (hashLibInit)
/usr/local/clas/devel_new/VxWorks55/ppc/target/lib/ppc/PPC604/common/libos.a(intLib.o)
                              /usr/local/clas/devel_new/VxWorks55/ppc/target/lib/ppc/PPC604/common/libarch.a(excArchLib.o) (intCnt)
/usr/local/clas/devel_new/VxWorks55/ppc/target/lib/ppc/PPC604/common/libos.a(ioLib.o)
                              bootConfig.o (open)
/usr/local/clas/devel_new/VxWorks55/ppc/target/lib/ppc/PPC604/common/libos.a(iosLib.o)
                              bootConfig.o (iosInit)
/usr/local/clas/devel_new/VxWorks55/ppc/target/lib/ppc/PPC604/common/libos.a(logLib.o)
                              bootConfig.o (logInit)
/usr/local/clas/devel_new/VxWorks55/ppc/target/lib/ppc/PPC604/common/libos.a(memLib.o)
                              tests/testtool.o (valloc)
/usr/local/clas/devel_new/VxWorks55/ppc/target/lib/ppc/PPC604/common/libos.a(memPartLib.o)
                              /usr/local/clas/devel_new/VxWorks55/ppc/target/lib/ppc/PPC604/common/libos.a(classLib.o) (memPartClassId)
/usr/local/clas/devel_new/VxWorks55/ppc/target/lib/ppc/PPC604/common/libos.a(objLib.o)
                              /usr/local/clas/devel_new/VxWorks55/ppc/target/lib/ppc/PPC604/common/libos.a(hashLib.o) (objAllocExtra)
/usr/local/clas/devel_new/VxWorks55/ppc/target/lib/ppc/PPC604/common/libos.a(pathLib.o)
                              /usr/local/clas/devel_new/VxWorks55/ppc/target/lib/ppc/PPC604/common/libos.a(ioLib.o) (pathCondense)
/usr/local/clas/devel_new/VxWorks55/ppc/target/lib/ppc/PPC604/common/libos.a(pipeDrv.o)
                              bootConfig.o (pipeDrv)
/usr/local/clas/devel_new/VxWorks55/ppc/target/lib/ppc/PPC604/common/libos.a(rebootLib.o)
                              bootConfig.o (reboot)
/usr/local/clas/devel_new/VxWorks55/ppc/target/lib/ppc/PPC604/common/libos.a(selectLib.o)
                              bootConfig.o (selectInit)
/usr/local/clas/devel_new/VxWorks55/ppc/target/lib/ppc/PPC604/common/libos.a(taskHookLib.o)
                              bootConfig.o (taskHookInit)
/usr/local/clas/devel_new/VxWorks55/ppc/target/lib/ppc/PPC604/common/libos.a(ttyDrv.o)
                              bootConfig.o (ttyDrv)
/usr/local/clas/devel_new/VxWorks55/ppc/target/lib/ppc/PPC604/common/libos.a(tyLib.o)
                              /usr/local/clas/devel_new/VxWorks55/ppc/target/lib/ppc/PPC604/common/libos.a(ttyDrv.o) (tyDevInit)
/usr/local/clas/devel_new/VxWorks55/ppc/target/lib/ppc/PPC604/common/libos.a(bootElfLib.o)
                              bootConfig.o (bootElfInit)
/usr/local/clas/devel_new/VxWorks55/ppc/target/lib/ppc/PPC604/common/libos.a(bootLoadLib.o)
                              /usr/local/clas/devel_new/VxWorks55/ppc/target/lib/ppc/PPC604/common/libos.a(bootElfLib.o) (bootLoadRoutine)
/usr/local/clas/devel_new/VxWorks55/ppc/target/lib/ppc/PPC604/common/libos.a(ramDrv.o)
                              sysRamDrv.o (ramDevCreate)
/usr/local/clas/devel_new/VxWorks55/ppc/target/lib/ppc/PPC604/common/libos.a(usrDosFsOld.o)
                              sysRamDrv.o (dosFsMkfs)
/usr/local/clas/devel_new/VxWorks55/ppc/target/lib/ppc/PPC604/common/libos.a(bLib.o)
                              /usr/local/clas/devel_new/VxWorks55/ppc/target/lib/ppc/PPC604/common/libnet.a(if.o) (bcmp)
/usr/local/clas/devel_new/VxWorks55/ppc/target/lib/ppc/PPC604/common/libos.a(bootLib.o)
                              bootConfig.o (bootStringToStruct)
/usr/local/clas/devel_new/VxWorks55/ppc/target/lib/ppc/PPC604/common/libos.a(cksumLib.o)
                              /usr/local/clas/devel_new/VxWorks55/ppc/target/lib/ppc/PPC604/common/libnet.a(icmpLib.o) (checksum)
/usr/local/clas/devel_new/VxWorks55/ppc/target/lib/ppc/PPC604/common/libos.a(dllLib.o)
                              /usr/local/clas/devel_new/VxWorks55/ppc/target/lib/ppc/PPC604/common/libos.a(iosLib.o) (dllInit)
/usr/local/clas/devel_new/VxWorks55/ppc/target/lib/ppc/PPC604/common/libos.a(lstLib.o)
                              /usr/local/clas/devel_new/VxWorks55/ppc/target/lib/ppc/PPC604/common/libdrv.a(endLib.o) (lstInit)
/usr/local/clas/devel_new/VxWorks55/ppc/target/lib/ppc/PPC604/common/libos.a(qFifoLib.o)
                              bootConfig.o (qFifoClassId)
/usr/local/clas/devel_new/VxWorks55/ppc/target/lib/ppc/PPC604/common/libos.a(qLib.o)
                              bootConfig.o (qInit)
/usr/local/clas/devel_new/VxWorks55/ppc/target/lib/ppc/PPC604/common/libos.a(qPriBMapLib.o)
                              bootConfig.o (qPriBMapClassId)
/usr/local/clas/devel_new/VxWorks55/ppc/target/lib/ppc/PPC604/common/libos.a(qPriListLib.o)
                              bootConfig.o (qPriListClassId)
/usr/local/clas/devel_new/VxWorks55/ppc/target/lib/ppc/PPC604/common/libos.a(rngLib.o)
                              /usr/local/clas/devel_new/VxWorks55/ppc/target/lib/ppc/PPC604/common/libnet.a(netLib.o) (rngCreate)
/usr/local/clas/devel_new/VxWorks55/ppc/target/lib/ppc/PPC604/common/libos.a(sllLib.o)
                              /usr/local/clas/devel_new/VxWorks55/ppc/target/lib/ppc/PPC604/common/libos.a(hashLib.o) (sllInit)
/usr/local/clas/devel_new/VxWorks55/ppc/target/lib/ppc/PPC604/common/libos.a(dcacheCbio.o)
                              /usr/local/clas/devel_new/VxWorks55/ppc/target/lib/ppc/PPC604/common/libos.a(usrDosFsOld.o) (dcacheDevCreate)
/usr/local/clas/devel_new/VxWorks55/ppc/target/lib/ppc/PPC604/common/libos.a(dosChkLib.o)
                              /usr/local/clas/devel_new/VxWorks55/ppc/target/lib/ppc/PPC604/common/libos.a(usrDosFsOld.o) (dosChkLibInit)
/usr/local/clas/devel_new/VxWorks55/ppc/target/lib/ppc/PPC604/common/libos.a(dosDirOldLib.o)
                              /usr/local/clas/devel_new/VxWorks55/ppc/target/lib/ppc/PPC604/common/libos.a(usrDosFsOld.o) (dosDirOldLibInit)
/usr/local/clas/devel_new/VxWorks55/ppc/target/lib/ppc/PPC604/common/libos.a(dosFsFat.o)
                              /usr/local/clas/devel_new/VxWorks55/ppc/target/lib/ppc/PPC604/common/libos.a(usrDosFsOld.o) (dosFsFatInit)
/usr/local/clas/devel_new/VxWorks55/ppc/target/lib/ppc/PPC604/common/libos.a(dosFsFmtLib.o)
                              /usr/local/clas/devel_new/VxWorks55/ppc/target/lib/ppc/PPC604/common/libos.a(usrDosFsOld.o) (dosFsVolFormat)
/usr/local/clas/devel_new/VxWorks55/ppc/target/lib/ppc/PPC604/common/libos.a(dosFsLib.o)
                              /usr/local/clas/devel_new/VxWorks55/ppc/target/lib/ppc/PPC604/common/libos.a(dosFsFat.o) (dosFatHdlrsList)
/usr/local/clas/devel_new/VxWorks55/ppc/target/lib/ppc/PPC604/common/libos.a(dosVDirLib.o)
                              /usr/local/clas/devel_new/VxWorks55/ppc/target/lib/ppc/PPC604/common/libos.a(usrDosFsOld.o) (dosVDirLibInit)
/usr/local/clas/devel_new/VxWorks55/ppc/target/lib/ppc/PPC604/common/libos.a(print64Lib.o)
                              /usr/local/clas/devel_new/VxWorks55/ppc/target/lib/ppc/PPC604/common/libos.a(dosChkLib.o) (print64Fine)
/usr/local/clas/devel_new/VxWorks55/ppc/target/lib/ppc/PPC604/common/libos.a(fgetc.o)
                              /usr/local/clas/devel_new/VxWorks55/ppc/target/lib/ppc/PPC604/common/libos.a(scanf.o) (fgetc)
/usr/local/clas/devel_new/VxWorks55/ppc/target/lib/ppc/PPC604/common/libos.a(flags.o)
                              /usr/local/clas/devel_new/VxWorks55/ppc/target/lib/ppc/PPC604/common/libos.a(fopen.o) (__sflags)
/usr/local/clas/devel_new/VxWorks55/ppc/target/lib/ppc/PPC604/common/libos.a(makebuf.o)
                              /usr/local/clas/devel_new/VxWorks55/ppc/target/lib/ppc/PPC604/common/libos.a(refill.o) (__smakebuf)
/usr/local/clas/devel_new/VxWorks55/ppc/target/lib/ppc/PPC604/common/libos.a(strncat.o)
                              /usr/local/clas/devel_new/VxWorks55/ppc/target/lib/ppc/PPC604/common/libos.a(pathLib.o) (strncat)
/usr/local/clas/devel_new/VxWorks55/ppc/target/lib/ppc/PPC604/common/libos.a(strpbrk.o)
                              /usr/local/clas/devel_new/VxWorks55/ppc/target/lib/ppc/PPC604/common/libos.a(strtok_r.o) (strpbrk)
/usr/local/clas/devel_new/VxWorks55/ppc/target/lib/ppc/PPC604/common/libos.a(strspn.o)
                              /usr/local/clas/devel_new/VxWorks55/ppc/target/lib/ppc/PPC604/common/libos.a(strtok_r.o) (strspn)
/usr/local/clas/devel_new/VxWorks55/ppc/target/lib/ppc/PPC604/common/libos.a(locTime.o)
                              /usr/local/clas/devel_new/VxWorks55/ppc/target/lib/ppc/PPC604/common/libos.a(localtime.o) (__loctime)
/usr/local/clas/devel_new/VxWorks55/ppc/target/lib/ppc/PPC604/common/libos.a(ctime.o)
                              /usr/local/clas/devel_new/VxWorks55/ppc/target/lib/ppc/PPC604/common/libos.a(dosChkLib.o) (ctime)
/usr/local/clas/devel_new/VxWorks55/ppc/target/lib/ppc/PPC604/common/libos.a(gmtime.o)
                              /usr/local/clas/devel_new/VxWorks55/ppc/target/lib/ppc/PPC604/common/libos.a(localtime.o) (__getTime)
/usr/local/clas/devel_new/VxWorks55/ppc/target/lib/ppc/PPC604/common/libos.a(mktime.o)
                              /usr/local/clas/devel_new/VxWorks55/ppc/target/lib/ppc/PPC604/common/libos.a(usrDosFsOld.o) (mktime)
/usr/local/clas/devel_new/VxWorks55/ppc/target/lib/ppc/PPC604/common/libos.a(cbioLib.o)
                              /usr/local/clas/devel_new/VxWorks55/ppc/target/lib/ppc/PPC604/common/libos.a(dcacheCbio.o) (cbioLibInit)
/usr/local/clas/devel_new/VxWorks55/ppc/target/lib/ppc/PPC604/common/libos.a(assert.o)
                              /usr/local/clas/devel_new/VxWorks55/ppc/target/lib/ppc/PPC604/common/libos.a(cbioLib.o) (__assert)
/usr/local/clas/devel_new/VxWorks55/ppc/target/lib/ppc/PPC604/common/libos.a(abort.o)
                              /usr/local/clas/devel_new/VxWorks55/ppc/target/lib/ppc/PPC604/common/libos.a(assert.o) (abort)
/usr/local/clas/devel_new/VxWorks55/ppc/target/lib/ppc/PPC604/common/libos.a(ldiv.o)
                              /usr/local/clas/devel_new/VxWorks55/ppc/target/lib/ppc/PPC604/common/libos.a(gmtime.o) (ldiv_r)
/usr/local/clas/devel_new/VxWorks55/ppc/target/lib/ppc/PPC604/common/libos.a(sigLib.o)
                              /usr/local/clas/devel_new/VxWorks55/ppc/target/lib/ppc/PPC604/common/libos.a(abort.o) (raise)
/usr/local/clas/devel_new/VxWorks55/ppc/target/lib/ppc/PPC604/common/libwind.a(eventLib.o)
                              bootConfig.o (eventLibInit)
/usr/local/clas/devel_new/VxWorks55/ppc/target/lib/ppc/PPC604/common/libwind.a(kernelLib.o)
                              bootConfig.o (activeQHead)
/usr/local/clas/devel_new/VxWorks55/ppc/target/lib/ppc/PPC604/common/libwind.a(msgQLib.o)
                              bootConfig.o (msgQLibInit)
/usr/local/clas/devel_new/VxWorks55/ppc/target/lib/ppc/PPC604/common/libwind.a(msgQShow.o)
                              /usr/local/clas/devel_new/VxWorks55/ppc/target/lib/ppc/PPC604/common/libos.a(pipeDrv.o) (msgQInfoGet)
/usr/local/clas/devel_new/VxWorks55/ppc/target/lib/ppc/PPC604/common/libwind.a(schedLib.o)
                              /usr/local/clas/devel_new/VxWorks55/ppc/target/lib/ppc/PPC604/common/libarch.a(intALib.o) (reschedule)
/usr/local/clas/devel_new/VxWorks55/ppc/target/lib/ppc/PPC604/common/libwind.a(semBLib.o)
                              bootConfig.o (semBLibInit)
/usr/local/clas/devel_new/VxWorks55/ppc/target/lib/ppc/PPC604/common/libwind.a(semCLib.o)
                              bootConfig.o (semCLibInit)
/usr/local/clas/devel_new/VxWorks55/ppc/target/lib/ppc/PPC604/common/libwind.a(semLib.o)
                              /usr/local/clas/devel_new/VxWorks55/ppc/target/lib/ppc/PPC604/common/libwind.a(semBLib.o) (semClassId)
/usr/local/clas/devel_new/VxWorks55/ppc/target/lib/ppc/PPC604/common/libwind.a(semMLib.o)
                              bootConfig.o (semMLibInit)
/usr/local/clas/devel_new/VxWorks55/ppc/target/lib/ppc/PPC604/common/libwind.a(taskInfo.o)
                              /usr/local/clas/devel_new/VxWorks55/ppc/target/lib/ppc/PPC604/common/libos.a(envLib.o) (taskOptionsSet)
/usr/local/clas/devel_new/VxWorks55/ppc/target/lib/ppc/PPC604/common/libwind.a(taskLib.o)
                              /usr/local/clas/devel_new/VxWorks55/ppc/target/lib/ppc/PPC604/common/libos.a(fioLib.o) (taskClassId)
/usr/local/clas/devel_new/VxWorks55/ppc/target/lib/ppc/PPC604/common/libwind.a(taskShow.o)
                              bootConfig.o (taskRegsShow)
/usr/local/clas/devel_new/VxWorks55/ppc/target/lib/ppc/PPC604/common/libwind.a(tickLib.o)
                              bootConfig.o (tickAnnounce)
/usr/local/clas/devel_new/VxWorks55/ppc/target/lib/ppc/PPC604/common/libwind.a(wdLib.o)
                              bootConfig.o (wdLibInit)
/usr/local/clas/devel_new/VxWorks55/ppc/target/lib/ppc/PPC604/common/libwind.a(windLib.o)
                              /usr/local/clas/devel_new/VxWorks55/ppc/target/lib/ppc/PPC604/common/libwind.a(taskLib.o) (windSpawn)
/usr/local/clas/devel_new/VxWorks55/ppc/target/lib/ppc/PPC604/common/libwind.a(workQLib.o)
                              bootConfig.o (workQInit)
/usr/local/clas/devel_new/VxWorks55/ppc/target/lib/ppc/PPC604/common/libwind.a(eventShow.o)
                              /usr/local/clas/devel_new/VxWorks55/ppc/target/lib/ppc/PPC604/common/libwind.a(taskShow.o) (eventTaskShow)
/usr/local/clas/devel_new/VxWorks55/ppc/target/lib/ppc/PPC604/common/libwind.a(msgQEvLib.o)
                              /usr/local/clas/devel_new/VxWorks55/ppc/target/lib/ppc/PPC604/common/libwind.a(msgQLib.o) (msgQEvLibInit)
/usr/local/clas/devel_new/VxWorks55/ppc/target/lib/ppc/PPC604/common/libwind.a(semEvLib.o)
                              /usr/local/clas/devel_new/VxWorks55/ppc/target/lib/ppc/PPC604/common/libwind.a(semLib.o) (semEvLibInit)
/usr/local/clas/devel_new/VxWorks55/ppc/target/lib/ppc/PPC604/common/libwindview.a(wvLib.o)
                              bootConfig.o (wvLibInit)
/usr/local/clas/devel_new/VxWorks55/ppc/target/lib/ppc/PPC604/common/libwindview.a(evtLogLib.o)
                              /usr/local/clas/devel_new/VxWorks55/ppc/target/lib/ppc/PPC604/common/libwindview.a(wvLib.o) (evtObjLogFuncBind)
/usr/local/clas/devel_new/VxWorks55/ppc/target/lib/ppc/PPC604/common/libarch.a(ffsALib.o)
                              /usr/local/clas/devel_new/VxWorks55/ppc/target/lib/ppc/PPC604/common/libnet.a(netBufLib.o) (ffsMsb)
/usr/local/clas/devel_new/VxWorks55/ppc/target/lib/ppc/PPC604/common/libarch.a(sigCtxALib.o)
                              /usr/local/clas/devel_new/VxWorks55/ppc/target/lib/ppc/PPC604/common/libos.a(sigLib.o) (_sigCtxLoad)
/usr/local/clas/devel_new/VxWorks55/ppc/target/lib/ppc/PPC604/common/libarch.a(sigCtxLib.o)
                              /usr/local/clas/devel_new/VxWorks55/ppc/target/lib/ppc/PPC604/common/libos.a(sigLib.o) (_sigfaulttable)
/usr/local/clas/devel_new/VxWorks55/ppc/target/lib/ppc/PPC604/common/libarch.a(taskArchLib.o)
                              /usr/local/clas/devel_new/VxWorks55/ppc/target/lib/ppc/PPC604/common/libwind.a(taskShow.o) (taskRegName)
/usr/local/clas/devel_new/VxWorks55/ppc/target/lib/ppc/PPC604/common/libarch.a(windALib.o)
                              /usr/local/clas/devel_new/VxWorks55/ppc/target/lib/ppc/PPC604/common/libos.a(sigLib.o) (windExit)
/usr/local/clas/devel_new/VxWorks55/ppc/target/lib/ppc/PPC604/common/libgcc.a(_x_gnu__ashldi3.o)
                              /usr/local/clas/devel_new/VxWorks55/ppc/target/lib/ppc/PPC604/common/libos.a(dosChkLib.o) (__ashldi3)
/usr/local/clas/devel_new/VxWorks55/ppc/target/lib/ppc/PPC604/common/libgcc.a(_x_gnu__ashrdi3.o)
                              /usr/local/clas/devel_new/VxWorks55/ppc/target/lib/ppc/PPC604/common/libos.a(dosFsLib.o) (__ashrdi3)
/usr/local/clas/devel_new/VxWorks55/ppc/target/lib/ppc/PPC604/common/libgcc.a(_x_gnu__divdi3.o)
                              /usr/local/clas/devel_new/VxWorks55/ppc/target/lib/ppc/PPC604/common/libos.a(dosChkLib.o) (__divdi3)
/usr/local/clas/devel_new/VxWorks55/ppc/target/lib/ppc/PPC604/common/libgcc.a(_x_gnu__udivdi3.o)
                              /usr/local/clas/devel_new/VxWorks55/ppc/target/lib/ppc/PPC604/common/libos.a(clockLib.o) (__udivdi3)
/usr/local/clas/devel_new/VxWorks55/ppc/target/lib/ppc/PPC604/common/libgcc.a(_x_gnu__umoddi3.o)
                              /usr/local/clas/devel_new/VxWorks55/ppc/target/lib/ppc/PPC604/common/libos.a(clockLib.o) (__umoddi3)
/usr/local/clas/devel_new/VxWorks55/ppc/target/lib/ppc/PPC604/common/libos.a(longjmp.o)
                              /usr/local/clas/devel_new/VxWorks55/ppc/target/lib/ppc/PPC604/common/libarch.a(sigCtxALib.o) (_setjmpSetup)
/usr/local/clas/devel_new/VxWorks55/ppc/target/lib/ppc/PPC604/common/libos.a(qJobLib.o)
                              /usr/local/clas/devel_new/VxWorks55/ppc/target/lib/ppc/PPC604/common/libwind.a(msgQLib.o) (qJobTerminate)

Allocating common symbols
Common symbol       size              file

_func_smObjObjShow  0x4               /usr/local/clas/devel_new/VxWorks55/ppc/target/lib/ppc/PPC604/common/libos.a(funcBind.o)
taskSwitchTable     0x44              /usr/local/clas/devel_new/VxWorks55/ppc/target/lib/ppc/PPC604/common/libwind.a(taskLib.o)
inetsw              0x340             /usr/local/clas/devel_new/VxWorks55/ppc/target/lib/ppc/PPC604/common/libnet.a(in_proto.o)
msgQDistShowRtn     0x4               /usr/local/clas/devel_new/VxWorks55/ppc/target/lib/ppc/PPC604/common/libos.a(funcBind.o)
_func_evtLogT1_noTS
                    0x4               /usr/local/clas/devel_new/VxWorks55/ppc/target/lib/ppc/PPC604/common/libos.a(funcBind.o)
mCastHashInfo       0x8               /usr/local/clas/devel_new/VxWorks55/ppc/target/lib/ppc/PPC604/common/libnet.a(in.o)
ifnet               0x4               /usr/local/clas/devel_new/VxWorks55/ppc/target/lib/ppc/PPC604/common/libnet.a(if.o)
_func_spyStop       0x4               /usr/local/clas/devel_new/VxWorks55/ppc/target/lib/ppc/PPC604/common/libos.a(funcBind.o)
workQWriteIx        0x1               /usr/local/clas/devel_new/VxWorks55/ppc/target/lib/ppc/PPC604/common/libwind.a(workQLib.o)
_func_excInfoShow   0x4               /usr/local/clas/devel_new/VxWorks55/ppc/target/lib/ppc/PPC604/common/libos.a(funcBind.o)
ip_id               0x2               /usr/local/clas/devel_new/VxWorks55/ppc/target/lib/ppc/PPC604/common/libnet.a(ip_input.o)
_func_evtLogReserveTaskName
                    0x4               /usr/local/clas/devel_new/VxWorks55/ppc/target/lib/ppc/PPC604/common/libos.a(funcBind.o)
drvTable            0x4               /usr/local/clas/devel_new/VxWorks55/ppc/target/lib/ppc/PPC604/common/libos.a(iosLib.o)
ip_protox           0x100             /usr/local/clas/devel_new/VxWorks55/ppc/target/lib/ppc/PPC604/common/libnet.a(ip_input.o)
DCACHE_CTRL         0x80              /usr/local/clas/devel_new/VxWorks55/ppc/target/lib/ppc/PPC604/common/libos.a(dcacheCbio.o)
global_emfloatstruct
                    0x18              tests/testtool.o
zeroin_addr         0x4               /usr/local/clas/devel_new/VxWorks55/ppc/target/lib/ppc/PPC604/common/libnet.a(in_pcb.o)
_func_trgCheck      0x4               /usr/local/clas/devel_new/VxWorks55/ppc/target/lib/ppc/PPC604/common/libos.a(funcBind.o)
pWvNetEventMap      0x4               /usr/local/clas/devel_new/VxWorks55/ppc/target/lib/ppc/PPC604/common/libos.a(funcBind.o)
frcSysBoardId       0x3               sysLib.o
workQReadIx         0x1               /usr/local/clas/devel_new/VxWorks55/ppc/target/lib/ppc/PPC604/common/libwind.a(workQLib.o)
use_result_dummy    0x4               tests/testtool.o
cbioClass           0x34              /usr/local/clas/devel_new/VxWorks55/ppc/target/lib/ppc/PPC604/common/libos.a(cbioLib.o)
ioDefPath           0x100             /usr/local/clas/devel_new/VxWorks55/ppc/target/lib/ppc/PPC604/common/libos.a(iosLib.o)
_func_taskCreateHookAdd
                    0x4               /usr/local/clas/devel_new/VxWorks55/ppc/target/lib/ppc/PPC604/common/libos.a(funcBind.o)
somaxconn           0x4               /usr/local/clas/devel_new/VxWorks55/ppc/target/lib/ppc/PPC604/common/libnet.a(uipc_sock.o)
_func_dspRegsListHook
                    0x4               /usr/local/clas/devel_new/VxWorks55/ppc/target/lib/ppc/PPC604/common/libos.a(funcBind.o)
_func_tmrConnect    0x4               /usr/local/clas/devel_new/VxWorks55/ppc/target/lib/ppc/PPC604/common/libos.a(funcBind.o)
max_protohdr        0x4               /usr/local/clas/devel_new/VxWorks55/ppc/target/lib/ppc/PPC604/common/libnet.a(uipc_dom.o)
_func_evtLogTSched  0x4               /usr/local/clas/devel_new/VxWorks55/ppc/target/lib/ppc/PPC604/common/libos.a(funcBind.o)
tcpstat             0xd0              /usr/local/clas/devel_new/VxWorks55/ppc/target/lib/ppc/PPC604/common/libnet.a(tcp_input.o)
vxIntStackBase      0x4               /usr/local/clas/devel_new/VxWorks55/ppc/target/lib/ppc/PPC604/common/libwind.a(kernelLib.o)
_func_dspTaskRegsShow
                    0x4               /usr/local/clas/devel_new/VxWorks55/ppc/target/lib/ppc/PPC604/common/libos.a(funcBind.o)
workQIsEmpty        0x4               /usr/local/clas/devel_new/VxWorks55/ppc/target/lib/ppc/PPC604/common/libwind.a(workQLib.o)
arp_allocated       0x4               /usr/local/clas/devel_new/VxWorks55/ppc/target/lib/ppc/PPC604/common/libnet.a(if_ether.o)
trgEvtClass         0x4               /usr/local/clas/devel_new/VxWorks55/ppc/target/lib/ppc/PPC604/common/libos.a(funcBind.o)
_func_selPtyDelete  0x4               /usr/local/clas/devel_new/VxWorks55/ppc/target/lib/ppc/PPC604/common/libos.a(funcBind.o)
taskSwapTable       0x44              /usr/local/clas/devel_new/VxWorks55/ppc/target/lib/ppc/PPC604/common/libwind.a(taskLib.o)
_func_evtLogO       0x4               /usr/local/clas/devel_new/VxWorks55/ppc/target/lib/ppc/PPC604/common/libos.a(funcBind.o)
_func_selWakeupListInit
                    0x4               /usr/local/clas/devel_new/VxWorks55/ppc/target/lib/ppc/PPC604/common/libos.a(funcBind.o)
global_ofile_name   0x3c              tests/testtool.o
rttrash             0x4               /usr/local/clas/devel_new/VxWorks55/ppc/target/lib/ppc/PPC604/common/libnet.a(route.o)
semMGiveKernWork    0x4               /usr/local/clas/devel_new/VxWorks55/ppc/target/lib/ppc/PPC604/common/libwind.a(semMLib.o)
trgCnt              0x4               /usr/local/clas/devel_new/VxWorks55/ppc/target/lib/ppc/PPC604/common/libos.a(funcBind.o)
errno               0x4               /usr/local/clas/devel_new/VxWorks55/ppc/target/lib/ppc/PPC604/common/libos.a(errnoLib.o)
pIntf               0x4               frcBibDrv.o
_func_ioTaskStdSet  0x4               /usr/local/clas/devel_new/VxWorks55/ppc/target/lib/ppc/PPC604/common/libos.a(funcBind.o)
_func_excIntHook    0x4               /usr/local/clas/devel_new/VxWorks55/ppc/target/lib/ppc/PPC604/common/libos.a(funcBind.o)
_func_selPtyAdd     0x4               /usr/local/clas/devel_new/VxWorks55/ppc/target/lib/ppc/PPC604/common/libos.a(funcBind.o)
tot_out_error       0x50              tests/testtool.o
kernelState         0x4               /usr/local/clas/devel_new/VxWorks55/ppc/target/lib/ppc/PPC604/common/libwind.a(windLib.o)
_func_evtLogM1      0x4               /usr/local/clas/devel_new/VxWorks55/ppc/target/lib/ppc/PPC604/common/libos.a(funcBind.o)
_func_sigExcKill    0x4               /usr/local/clas/devel_new/VxWorks55/ppc/target/lib/ppc/PPC604/common/libos.a(funcBind.o)
_func_wvNetPortFilterTest
                    0x4               /usr/local/clas/devel_new/VxWorks55/ppc/target/lib/ppc/PPC604/common/libos.a(funcBind.o)
average_error       0x8               tests/testtool.o
pciConfigAddr2      0x4               pciConfigLib.o
_func_bdall         0x4               /usr/local/clas/devel_new/VxWorks55/ppc/target/lib/ppc/PPC604/common/libos.a(funcBind.o)
hostList            0xc               /usr/local/clas/devel_new/VxWorks55/ppc/target/lib/ppc/PPC604/common/libnet.a(hostLib.o)
tickQHead           0x10              /usr/local/clas/devel_new/VxWorks55/ppc/target/lib/ppc/PPC604/common/libwind.a(kernelLib.o)
global_ofile        0x4               tests/testtool.o
mid_wt_cum_change   0x8c0             tests/testtool.o
_func_symNameGet    0x4               /usr/local/clas/devel_new/VxWorks55/ppc/target/lib/ppc/PPC604/common/libos.a(funcBind.o)
tcbinfo             0x10              /usr/local/clas/devel_new/VxWorks55/ppc/target/lib/ppc/PPC604/common/libnet.a(tcp_input.o)
_func_logMsg        0x4               /usr/local/clas/devel_new/VxWorks55/ppc/target/lib/ppc/PPC604/common/libos.a(funcBind.o)
mid_error           0x40              tests/testtool.o
tcpOutRsts          0x4               /usr/local/clas/devel_new/VxWorks55/ppc/target/lib/ppc/PPC604/common/libnet.a(tcp_input.o)
_func_tmrFreq       0x4               /usr/local/clas/devel_new/VxWorks55/ppc/target/lib/ppc/PPC604/common/libos.a(funcBind.o)
excMsgQId           0x4               /usr/local/clas/devel_new/VxWorks55/ppc/target/lib/ppc/PPC604/common/libos.a(excLib.o)
_clockRealtime      0x10              /usr/local/clas/devel_new/VxWorks55/ppc/target/lib/ppc/PPC604/common/libos.a(clockLib.o)
global_lustruct     0x18              tests/testtool.o
_func_tmrEnable     0x4               /usr/local/clas/devel_new/VxWorks55/ppc/target/lib/ppc/PPC604/common/libos.a(funcBind.o)
LUtempvv            0x4               tests/testtool.o
flash_index         0x4               flashDrv.o
_igmpQuerierTimeUpdateHook
                    0x4               /usr/local/clas/devel_new/VxWorks55/ppc/target/lib/ppc/PPC604/common/libnet.a(igmp.o)
numpats             0x4               tests/testtool.o
msgQDistNumMsgsRtn  0x4               /usr/local/clas/devel_new/VxWorks55/ppc/target/lib/ppc/PPC604/common/libwind.a(msgQLib.o)
sysFlags            0x4               sysLib.o
_func_excPanicHook  0x4               /usr/local/clas/devel_new/VxWorks55/ppc/target/lib/ppc/PPC604/common/libos.a(funcBind.o)
_func_spy           0x4               /usr/local/clas/devel_new/VxWorks55/ppc/target/lib/ppc/PPC604/common/libos.a(funcBind.o)
avg_out_error       0x50              tests/testtool.o
_func_fastUdpInput  0x4               /usr/local/clas/devel_new/VxWorks55/ppc/target/lib/ppc/PPC604/common/libos.a(funcBind.o)
_func_remCurIdGet   0x4               /usr/local/clas/devel_new/VxWorks55/ppc/target/lib/ppc/PPC604/common/libos.a(funcBind.o)
_func_ipsecFilterHook
                    0x4               /usr/local/clas/devel_new/VxWorks55/ppc/target/lib/ppc/PPC604/common/libnet.a(ip_input.o)
_igmpLeaveAlertHook
                    0x4               /usr/local/clas/devel_new/VxWorks55/ppc/target/lib/ppc/PPC604/common/libnet.a(igmp.o)
consoleName         0x14              bootConfig.o
smObjTcbFreeFailRtn
                    0x4               /usr/local/clas/devel_new/VxWorks55/ppc/target/lib/ppc/PPC604/common/libwind.a(taskLib.o)
taskBpHook          0x4               /usr/local/clas/devel_new/VxWorks55/ppc/target/lib/ppc/PPC604/common/libwind.a(taskLib.o)
sigEvtRtn           0x4               /usr/local/clas/devel_new/VxWorks55/ppc/target/lib/ppc/PPC604/common/libos.a(sigLib.o)
_func_ipsecOutput   0x4               /usr/local/clas/devel_new/VxWorks55/ppc/target/lib/ppc/PPC604/common/libnet.a(ip_output.o)
_m2IfTableUpdate    0x4               /usr/local/clas/devel_new/VxWorks55/ppc/target/lib/ppc/PPC604/common/libnet.a(if.o)
_func_selTyDelete   0x4               /usr/local/clas/devel_new/VxWorks55/ppc/target/lib/ppc/PPC604/common/libos.a(funcBind.o)
_func_pthread_setcanceltype
                    0x4               /usr/local/clas/devel_new/VxWorks55/ppc/target/lib/ppc/PPC604/common/libos.a(funcBind.o)
_func_evtLogT0      0x4               /usr/local/clas/devel_new/VxWorks55/ppc/target/lib/ppc/PPC604/common/libos.a(funcBind.o)
in_ifaddr           0x4               /usr/local/clas/devel_new/VxWorks55/ppc/target/lib/ppc/PPC604/common/libnet.a(ip_input.o)
max_hdr             0x4               /usr/local/clas/devel_new/VxWorks55/ppc/target/lib/ppc/PPC604/common/libnet.a(uipc_dom.o)
smMemPartShowRtn    0x4               /usr/local/clas/devel_new/VxWorks55/ppc/target/lib/ppc/PPC604/common/libos.a(funcBind.o)
_func_sseTaskRegsShow
                    0x4               /usr/local/clas/devel_new/VxWorks55/ppc/target/lib/ppc/PPC604/common/libos.a(funcBind.o)
busIoMemRanges      0x140             pciDevConfig.o
arpMaxEntries       0x4               /usr/local/clas/devel_new/VxWorks55/ppc/target/lib/ppc/PPC604/common/libnet.a(if_ether.o)
worst_error         0x8               tests/testtool.o
_func_tmrStampLock  0x4               /usr/local/clas/devel_new/VxWorks55/ppc/target/lib/ppc/PPC604/common/libos.a(funcBind.o)
taskDeleteTable     0x44              /usr/local/clas/devel_new/VxWorks55/ppc/target/lib/ppc/PPC604/common/libwind.a(taskLib.o)
rt_tables           0x6c              /usr/local/clas/devel_new/VxWorks55/ppc/target/lib/ppc/PPC604/common/libnet.a(route.o)
ipstat              0x60              /usr/local/clas/devel_new/VxWorks55/ppc/target/lib/ppc/PPC604/common/libnet.a(ip_input.o)
_func_valloc        0x4               /usr/local/clas/devel_new/VxWorks55/ppc/target/lib/ppc/PPC604/common/libos.a(funcBind.o)
global_numsortstruct
                    0x18              tests/testtool.o
s1                  0x4               tests/testtool.o
pciConfigAddr0      0x4               pciConfigLib.o
global_bitopstruct  0x18              tests/testtool.o
_igmpMessageHook    0x4               /usr/local/clas/devel_new/VxWorks55/ppc/target/lib/ppc/PPC604/common/libnet.a(igmp.o)
hourr               0x4               rtc.o
_func_evtLogM3      0x4               /usr/local/clas/devel_new/VxWorks55/ppc/target/lib/ppc/PPC604/common/libos.a(funcBind.o)
max_linkhdr         0x4               /usr/local/clas/devel_new/VxWorks55/ppc/target/lib/ppc/PPC604/common/libnet.a(uipc_dom.o)
loif                0x94              /usr/local/clas/devel_new/VxWorks55/ppc/target/lib/ppc/PPC604/common/libdrv.a(if_loop.o)
_func_fastUdpErrorNotify
                    0x4               /usr/local/clas/devel_new/VxWorks55/ppc/target/lib/ppc/PPC604/common/libos.a(funcBind.o)
consoleFd           0x4               bootConfig.o
_func_evtLogPoint   0x4               /usr/local/clas/devel_new/VxWorks55/ppc/target/lib/ppc/PPC604/common/libos.a(funcBind.o)
uflashBuf           0x40020           flashDrv.o
frc_vxworks_size    0x4               bootConfig.o
msgQSmShowRtn       0x4               /usr/local/clas/devel_new/VxWorks55/ppc/target/lib/ppc/PPC604/common/libos.a(funcBind.o)
_func_symValueGet   0x4               /usr/local/clas/devel_new/VxWorks55/ppc/target/lib/ppc/PPC604/common/libos.a(funcBind.o)
_func_spyClkStart   0x4               /usr/local/clas/devel_new/VxWorks55/ppc/target/lib/ppc/PPC604/common/libos.a(funcBind.o)
_func_excBaseHook   0x4               /usr/local/clas/devel_new/VxWorks55/ppc/target/lib/ppc/PPC604/common/libos.a(funcBind.o)
_func_tmrPeriod     0x4               /usr/local/clas/devel_new/VxWorks55/ppc/target/lib/ppc/PPC604/common/libos.a(funcBind.o)
dayr                0x4               rtc.o
secr                0x4               rtc.o
_func_altivecProbe  0x4               /usr/local/clas/devel_new/VxWorks55/ppc/target/lib/ppc/PPC604/common/libos.a(funcBind.o)
learned             0x4               tests/testtool.o
_func_tmrStamp      0x4               /usr/local/clas/devel_new/VxWorks55/ppc/target/lib/ppc/PPC604/common/libos.a(funcBind.o)
monr                0x4               rtc.o
msgQSmInfoGetRtn    0x4               /usr/local/clas/devel_new/VxWorks55/ppc/target/lib/ppc/PPC604/common/libos.a(funcBind.o)
_func_ftpLs         0x4               /usr/local/clas/devel_new/VxWorks55/ppc/target/lib/ppc/PPC604/common/libos.a(funcBind.o)
iteration_count     0x4               tests/testtool.o
sysBootFile         0xa0              sysLib.o
tcp_maxidle         0x4               /usr/local/clas/devel_new/VxWorks55/ppc/target/lib/ppc/PPC604/common/libnet.a(tcp_timer.o)
pmPartId            0x4               /usr/local/clas/devel_new/VxWorks55/ppc/target/lib/ppc/PPC604/common/libwindview.a(wvLib.o)
wvInstIsOn          0x4               /usr/local/clas/devel_new/VxWorks55/ppc/target/lib/ppc/PPC604/common/libos.a(funcBind.o)
sysPhysMemDescNumEnt
                    0x4               sysLib.o
mid_wt_change       0x8c0             tests/testtool.o
semClass            0x34              /usr/local/clas/devel_new/VxWorks55/ppc/target/lib/ppc/PPC604/common/libwind.a(semLib.o)
semInstClass        0x34              /usr/local/clas/devel_new/VxWorks55/ppc/target/lib/ppc/PPC604/common/libwind.a(semLib.o)
smObjTaskDeleteFailRtn
                    0x4               /usr/local/clas/devel_new/VxWorks55/ppc/target/lib/ppc/PPC604/common/libwind.a(taskLib.o)
_func_evtLogM2      0x4               /usr/local/clas/devel_new/VxWorks55/ppc/target/lib/ppc/PPC604/common/libos.a(funcBind.o)
pJobPool            0x400             /usr/local/clas/devel_new/VxWorks55/ppc/target/lib/ppc/PPC604/common/libwind.a(workQLib.o)
numpasses           0x4               tests/testtool.o
tcp_alpha           0x4               /usr/local/clas/devel_new/VxWorks55/ppc/target/lib/ppc/PPC604/common/libnet.a(tcp_input.o)
udpstat             0x28              /usr/local/clas/devel_new/VxWorks55/ppc/target/lib/ppc/PPC604/common/libnet.a(udp_usrreq.o)
mask_rnhead         0x4               /usr/local/clas/devel_new/VxWorks55/ppc/target/lib/ppc/PPC604/common/libnet.a(radix.o)
_func_evtLogT0_noInt
                    0x4               /usr/local/clas/devel_new/VxWorks55/ppc/target/lib/ppc/PPC604/common/libos.a(funcBind.o)
_func_spyReport     0x4               /usr/local/clas/devel_new/VxWorks55/ppc/target/lib/ppc/PPC604/common/libos.a(funcBind.o)
msgQDistInfoGetRtn  0x4               /usr/local/clas/devel_new/VxWorks55/ppc/target/lib/ppc/PPC604/common/libos.a(funcBind.o)
_func_selTyAdd      0x4               /usr/local/clas/devel_new/VxWorks55/ppc/target/lib/ppc/PPC604/common/libos.a(funcBind.o)
_igmpJoinAlertHook  0x4               /usr/local/clas/devel_new/VxWorks55/ppc/target/lib/ppc/PPC604/common/libnet.a(igmp.o)
_func_fclose        0x4               /usr/local/clas/devel_new/VxWorks55/ppc/target/lib/ppc/PPC604/common/libos.a(funcBind.o)
sysSymTbl           0x4               bootConfig.o
mem_array           0xa0              tests/testtool.o
evtBufferId         0x4               /usr/local/clas/devel_new/VxWorks55/ppc/target/lib/ppc/PPC604/common/libwindview.a(evtLogLib.o)
vxAbsTicks          0x8               /usr/local/clas/devel_new/VxWorks55/ppc/target/lib/ppc/PPC604/common/libwind.a(tickLib.o)
in_interfaces       0x4               /usr/local/clas/devel_new/VxWorks55/ppc/target/lib/ppc/PPC604/common/libnet.a(in.o)
ppGlobalEnviron     0x4               /usr/local/clas/devel_new/VxWorks55/ppc/target/lib/ppc/PPC604/common/libos.a(envLib.o)
smObjTcbFreeRtn     0x4               /usr/local/clas/devel_new/VxWorks55/ppc/target/lib/ppc/PPC604/common/libwind.a(taskLib.o)
msgQSmReceiveRtn    0x4               /usr/local/clas/devel_new/VxWorks55/ppc/target/lib/ppc/PPC604/common/libwind.a(msgQLib.o)
_m2SetIfLastChange  0x4               /usr/local/clas/devel_new/VxWorks55/ppc/target/lib/ppc/PPC604/common/libnet.a(if.o)
mid_out             0x40              tests/testtool.o
smMemPartOptionsSetRtn
                    0x4               /usr/local/clas/devel_new/VxWorks55/ppc/target/lib/ppc/PPC604/common/libos.a(memLib.o)
_func_spyClkStop    0x4               /usr/local/clas/devel_new/VxWorks55/ppc/target/lib/ppc/PPC604/common/libos.a(funcBind.o)
global_huffstruct   0x18              tests/testtool.o
yearr               0x4               rtc.o
mid_wts             0x8c0             tests/testtool.o
global_min_seconds  0x4               tests/testtool.o
wildcard            0x10              /usr/local/clas/devel_new/VxWorks55/ppc/target/lib/ppc/PPC604/common/libnet.a(route.o)
pciConfigAddr1      0x4               pciConfigLib.o
out_wt_cum_change   0x200             tests/testtool.o
pciActive           0x4               pciScan.o
pAltivecTaskIdPrevious
                    0x4               /usr/local/clas/devel_new/VxWorks55/ppc/target/lib/ppc/PPC604/common/libarch.a(altivecLib.o)
geidevices          0x14              pciDevConfig.o
tcp_msl             0x4               /usr/local/clas/devel_new/VxWorks55/ppc/target/lib/ppc/PPC604/common/libnet.a(tcp_input.o)
start_addr          0x4               tests/testtool.o
global_allstats     0x4               tests/testtool.o
msgQDistSendRtn     0x4               /usr/local/clas/devel_new/VxWorks55/ppc/target/lib/ppc/PPC604/common/libwind.a(msgQLib.o)
_func_tmrDisable    0x4               /usr/local/clas/devel_new/VxWorks55/ppc/target/lib/ppc/PPC604/common/libos.a(funcBind.o)
rn_mkfreelist       0x4               /usr/local/clas/devel_new/VxWorks55/ppc/target/lib/ppc/PPC604/common/libnet.a(radix.o)
global_strsortstruct
                    0x18              tests/testtool.o
global_min_ticks    0x4               tests/testtool.o
_func_evtLogString  0x4               /usr/local/clas/devel_new/VxWorks55/ppc/target/lib/ppc/PPC604/common/libos.a(funcBind.o)
tcp_beta            0x4               /usr/local/clas/devel_new/VxWorks55/ppc/target/lib/ppc/PPC604/common/libnet.a(tcp_input.o)
splSemId            0x4               /usr/local/clas/devel_new/VxWorks55/ppc/target/lib/ppc/PPC604/common/libnet.a(unixLib.o)
udb                 0x4               /usr/local/clas/devel_new/VxWorks55/ppc/target/lib/ppc/PPC604/common/libnet.a(udp_usrreq.o)
flashBuf            0x10000           bFlashDrv.o
arp_inuse           0x4               /usr/local/clas/devel_new/VxWorks55/ppc/target/lib/ppc/PPC604/common/libnet.a(if_ether.o)
altivecCreateHookRtn
                    0x4               /usr/local/clas/devel_new/VxWorks55/ppc/target/lib/ppc/PPC604/common/libarch.a(altivecLib.o)
write_to_file       0x4               tests/testtool.o
memsplit            0x4               tests/testtool.o
wvEvtClass          0x4               /usr/local/clas/devel_new/VxWorks55/ppc/target/lib/ppc/PPC604/common/libos.a(funcBind.o)
splTid              0x4               /usr/local/clas/devel_new/VxWorks55/ppc/target/lib/ppc/PPC604/common/libnet.a(unixLib.o)
taskIdCurrent       0x4               /usr/local/clas/devel_new/VxWorks55/ppc/target/lib/ppc/PPC604/common/libwind.a(taskLib.o)
ipintrq             0x14              /usr/local/clas/devel_new/VxWorks55/ppc/target/lib/ppc/PPC604/common/libnet.a(ip_input.o)
rootTaskId          0x4               /usr/local/clas/devel_new/VxWorks55/ppc/target/lib/ppc/PPC604/common/libwind.a(kernelLib.o)
_func_symFindSymbol
                    0x4               /usr/local/clas/devel_new/VxWorks55/ppc/target/lib/ppc/PPC604/common/libos.a(funcBind.o)
end_addr            0x4               tests/testtool.o
_func_printErr      0x4               /usr/local/clas/devel_new/VxWorks55/ppc/target/lib/ppc/PPC604/common/libos.a(funcBind.o)
roundRobinSlice     0x4               /usr/local/clas/devel_new/VxWorks55/ppc/target/lib/ppc/PPC604/common/libwind.a(kernelLib.o)
_func_ipsecInput    0x4               /usr/local/clas/devel_new/VxWorks55/ppc/target/lib/ppc/PPC604/common/libnet.a(ip_input.o)
dater               0x4               rtc.o
_func_evtLogT1      0x4               /usr/local/clas/devel_new/VxWorks55/ppc/target/lib/ppc/PPC604/common/libos.a(funcBind.o)
tcp_now             0x4               /usr/local/clas/devel_new/VxWorks55/ppc/target/lib/ppc/PPC604/common/libnet.a(tcp_input.o)
localToGlobalOffset
                    0x4               /usr/local/clas/devel_new/VxWorks55/ppc/target/lib/ppc/PPC604/common/libwind.a(windLib.o)
_func_taskDeleteHookAdd
                    0x4               /usr/local/clas/devel_new/VxWorks55/ppc/target/lib/ppc/PPC604/common/libos.a(funcBind.o)
netTaskId           0x4               /usr/local/clas/devel_new/VxWorks55/ppc/target/lib/ppc/PPC604/common/libnet.a(netLib.o)
out_out             0x40              tests/testtool.o
_func_netLsByName   0x4               /usr/local/clas/devel_new/VxWorks55/ppc/target/lib/ppc/PPC604/common/libos.a(funcBind.o)
vxTicks             0x4               /usr/local/clas/devel_new/VxWorks55/ppc/target/lib/ppc/PPC604/common/libwind.a(tickLib.o)
flocalBuf           0x20              flashDrv.o
bp2                 0x4               tests/testtool.o
count               0x4               tests/testtool.o
silent_test         0x4               tests/testtool.o
altivecDisplayHookRtn
                    0x4               /usr/local/clas/devel_new/VxWorks55/ppc/target/lib/ppc/PPC604/common/libarch.a(altivecLib.o)
_func_fppTaskRegsShow
                    0x4               /usr/local/clas/devel_new/VxWorks55/ppc/target/lib/ppc/PPC604/common/libos.a(funcBind.o)
_func_altivecTaskRegsGet
                    0x4               /usr/local/clas/devel_new/VxWorks55/ppc/target/lib/ppc/PPC604/common/libos.a(funcBind.o)
sdramSize           0x4               bootConfig.o
_func_symFindByValue
                    0x4               /usr/local/clas/devel_new/VxWorks55/ppc/target/lib/ppc/PPC604/common/libos.a(funcBind.o)
excExcepHook        0x4               /usr/local/clas/devel_new/VxWorks55/ppc/target/lib/ppc/PPC604/common/libos.a(excLib.o)
s2                  0x4               tests/testtool.o
smObjPoolMinusOne   0x4               /usr/local/clas/devel_new/VxWorks55/ppc/target/lib/ppc/PPC604/common/libwind.a(windLib.o)
minr                0x4               rtc.o
outBuffer           0x64              tests/testtool.o
mem_array_ents      0x4               tests/testtool.o
buf                 0x4               tests/testtool.o
tests_to_do         0x28              tests/testtool.o
ipforward_rt        0x14              /usr/local/clas/devel_new/VxWorks55/ppc/target/lib/ppc/PPC604/common/libnet.a(ip_input.o)
_func_selWakeupListTerm
                    0x4               /usr/local/clas/devel_new/VxWorks55/ppc/target/lib/ppc/PPC604/common/libos.a(funcBind.o)
msgQSmNumMsgsRtn    0x4               /usr/local/clas/devel_new/VxWorks55/ppc/target/lib/ppc/PPC604/common/libwind.a(msgQLib.o)
eventEvtRtn         0x4               /usr/local/clas/devel_new/VxWorks55/ppc/target/lib/ppc/PPC604/common/libwind.a(eventLib.o)
smMemPartFindMaxRtn
                    0x4               /usr/local/clas/devel_new/VxWorks55/ppc/target/lib/ppc/PPC604/common/libos.a(memLib.o)
vxIntStackEnd       0x4               /usr/local/clas/devel_new/VxWorks55/ppc/target/lib/ppc/PPC604/common/libwind.a(kernelLib.o)
_func_memalign      0x4               /usr/local/clas/devel_new/VxWorks55/ppc/target/lib/ppc/PPC604/common/libos.a(funcBind.o)
feidevices          0x28              pciDevConfig.o
ipDrvCtrl           0x188             bootConfig.o
rootMemNBytes       0x4               /usr/local/clas/devel_new/VxWorks55/ppc/target/lib/ppc/PPC604/common/libwind.a(kernelLib.o)
_func_evtLogM0      0x4               /usr/local/clas/devel_new/VxWorks55/ppc/target/lib/ppc/PPC604/common/libos.a(funcBind.o)
semSmShowRtn        0x4               /usr/local/clas/devel_new/VxWorks55/ppc/target/lib/ppc/PPC604/common/libos.a(funcBind.o)
_func_sigprocmask   0x4               /usr/local/clas/devel_new/VxWorks55/ppc/target/lib/ppc/PPC604/common/libos.a(funcBind.o)
_func_symTypeGet    0x4               /usr/local/clas/devel_new/VxWorks55/ppc/target/lib/ppc/PPC604/common/libos.a(funcBind.o)
out_wts             0x200             tests/testtool.o
_pSigQueueFreeHead  0x4               /usr/local/clas/devel_new/VxWorks55/ppc/target/lib/ppc/PPC604/common/libos.a(sigLib.o)
igmpstat            0x24              /usr/local/clas/devel_new/VxWorks55/ppc/target/lib/ppc/PPC604/common/libnet.a(igmp.o)
out_error           0x40              tests/testtool.o
cookieTbl           0x200             bootConfig.o
_func_altivecTaskRegsShow
                    0x4               /usr/local/clas/devel_new/VxWorks55/ppc/target/lib/ppc/PPC604/common/libos.a(funcBind.o)
tcp_saveti          0x28              /usr/local/clas/devel_new/VxWorks55/ppc/target/lib/ppc/PPC604/common/libnet.a(tcp_input.o)
tcpcb               0x4               /usr/local/clas/devel_new/VxWorks55/ppc/target/lib/ppc/PPC604/common/libnet.a(tcp_input.o)
arp_intimer         0x4               /usr/local/clas/devel_new/VxWorks55/ppc/target/lib/ppc/PPC604/common/libnet.a(if_ether.o)
_func_remCurIdSet   0x4               /usr/local/clas/devel_new/VxWorks55/ppc/target/lib/ppc/PPC604/common/libos.a(funcBind.o)
rtstat              0xa               /usr/local/clas/devel_new/VxWorks55/ppc/target/lib/ppc/PPC604/common/libnet.a(route.o)
taskCreateTable     0x44              /usr/local/clas/devel_new/VxWorks55/ppc/target/lib/ppc/PPC604/common/libwind.a(taskLib.o)
frcModNumBase       0x4               frcBibShow.o
global_align        0x4               tests/testtool.o
readyQHead          0x10              /usr/local/clas/devel_new/VxWorks55/ppc/target/lib/ppc/PPC604/common/libwind.a(kernelLib.o)
panicSuspend        0x4               /usr/local/clas/devel_new/VxWorks55/ppc/target/lib/ppc/PPC604/common/libnet.a(unixLib.o)
sysStartType        0x4               bootConfig.o
sysBootHost         0xa0              sysLib.o
_func_dspMregsHook  0x4               /usr/local/clas/devel_new/VxWorks55/ppc/target/lib/ppc/PPC604/common/libos.a(funcBind.o)
maxFiles            0x4               /usr/local/clas/devel_new/VxWorks55/ppc/target/lib/ppc/PPC604/common/libos.a(iosLib.o)
pCookie             0x4               bootConfig.o
_func_excJobAdd     0x4               /usr/local/clas/devel_new/VxWorks55/ppc/target/lib/ppc/PPC604/common/libos.a(funcBind.o)
_ipCfgFlags         0x4               /usr/local/clas/devel_new/VxWorks55/ppc/target/lib/ppc/PPC604/common/libnet.a(ip_input.o)
_func_spyTask       0x4               /usr/local/clas/devel_new/VxWorks55/ppc/target/lib/ppc/PPC604/common/libos.a(funcBind.o)
smMemPartReallocRtn
                    0x4               /usr/local/clas/devel_new/VxWorks55/ppc/target/lib/ppc/PPC604/common/libos.a(memLib.o)
global_custrun      0x4               tests/testtool.o
tcp_iss             0x4               /usr/local/clas/devel_new/VxWorks55/ppc/target/lib/ppc/PPC604/common/libnet.a(tcp_input.o)
pMibRtn             0x4               /usr/local/clas/devel_new/VxWorks55/ppc/target/lib/ppc/PPC604/common/libdrv.a(endLib.o)
endM2Tbl            0x204             bootConfig.o
_func_wvNetAddressFilterTest
                    0x4               /usr/local/clas/devel_new/VxWorks55/ppc/target/lib/ppc/PPC604/common/libos.a(funcBind.o)
taskSwapReference   0x44              /usr/local/clas/devel_new/VxWorks55/ppc/target/lib/ppc/PPC604/common/libwind.a(taskLib.o)
msgQSmSendRtn       0x4               /usr/local/clas/devel_new/VxWorks55/ppc/target/lib/ppc/PPC604/common/libwind.a(msgQLib.o)
global_assignstruct
                    0x18              tests/testtool.o
cenr                0x4               rtc.o
_func_fastUdpPortTest
                    0x4               /usr/local/clas/devel_new/VxWorks55/ppc/target/lib/ppc/PPC604/common/libos.a(funcBind.o)
_func_selWakeupAll  0x4               /usr/local/clas/devel_new/VxWorks55/ppc/target/lib/ppc/PPC604/common/libos.a(funcBind.o)
maxDrivers          0x4               /usr/local/clas/devel_new/VxWorks55/ppc/target/lib/ppc/PPC604/common/libos.a(iosLib.o)
usrflashBuf         0x10000           flashDrv.o
flashBufNV          0x2100            bFlashDrv.o
max_keylen          0x4               /usr/local/clas/devel_new/VxWorks55/ppc/target/lib/ppc/PPC604/common/libnet.a(radix.o)
excTaskId           0x4               /usr/local/clas/devel_new/VxWorks55/ppc/target/lib/ppc/PPC604/common/libos.a(excLib.o)
wvObjIsEnabled      0x4               /usr/local/clas/devel_new/VxWorks55/ppc/target/lib/ppc/PPC604/common/libos.a(funcBind.o)
ipq                 0x1c              /usr/local/clas/devel_new/VxWorks55/ppc/target/lib/ppc/PPC604/common/libnet.a(ip_input.o)
pRootMemStart       0x4               /usr/local/clas/devel_new/VxWorks55/ppc/target/lib/ppc/PPC604/common/libwind.a(kernelLib.o)
global_nnetstruct   0x18              tests/testtool.o
bp1                 0x4               tests/testtool.o
fdTable             0x4               /usr/local/clas/devel_new/VxWorks55/ppc/target/lib/ppc/PPC604/common/libos.a(iosLib.o)
global_ideastruct   0x18              tests/testtool.o
statSymTbl          0x4               bootConfig.o
roundRobinOn        0x4               /usr/local/clas/devel_new/VxWorks55/ppc/target/lib/ppc/PPC604/common/libwind.a(kernelLib.o)
readyQBMap          0x824             bootConfig.o
domains             0x4               /usr/local/clas/devel_new/VxWorks55/ppc/target/lib/ppc/PPC604/common/libnet.a(uipc_dom.o)
global_fourierstruct
                    0x18              tests/testtool.o
_func_sigTimeoutRecalc
                    0x4               /usr/local/clas/devel_new/VxWorks55/ppc/target/lib/ppc/PPC604/common/libos.a(funcBind.o)
icmpstat            0xb8              /usr/local/clas/devel_new/VxWorks55/ppc/target/lib/ppc/PPC604/common/libnet.a(ip_icmp.o)
kernelIsIdle        0x4               /usr/local/clas/devel_new/VxWorks55/ppc/target/lib/ppc/PPC604/common/libwind.a(windLib.o)
vxEventPendQ        0x10              /usr/local/clas/devel_new/VxWorks55/ppc/target/lib/ppc/PPC604/common/libwind.a(eventLib.o)
iosDvList           0x8               /usr/local/clas/devel_new/VxWorks55/ppc/target/lib/ppc/PPC604/common/libos.a(iosLib.o)
dcacheCtrl          0x800             /usr/local/clas/devel_new/VxWorks55/ppc/target/lib/ppc/PPC604/common/libos.a(dcacheCbio.o)
_func_symFindByValueAndType
                    0x4               /usr/local/clas/devel_new/VxWorks55/ppc/target/lib/ppc/PPC604/common/libos.a(funcBind.o)
semSmInfoRtn        0x4               /usr/local/clas/devel_new/VxWorks55/ppc/target/lib/ppc/PPC604/common/libos.a(funcBind.o)
udbinfo             0x10              /usr/local/clas/devel_new/VxWorks55/ppc/target/lib/ppc/PPC604/common/libnet.a(udp_usrreq.o)
membytes            0x4               tests/testtool.o
ftiming             0x4               tests/testtool.o
msgQDistReceiveRtn  0x4               /usr/local/clas/devel_new/VxWorks55/ppc/target/lib/ppc/PPC604/common/libwind.a(msgQLib.o)
_func_evtLogOIntLock
                    0x4               /usr/local/clas/devel_new/VxWorks55/ppc/target/lib/ppc/PPC604/common/libos.a(funcBind.o)
_func_taskRegsShowRtn
                    0x4               /usr/local/clas/devel_new/VxWorks55/ppc/target/lib/ppc/PPC604/common/libwind.a(taskShow.o)
out_wt_change       0x200             tests/testtool.o

Memory Configuration

Name             Origin             Length             Attributes
*default*        0x00000000         0xffffffff

Linker script and memory map

Address of section .text set to 0x400000
LOAD bootConfig.o
LOAD version.o
LOAD sysALib.o
LOAD sysLib.o
LOAD itab.o
LOAD pciConfigLib.o
LOAD pciDevConfig.o
LOAD pciScan.o
LOAD gtInitLib.o
LOAD gtIntControl.o
LOAD sysIntCtrl.o
LOAD userRsrvMem.o
LOAD gtCore.o
LOAD gtPci.o
LOAD gtMemory.o
LOAD gtDma.o
LOAD gtSram.o
LOAD vxGppIntCtrl.o
LOAD gtSmp.o
LOAD vxDbIntCtrl.o
LOAD gtCntmr.o
LOAD vxCntmrIntCtrl.o
LOAD vxDmaIntCtrl.o
LOAD vxWatchDog.o
LOAD ethernet.o
LOAD vxEthernetIntCtrl.o
LOAD mgiEnd.obj
LOAD brg.o
LOAD cunit.o
LOAD vxCunitIntCtrl.o
LOAD mpsc.o
LOAD vxMpscIntCtrl.o
LOAD sdma.o
LOAD vxSdmaIntCtrl.o
LOAD serialChan.o
LOAD vxMpscUart.o
LOAD dbgprints.o
LOAD sysRamDrv.o
LOAD bFlashDrv.o
LOAD flashDrv.o
LOAD i2cDrv.o
LOAD rtc.o
LOAD frcBibShow.o
LOAD frcBibDrv.o
LOAD bibSupport.o
LOAD pciBoot.o
LOAD regFileBurn.o
LOAD vpd.o
LOAD tests/testtool.o
LOAD usrDma.o
LOAD sysAUtil.o
START GROUP
LOAD /usr/local/clas/devel_new/VxWorks55/ppc/target/lib/ppc/PPC604/gnu/libcplus.a
LOAD /usr/local/clas/devel_new/VxWorks55/ppc/target/lib/ppc/PPC604/gnu/libgnucplus.a
LOAD /usr/local/clas/devel_new/VxWorks55/ppc/target/lib/ppc/PPC604/gnu/libvxcom.a
LOAD /usr/local/clas/devel_new/VxWorks55/ppc/target/lib/ppc/PPC604/common/libarch.a
LOAD /usr/local/clas/devel_new/VxWorks55/ppc/target/lib/ppc/PPC604/common/libcommoncc.a
LOAD /usr/local/clas/devel_new/VxWorks55/ppc/target/lib/ppc/PPC604/common/libdcc.a
LOAD /usr/local/clas/devel_new/VxWorks55/ppc/target/lib/ppc/PPC604/common/libdrv.a
LOAD /usr/local/clas/devel_new/VxWorks55/ppc/target/lib/ppc/PPC604/common/libgcc.a
LOAD /usr/local/clas/devel_new/VxWorks55/ppc/target/lib/ppc/PPC604/common/libnet.a
LOAD /usr/local/clas/devel_new/VxWorks55/ppc/target/lib/ppc/PPC604/common/libos.a
LOAD /usr/local/clas/devel_new/VxWorks55/ppc/target/lib/ppc/PPC604/common/librpc.a
LOAD /usr/local/clas/devel_new/VxWorks55/ppc/target/lib/ppc/PPC604/common/libtffs.a
LOAD /usr/local/clas/devel_new/VxWorks55/ppc/target/lib/ppc/PPC604/common/libwdb.a
LOAD /usr/local/clas/devel_new/VxWorks55/ppc/target/lib/ppc/PPC604/common/libwind.a
LOAD /usr/local/clas/devel_new/VxWorks55/ppc/target/lib/ppc/PPC604/common/libwindview.a
LOAD /usr/local/clas/devel_new/VxWorks55/ppc/target/lib/libPPC604gnuvx.a
END GROUP

.text           0x00400000    0xe54f0
                0x00400000                wrs_kernel_text_start=.
                0x00400000                _wrs_kernel_text_start=.
 *(.text)
 .text          0x00400000     0x255c bootConfig.o
                0x00400000                compressedEntry
                0x004001a8                usrRoot
                0x00400024                usrKernelInit
                0x004000c0                usrInit
                0x00400444                usrClock
 .text          0x0040255c      0x9a0 sysALib.o
                0x00402bcc                sysOutByte
                0x00402bb8                sysInByte
                0x00402d54                sysL2BackEnable
                0x00402d7c                sysL2BackDisable
                0x00402c38                __READ_FLASH64
                0x00402ae8                sysGetCpuVer
                0x00402bec                GET_THRM1
                0x00402db0                sysL2BackHWFlush
                0x00402988                _initialize_dbg_uart
                0x0040255c                _sysInit
                0x00402ebc                sysL1DcacheEnable
                0x00402c04                SET_THRM1
                0x00402ba8                sysL2crGet
                0x00402b98                sysGetL3CR
                0x00402bf8                GET_THRM3
                0x00402b08                sysSioRead
                0x00402e50                sysL2BackInit
                0x00402af4                sysGetCpuRev
                0x00402bb0                sysGetSDR1
                0x00402a90                sysMemProbeSup
                0x00402b24                sysSioWrite
                0x00402c24                __WRITE_FLASH64
                0x00402c4c                frccachePpcEnable
                0x00402b4c                sysRdCpuReg
                0x00402c9c                sysL2BackGlobalInv
                0x00402ba0                sysL2crPut
                0x00402ae8                sysGetPrid
                0x00402c14                SET_THRM3
                0x00402bdc                vxHid1Set
                0x00402ee4                sysL1DcacheDisable
                0x00402b90                sysGetL2CR
 .text          0x00402efc     0x244c sysLib.o
                0x0040435c                sysHwInit2
                0x0040321c                sysSerialHwInit
                0x00405178                readreg
                0x004038c0                frcPrintVariant
                0x00404a44                gtRegReadBlock
                0x00403154                sysTimestampFreq
                0x00403058                sysClkRateGet
                0x004044d8                sysProcNumSet
                0x00403394                sysSerialChanGet
                0x004037a4                frcGetBank1MemSize
                0x004043d8                sysOutWord
                0x00403064                sysClkRateSet
                0x004031a8                sysTimestampLock
                0x004051b8                sysHardReset
                0x00403b8c                frcPrintBoardInfo
                0x00403a7c                frcMv64360SiliconVersion
                0x00403160                sysTimestamp
                0x004032e4                sysSerialHwInit2
                0x004044e4                sysCpuCheck
                0x0040340c                frcGetPcbRev
                0x0040303c                sysClkDisable
                0x004037b4                frcPrintBank1MemSize
                0x004030a8                sysTimestampEnable
                0x00404a3c                sysVirtToPhys
                0x00403c40                sysModel
                0x00405238                pciIsr
                0x00405064                rdreg
                0x004046a4                sysMsDelay
                0x00404930                sysMmuPteShow
                0x004050b0                wrreg
                0x004038b0                frcGetVariant
                0x00404464                sysMemTop
                0x004036c4                frcGetBank0MemSize
                0x00404a84                gtRegWriteBlock
                0x0040341c                frcPrintPcbRev
                0x0040474c                sysNvRamGet
                0x00404150                sysBspRev
                0x004034f0                frcPrintBomRev
                0x0040415c                flashBootSectorInit
                0x00402ffc                sysClkEnable
                0x00404680                sysDelay
                0x00404ac4                memoryRead
                0x00403604                frcPrintUserFlashSize
                0x00404a40                sysPhysToVirt
                0x004052a0                sysBusToLocalAdrs
                0x00403104                sysTimestampDisable
                0x00404410                sysInWord
                0x0040528c                sysGetBusSpd
                0x00404af4                showMap
                0x004043ec                sysOutLong
                0x004040dc                sysAltivecProbe
                0x004048d4                sysMmuMapAdd
                0x004044a8                sysToMonitor
                0x00403a6c                frcGetExtSramSize
                0x004050f8                memRead
                0x00403bc4                frcCPUClockGet
                0x00403afc                frcPrintMv64360Version
                0x004033d4                frcBoardIdInit
                0x00404458                sysPhysMemTop
                0x00402f70                sysClkConnect
                0x004052a4                sysUsDelay
                0x004036d4                frcPrintBank0MemSize
                0x004035f4                frcGetUserFlashSize
                0x004044cc                sysProcNumGet
                0x00404428                sysInLong
                0x00403148                sysTimestampPeriod
                0x00403a5c                frcGetFlashOrg
                0x004030a0                sysTimestampConnect
                0x00405298                intDisconnect
                0x004047e8                sysNvRamSet
                0x004041bc                sysHwInit
 .text          0x00405348     0x175c pciConfigLib.o
                0x00405a6c                pciConfigBdfPack
                0x004056d0                pciFindClass
                0x00406880                pciConfigModifyByte
                0x00406788                pciConfigModifyWord
                0x00405e7c                pciConfigInLong
                0x004064ac                pciConfigOutLong
                0x00406690                pciConfigModifyLong
                0x00405c7c                pciConfigInWord
                0x0040626c                pciConfigOutWord
                0x00405474                pciFindDevice
                0x004053ac                pciConfigLibInit
                0x00406970                pciSpecialCycle
                0x00406038                pciConfigOutByte
                0x0040591c                pciDevConfig
                0x00405a84                pciConfigInByte
 .text          0x00406aa4     0x11b8 pciDevConfig.o
                0x00406e38                pciBusProbe
                0x00406aa4                pciAutoConfig
                0x00407ba0                sysPciConfigInsertLong
                0x00406b98                pciAutoConfigNonMonarch
 .text          0x00407c5c      0xad0 pciScan.o
                0x004083b8                frcPciConfigReadVPD
                0x00407cf8                pciScan
                0x00408160                frcPciSetActive
                0x0040848c                frcPciShow
                0x00407c6c                gtPciGetMaxBusNo
                0x00408438                frcPciConfigWriteVPD
                0x00407c5c                gtPciCpuDevNum
                0x00407c74                gtPciIntrToVecNum
 .text          0x0040872c      0x4f8 gtInitLib.o
                0x004089e8                gtInitSdramSize
                0x0040872c                gtInit
                0x00408b70                gtInitWindows
 .text          0x00408c24      0x89c gtIntControl.o
                0x004091ec                gtIntDisable
                0x00408c50                gtIntConnect
                0x00408c24                gtIntCtrlInit
                0x00408ef0                gtIntDisconnect
                0x0040912c                gtIntEnable
 .text          0x004094c0      0xbd4 sysIntCtrl.o
                0x00409610                sysMachChkExcpInit
                0x004094c0                sysIntCtrlInit
                0x00409818                sysMachChkExcpHand
                0x00409568                sysIntEnable
 .text          0x0040a094      0x104 userRsrvMem.o
                0x0040a134                userRsrvMemMallocAligned
                0x0040a094                userRsrvMemInit
                0x0040a104                userRsrvMemMalloc
 .text          0x0040a198        0x8 gtCore.o
                0x0040a198                __eabi
 .text          0x0040a1a0     0x23a4 gtPci.o
                0x0040b220                gtPci0MapMemoryBank2
                0x0040c400                gtPci0EnableBrokenAgentDetection
                0x0040a8b4                gtPci0GetMemory2Size
                0x0040c4e4                gtPci0GetBusMode
                0x0040b39c                gtPci0MapMemoryBank3
                0x0040bc84                gtPci0MapP2pMem0Space
                0x0040aed4                gtPci0MapInternalRegIOSpace
                0x0040a5e4                gtPci0MapMemory2space
                0x0040a56c                gtPci0MapMemory1space
                0x0040bf7c                gtPci0MapP2pIoSpace
                0x0040a71c                gtPci0GetIOspaceSize
                0x0040a67c                gtPci0MapMemory3space
                0x0040c19c                gtPci0SetRegionFeatures
                0x0040b15c                gtPci0MapMemoryBank1DAC
                0x0040a7a4                gtPci0GetMemory0Size
                0x0040beb8                gtPci0MapP2pMem1SpaceDAC
                0x0040be00                gtPci0MapP2pMem1Space
                0x0040b98c                gtPci0MapDevice3MemorySpace
                0x0040a77c                gtPci0GetMemory0Base
                0x0040c4b4                gtPci0P2PConfig
                0x0040c0d8                gtPci0MapCPUspaceDAC
                0x0040a93c                gtPci0GetMemory3Size
                0x0040a88c                gtPci0GetMemory2Base
                0x0040adc8                gtPci0MapInternalRegSpace
                0x0040a274                _frcPci0ReadConfigReg
                0x0040af44                gtPci0MapMemoryBank0
                0x0040bbc0                gtPci0MapBootDeviceMemorySpaceDAC
                0x0040a99c                gtPci0ScanSelfBars
                0x0040a1a0                _frcPci0WriteConfigReg
                0x0040b2d8                gtPci0MapMemoryBank2DAC
                0x0040c240                gtPci0SetRegionFeaturesDAC
                0x0040a82c                gtPci0GetMemory1Size
                0x0040a6f4                gtPci0GetIOspaceBase
                0x0040a804                gtPci0GetMemory1Base
                0x0040c320                gtPci0DisableAccessRegion
                0x0040bb08                gtPci0MapBootDeviceMemorySpace
                0x0040b8c8                gtPci0MapDevice2MemorySpaceDAC
                0x0040b454                gtPci0MapMemoryBank3DAC
                0x0040c020                gtPci0MapCPUspace
                0x0040b810                gtPci0MapDevice2MemorySpace
                0x0040ba44                gtPci0MapDevice3MemorySpaceDAC
                0x0040b0a4                gtPci0MapMemoryBank1
                0x0040a39c                gtPci0OverBridgeWriteConfigReg
                0x0040a404                gtPci0OverBridgeReadConfigReg
                0x0040a4f8                gtPci0MapMemory0space
                0x0040c484                gtPci0DisableBrokenAgentDetection
                0x0040b74c                gtPci0MapDevice1MemorySpaceDAC
                0x0040a2ec                frcPci0ReadConfigReg
                0x0040c370                gtPci0ArbiterDisable
                0x0040a484                gtPci0MapIOspace
                0x0040ae48                gtPci0MapInternalRegSpaceDAC
                0x0040b5d0                gtPci0MapDevice0MemorySpaceDAC
                0x0040a1f0                frcPci0WriteConfigReg
                0x0040afe0                gtPci0MapMemoryBank0DAC
                0x0040a914                gtPci0GetMemory3Base
                0x0040bd3c                gtPci0MapP2pMem0SpaceDAC
                0x0040b694                gtPci0MapDevice1MemorySpace
                0x0040c39c                gtPci0ParkingDisable
                0x0040c344                gtPci0ArbiterEnable
                0x0040b518                gtPci0MapDevice0MemorySpace
 .text          0x0040c544      0xc4c gtMemory.o
                0x0040cb30                gtMemoryMapDevice2Space
                0x0040c900                gtMemoryMapBank2
                0x0040cd70                gtMemorySetProtectRegion
                0x0040ca18                gtMemoryMapDevice0Space
                0x0040cd40                gtMemoryGetInternalSramBaseAddr
                0x0040cd58                gtMemorySetInternalSramBaseAddr
                0x0040cbbc                gtMemoryMapDevice3Space
                0x0040d038                gtMemorySetDeviceParam
                0x0040cde8                gtMemoryDisableWindow
                0x0040cdc4                gtMemoryDisableProtectRegion
                0x0040c5b4                gtMemoryGetDeviceBaseAddress
                0x0040c6e8                gtMemoryGetDeviceSize
                0x0040c874                gtMemoryMapBank1
                0x0040cd10                gtMemoryGetInternalRegistersSpace
                0x0040ce78                gtMemorySetPciRemapValue
                0x0040cf74                gtMemoryGetDeviceParam
                0x0040ccd4                gtMemoryMapInternalRegistersSpace
                0x0040caa4                gtMemoryMapDevice1Space
                0x0040c544                gtMemoryGetBankBaseAddress
                0x0040cc48                gtMemoryMapDeviceBootSpace
                0x0040c98c                gtMemoryMapBank3
                0x0040c7e8                gtMemoryMapBank0
                0x0040ce20                gtMemoryEnableWindow
                0x0040ce58                gtMemoryGetMemWindowStatus
                0x0040c7b0                gtMemoryGetDeviceWidth
                0x0040c634                gtMemoryGetBankSize
 .text          0x0040d190      0x70c gtDma.o
                0x0040d61c                gtDmaUpdateArbiter
                0x0040d840                gtDmaSetEngineAccessProtect
                0x0040d5a4                gtDmaIsChannelActive
                0x0040d668                gtDmaSetMemorySpace
                0x0040d5e4                gtDmaEngineDisable
                0x0040d4dc                gtDmaStart
                0x0040d798                gtDmaSetMemorySpaceAttr
                0x0040d1c0                gtDmaTransfer
                0x0040d190                gtDmaCommand
 .text          0x0040d89c       0xc8 gtSram.o
                0x0040d900                gtSramMallocAligned
                0x0040d89c                gtSramInit
                0x0040d8d0                gtSramMalloc
 .text          0x0040d964      0xc30 vxGppIntCtrl.o
                0x0040d964                frcGppIntCtrlInit
                0x0040ddf8                frcGppIntDisable
                0x0040df40                frcGppCPU1IntDisable
                0x0040de9c                frcGppCPU1IntEnable
                0x0040da48                frcGppIntConnect
                0x0040dd54                frcGppIntEnable
 .text          0x0040e594      0x3c0 gtCntmr.o
                0x0040e628                gtCntmrDisable
                0x0040e86c                gtCntmrIsTerminate
                0x0040e69c                gtCntmrRead
                0x0040e7a8                gtCntmrSetMode
                0x0040e6e0                gtCntmrEnable
                0x0040e8fc                gtCntmrSetTCTclocks
                0x0040e740                gtCntmrLoad
                0x0040e594                gtCntmrStart
 .text          0x0040e954      0x700 vxCntmrIntCtrl.o
                0x0040ed88                vxCntmrIntDisable
                0x0040ea30                vxCntmrIntConnect
                0x0040e954                vxCntmrIntCtrlInit
                0x0040ecc8                vxCntmrIntEnable
 .text          0x0040f054      0xaec vxDmaIntCtrl.o
                0x0040f150                frcDmaIntConnect
                0x0040f054                frcDmaIntCtrlInit
                0x0040f420                frcDmaIntEnable
                0x0040f55c                frcDmaIntDisable
 .text          0x0040fb40      0x160 vxWatchDog.o
                0x0040fb74                frcWatchdogLoad
                0x0040fc6c                frcWatchdogDisable
                0x0040fb40                frcWatchdogInit
                0x0040fc38                frcWatchdogEnable
                0x0040fbd4                frcWatchdogService
                0x0040fc08                frcWatchdogNMILoad
 .text          0x0040fca0     0x1bb8 ethernet.o
                0x00410260                ethPortMcAddr
                0x00410104                ethPortUcAddrSet
                0x00410e30                ethPortWriteSmiReg
                0x00411614                ethPortReceive
                0x00410a30                ethClearMibCounters
                0x00410d00                ethernetGetConfigReg
                0x004111fc                etherInitTxDescRing
                0x0040ff0c                ethPortStart
                0x00410d2c                ethPortReadSmiReg
                0x00410c90                ethernetSetConfigReg
                0x00410a68                ethReadMibCounter
                0x004117e0                ethPortSetTxCoal
                0x00410cc8                ethernetResetConfigReg
                0x0041155c                ethTxReturnDesc
                0x004116f4                ethRxReturnBuff
                0x00411378                ethPortSend
                0x0040fca0                ethPortInit
                0x0041178c                ethPortSetRxCoal
                0x00411060                etherInitRxDescRing
                0x0041182c                ethBCopy
                0x00410af4                ethernetPhyReset
                0x00410b90                ethPortReset
 .text          0x00411858      0x960 vxEthernetIntCtrl.o
                0x00411970                vxEthernetIntConnect
                0x00412120                vxEthernetIntEnable
                0x00412088                vxEthernetIntDisable
                0x00411858                vxEthernetIntCntlInit
 .text          0x004121b8     0x1780 mgiEnd.obj
                0x004121b8                mgiEndLoad
 .text          0x00413938      0x288 brg.o
                0x004139b4                brgStart
                0x00413b20                brgSetCdv
                0x00413938                brgInit
                0x00413a34                brgDbg
 .text          0x00413bc0      0x298 cunit.o
                0x00413bc0                cunitInit
                0x00413c08                cunitSetAccessControl
 .text          0x00413e58      0x64c vxCunitIntCtrl.o
                0x004142ac                vxCunitIntClear
                0x00414200                vxCunitIntDisable
                0x00413e58                vxCunitIntCtrlInit
                0x00413ed0                vxCunitIntConnect
                0x00414154                vxCunitIntEnable
 .text          0x004144a4      0x77c mpsc.o
                0x00414af4                mpscChanStopTxRx
                0x00414a70                mpscChanStopRx
                0x00414774                mpscDbg
                0x004149ec                mpscChanStopTx
                0x004144b0                mpscChanStart
                0x004144a4                mpscChanInit
                0x00414b50                mpscChanSetCdv
 .text          0x00414c20      0x768 vxMpscIntCtrl.o
                0x00414cd0                vxMpscIntConnect
                0x00414c20                vxMpscIntCntlInit
                0x00414fe4                vxMpscIntDisable
                0x0041506c                vxMpscIntClear
                0x00414f5c                vxMpscIntEnable
 .text          0x00415388      0x854 sdma.o
                0x00415adc                sdmaChanReceive
                0x00415a40                sdmaTxReturnDesc
                0x0041540c                sdmaChanStart
                0x00415730                sdmaChanStopTxRx
                0x00415b70                sdmaRxReturnBuff
                0x0041589c                sdmaChanSend
                0x00415388                sdmaChanInit
                0x004156b8                sdmaChanStopTx
                0x0041549c                sdmaDbg
                0x0041563c                sdmaChanStopRx
 .text          0x00415bdc      0x73c vxSdmaIntCtrl.o
                0x00415c80                vxSdmaIntConnect
                0x00416050                vxSdmaIntClear
                0x00415f00                vxSdmaIntEnable
                0x00415fa8                vxSdmaIntDisable
                0x00415bdc                vxSdmaIntCtrlInit
 .text          0x00416318      0x410 serialChan.o
                0x00416548                serialChanStart
                0x004165f0                serialChanSetBaudRate
                0x004165a4                serialChanStop
                0x00416318                serialChanInit
 .text          0x00416728      0x93c vxMpscUart.o
                0x00416bbc                vxMpscUartTxInt
                0x00416ee4                gtUartBaudRateChange
                0x00416728                vxMpscUartDevInit
                0x00416acc                vxMpscUartRxInt
                0x00416864                vxMpscUartDevReset
 .text          0x00417064       0x8c sysRamDrv.o
                0x00417064                sysRamDrvConfig
 .text          0x004170f0     0x1000 bFlashDrv.o
                0x00417b50                bootFlashErase
                0x004180ec                correctaddr
                0x004176f8                bootFlashProgram1byte
                0x004178fc                bootFlashGetSectorOff
                0x00417a40                frcBootFlashProgram
                0x00417260                bootEraseOrProgramOk
                0x00417458                bootFlashParamWrite
                0x004170f0                bootFlashAutoSelect
                0x004171c4                bootFlashGetProtect
                0x00417d28                frcBootFlashFile
                0x00417798                frcBootFlashVerify
                0x0041787c                frcbootFlashReadRst
                0x004175c0                bootFlashParamsProgram
                0x00417974                frcBootFlashSectorErase
                0x00417f64                frcBootFlashFileV
                0x0041730c                bootFlashParamRead
 .text          0x004180f0     0x1584 flashDrv.o
                0x00418120                frcFlashReadRst
                0x004189b0                frcFlashErase
                0x0041852c                operation_fail
                0x00418114                __READ_FLASH16
                0x004186ac                frcFlashProgram
                0x004180f0                __WRITE_FLASH32
                0x004193a0                frcFlashReadIdCommand
                0x00419324                frcFlashLock
                0x00418434                compare_error
                0x00418d94                frcFlashBlockWrite
                0x00418108                __WRITE_FLASH16
                0x00418d20                frcFlashRead
                0x004185d4                print_status
                0x004180fc                __READ_FLASH32
                0x00418c58                frcFlashGetInfo
                0x004181f4                frcFlashAutoSelect
                0x004190c4                frcFlashBlockErase
                0x004192a8                frcFlashUnlock
                0x00418490                operation_complete
                0x00419534                flashAutoDetect
 .text          0x00419674     0x18d0 i2cDrv.o
                0x0041aabc                frcMACWrite
                0x004197e4                frcEEPROMWrite16
                0x00419674                frcEEPROMWrite8
                0x0041995c                frcEEPROMRead8
                0x0041a8ec                frcRTCWrite
                0x00419e4c                frcI2CRead
                0x0041a744                frcRTCRead
                0x0041aa14                frcMACRead
                0x00419a34                frcEEPROMRead16
                0x0041a3f0                frcEEPROMDummyWrite16
                0x0041abc8                EEPROMDetect
                0x0041a6f0                isIntFlagSet
                0x0041aee4                setI2cReady
                0x00419b0c                frcI2cReset
                0x0041a190                frcEEPROMDummyWrite
                0x00419b24                frcI2CWrite
                0x0041af14                setI2cBusy
                0x0041ac7c                frcRTCDummyWrite
                0x0041a718                clearIntFlag
 .text          0x0041af44      0xe50 rtc.o
                0x0041ba58                ismin
                0x0041bb08                issec
                0x0041bbc0                isyear
                0x0041b8ec                isdate
                0x0041b9a8                ishour
                0x0041bce0                rtccall
                0x0041b18c                settime
                0x0041b7b8                ismon
                0x0041b690                isday
                0x0041af44                gettime
 .text          0x0041bd94     0x1758 frcBibShow.o
                0x0041bd94                frcBibShow
                0x0041ca50                frcBibDataShow
 .text          0x0041d4ec      0xd3c frcBibDrv.o
                0x0041d840                frcBibDetach
                0x0041d890                frcBibRead
                0x0041d8b4                frcBibWrite
                0x0041dcd0                frcBibDrvShow
                0x0041d4ec                frcBibAttach
 .text          0x0041e228      0x700 bibSupport.o
                0x0041e3cc                frcBibDataWrite
                0x0041e2fc                bibReadIntf
                0x0041e228                bibWriteIntf
                0x0041e7d4                ctohex
 .text          0x0041e928      0x4a8 pciBoot.o
                0x0041eda8                frcCheckSum
                0x0041e928                frcPCIDataWrite
 .text          0x0041edd0      0x18c regFileBurn.o
                0x0041edd0                frcBootRegFileBurn
 .text          0x0041ef5c      0x538 vpd.o
                0x0041f284                frcVPDRead
                0x0041f03c                frcVPDWrite
                0x0041ef5c                frcVPDInit
 .text          0x0041f494    0x295ec tests/testtool.o
                0x004367e8                frcTestBaudRate
                0x00446ff8                frcIdmaTestInit0
                0x004339d4                morefds
                0x00437228                frcTestAltivec
                0x00432674                use_int
                0x004327d0                get_results
                0x00432470                p64
                0x00437298                frcTestPciScan
                0x00427ed0                ramTest32bit
                0x00433c58                fst
                0x004340cc                prtMVReg
                0x004366f8                frcTestBootFlash
                0x00428b2c                test_checkerboard_comparison
                0x00437654                isPMC280TwoOnBoardEth
                0x0043764c                isPMC280BootFlashPresent
                0x00446498                parse8
                0x004377e4                detectUserFlash
                0x00434698                frcTestSerialInfo
                0x004380cc                mpsc_regs_dump
                0x00429aa4                memTest_Basic
                0x004288e8                test_or_comparison
                0x00435d80                frcTestIntLatHard
                0x00433c7c                frcSysTest
                0x00432838                save_minimum
                0x00428d38                test_walkbits_comparison
                0x004310bc                now
                0x00431df0                nano
                0x00435834                frcTestLatInitialization
                0x004339d8                touch
                0x00446844                ctohex1
                0x00446f74                frcAlignedMalloc
                0x0042949c                release_mem
                0x0042df20                rdwr
                0x004323bc                usecs_spent
                0x004366c8                frcTestVPD
                0x00431368                bandwidth_val
                0x00426fcc                MoveMemory
                0x00434bf4                frcTestSerial
                0x0041fad4                RoundInternalFPF
                0x0042a244                getpagesize_lmbench
                0x004318e0                mb
                0x00431620                bandwidth_n
                0x00433c18                print_bytes
                0x00427328                TicksToSecs
                0x00433448                get_enough
                0x00432688                use_pointer
                0x00436d48                frcTestMACAddr
                0x00436f88                getPLLCoreMultiplier
                0x00433e2c                frcTestTbReset
                0x004378e0                DCD_regs_dump
                0x00447e44                frcDmaTestStart1
                0x00433fd4                getOption
                0x004325d8                last
                0x00435b88                frcTestIntLatSoft
                0x00446cd0                mem_perf
                0x004369a8                atox
                0x00446034                frcEEPROMTestRead
                0x0043431c                testmem_perf
                0x0043694c                frcTestIsMonarch
                0x0043765c                getPMC280BoardInfo
                0x00428e60                test_bitspread_comparison
                0x00434270                frcTestIDMAScrubChk
                0x004286a8                test_verify_success
                0x00446c84                frcTestSwitch
                0x004292bc                extendedTestError
                0x004287ec                test_mul_comparison
                0x00446298                frcTestRTCWrite
                0x00428780                test_sub_comparison
                0x00435ed8                frcTestIntLatency
                0x00446908                TestIntConnect
                0x00439344                MV64360_regs_dump
                0x00424480                DoIDEA
                0x00448300                wdValueReg
                0x004328ac                save_median
                0x004273fc                ramTestPrintDot
                0x0042a490                bwMem
                0x0042a24c                frcLmbench
                0x00433b78                frcTestlatMemRead
                0x0043237c                tvsub
                0x00427448                ramTest8bit
                0x0043306c                t_overhead
                0x004270ec                ReportError
                0x004289d0                test_seqinc_comparison
                0x004261f8                DoLU
                0x00433f54                frcTestGettimeUsec
                0x004324ac                p64sz
                0x00434810                frcTestStressSerial
                0x0042737c                printDramErr
                0x00448060                watchdogTest
                0x00427254                StartStopwatch
                0x004312d4                get_n
                0x004457b0                frcTestDispMemMap
                0x00428714                test_xor_comparison
                0x0041f494                SetupCPUEmFloatArrays
                0x0042994c                memTest_Basic_Ever
                0x0043609c                frcTestDMA
                0x004377ac                isPMC280Monarch
                0x0042714c                ErrorExit
                0x00422bec                DoBitops
                0x00436380                frcTestDualCPU
                0x0043110c                Now
                0x00448348                frcTestUserFlash
                0x00446c64                frcTestDisable
                0x004312e0                lmbench_settime
                0x00429550                parse_opts
                0x00435750                frcTestMPP18ISR_hard
                0x00426fec                InitMemArray
                0x00447d44                frcDmaCompleteAppIntHandler1
                0x00426f6c                FreeMemory
                0x0042ff1c                loads_i
                0x004230c8                DoEmFloat
                0x0042e854                fcp
                0x00426ffc                AddMemArray
                0x00446c38                frcTestConnect
                0x004325f0                bytes
                0x004368ec                frcTestAllTests
                0x0043123c                Delta
                0x004364e4                frcTestBIB
                0x004291e4                test_moving_inv32
                0x00428858                test_div_comparison
                0x00431cdc                context
                0x004293f4                print_summary
                0x004294a0                get_mem
                0x0043418c                frcTestChkECC
                0x004378bc                frcDispBoardInfo
                0x00447f84                frcTestWatchDogAppStart
                0x004295bc                memtest_extended
                0x00435fa8                frcTestDispReg
                0x0043691c                frcTestSummary
                0x0042a12c                tbReset_lmbench
                0x00437610                isPMC280UsrFlashPresent
                0x00426e60                AllocateMemory
                0x00432218                ptime
                0x00447dc0                frcDmaTestStart0
                0x00424ca4                DoHuffman
                0x0042935c                print_test_name
                0x0042933c                memboundary_check
                0x0042224c                DoStringSort
                0x0042e1fc                fwr
                0x00435eb4                lat_h
                0x00428c40                test_blockseq_comparison
                0x00428954                test_and_comparison
                0x0042ec70                latMemRead
                0x004474e0                frcDmaTestTaskEntry0
                0x00427340                TicksToFracSecs
                0x0042719c                gettimeofday
                0x0042e0e0                cpy
                0x004293b8                memtest_usage
                0x004363b0                frcTestI2C_EEPROM
                0x00420670                abs_randwc
                0x004206a8                randnum
                0x00431180                delta
                0x0043553c                frcTestEthernet
                0x0044726c                frcIdmaTestInit1
                0x00434598                frcTestMemPerf
                0x00447cc8                frcDmaCompleteAppIntHandler0
                0x00427378                sysUserLEDSet
                0x0042072c                dblprint
                0x00436f00                frcTestDispFreq
                0x00420624                randwc
                0x004367f0                frcTestRTC
                0x004270e8                CreateFile
                0x00433e54                frcTestgettimeofday
                0x00434cf4                frcTestSubsysVendID
                0x00434ef4                frcTestConfigEthPorts
                0x004317c8                kb
                0x00421dac                DoNumSort
                0x00432800                save_results
                0x0042dd48                rd
                0x0042e418                frd
                0x00437c98                mpsc_cause_regs_dump
                0x00435348                frcTestEthModeSet
                0x004357d4                frcTestMPP18ISR_soft
                0x0043232c                tvdelta
                0x004298f0                get_word
                0x0042fe38                step
                0x0042703c                RemoveMemArray
                0x00437890                detectRAMsize
                0x00438e1c                SDMA_RXBD_regs_dump
                0x00423378                DoFourier
                0x00445d30                frcEEPROMTestWrite
                0x00431ff8                micromb
                0x00448004                frcTestWatchDogAppStop
                0x00437484                frcTestEthPHYTestMode
                0x00432e50                l_overhead
                0x00431ef8                micro
                0x00447ec8                watchDogApp
                0x0042de84                wr
                0x00429ca4                getParams
                0x00430ff0                timing
                0x00437208                testRdReg
                0x0043269c                insertinit
                0x00427170                tbReset
                0x00445708                frcTestDispAllPCI0Reg
                0x004207ac                nbench
                0x004465d4                parse16
                0x004323ec                timespent
                0x004319f8                latency
                0x00437a54                PCI_DCD_regs_dump
                0x0042a154                gettimeofday_lmbench
                0x00437ec8                brg_regs_dump
                0x00425614                DoNNET
                0x00428a34                test_solidbits_comparison
                0x004290e0                test_stuck_address
                0x00430ffc                start
                0x00433a50                frcTestbwMem
                0x004312c8                save_n
                0x00432154                milli
                0x00447f54                watchDogIsr
                0x0042ecfc                loads
                0x00444904                pcicfg0_regs_dump
                0x00431054                stop
                0x00429d40                frcMemTest
                0x00428fc8                test_bitflip_comparison
                0x00446bcc                testIsr
                0x004390b0                SDMA_TXBD_regs_dump
                0x004279c0                ramTest16bit
                0x0041f588                DoEmFloatIteration
                0x0043415c                frcTestWhoAmI
                0x00437bb0                PCI_REMAP_regs_dump
                0x00447914                frcDmaTestTaskEntry1
                0x0042a038                frcTestMemTest
                0x004326d4                insertsort
                0x00421d54                doubleTest
                0x004375d8                isPMC280DualCPU
                0x00431464                bandwidth
                0x004272b0                StopStopwatch
                0x00434d90                frcTestEthLinkDetails
                0x00436350                frcTestMV64360Semaphore
                0x00423920                DoAssign
                0x00446424                frcTestRTCRead
 .text          0x00448a80      0x2f4 usrDma.o
                0x00448bb0                myfill
                0x00448ca4                usrPci2PciDmaStart
                0x00448a80                usrDmaInit
                0x00448c2c                usrMem2MemDmaStart
                0x00448cfc                usrReadGPR
                0x00448c54                usrPci2MemDmaStart
                0x00448c7c                usrMem2PciDmaStart
                0x00448d38                usrWriteGPR
                0x00448ccc                usrDmaDone
 .text          0x00448d74       0x18 sysAUtil.o
                0x00448d84                sysTimeBaseLGet
                0x00448d74                sysTimeBaseLPut
 .text          0x00448d8c      0x22c /usr/local/clas/devel_new/VxWorks55/ppc/target/lib/ppc/PPC604/common/libarch.a(altivecArchLib.o)
                0x00448f70                altivecRegsToCtx
                0x00448dbc                altivecArchTaskCreateInit
                0x00448f34                altivecProbe
                0x00448de4                altivecTaskRegsGet
                0x00448d8c                altivecArchInit
                0x00448e8c                altivecTaskRegsSet
                0x00448f94                altivecCtxToRegs
 .text          0x00448fb8      0x1b4 /usr/local/clas/devel_new/VxWorks55/ppc/target/lib/ppc/PPC604/common/libarch.a(altivecLib.o)
                0x00448fb8                altivecInit
 .text          0x0044916c       0xe4 /usr/local/clas/devel_new/VxWorks55/ppc/target/lib/ppc/PPC604/common/libarch.a(altivecShow.o)
                0x0044916c                altivecShowInit
                0x004491a4                altivecTaskRegsShow
 .text          0x00449250      0x2c0 /usr/local/clas/devel_new/VxWorks55/ppc/target/lib/ppc/PPC604/common/libarch.a(bALib.o)
                0x004494e8                swab
                0x004494cc                bfillBytes
                0x0044944c                bcopyLongs
                0x00449404                bcopyBytes
                0x00449424                bcopyWords
                0x00449250                bcopy
                0x00449474                bfill
 .text          0x00449510      0x674 /usr/local/clas/devel_new/VxWorks55/ppc/target/lib/ppc/PPC604/common/libarch.a(cacheArchLib.o)
                0x004499a0                cacheArchDmaMalloc
                0x00449854                cacheArchDisableFromMmu
                0x00449628                cacheArchEnable
                0x00449510                cacheArchLibInit
                0x00449928                cacheErrnoSet
                0x00449ad0                cacheArchDmaFree
                0x0044974c                cacheArchDisable
 .text          0x00449b84      0xcb0 /usr/local/clas/devel_new/VxWorks55/ppc/target/lib/ppc/PPC604/common/libarch.a(excArchLib.o)
                0x0044a390                excVecBaseGet
                0x0044a17c                excVecSet
                0x00449b84                excVecInit
                0x0044a39c                excExcHandle
                0x0044a348                excVecBaseSet
                0x00449eb8                excRelocIntConnect
                0x0044a2b8                excVecGet
                0x00449d3c                vecOffRelocMatchRev
                0x00449da8                excRelocConnect
                0x0044a688                excIntHandle
                0x00449d84                excConnect
                0x00449cd0                vecOffRelocMatch
                0x00449e94                excIntConnect
 .text          0x0044a834      0x45c /usr/local/clas/devel_new/VxWorks55/ppc/target/lib/ppc/PPC604/common/libarch.a(excArchShow.o)
                0x0044a834                excShowInit
 .text          0x0044ac90      0x4c4 /usr/local/clas/devel_new/VxWorks55/ppc/target/lib/ppc/PPC604/common/libarch.a(intALib.o)
                0x0044b13c                intUnlock
                0x0044b128                intLock
                0x0044ae64                intExit
                0x0044ac90                intEnt
 .text          0x0044b154      0x210 /usr/local/clas/devel_new/VxWorks55/ppc/target/lib/ppc/PPC604/common/libarch.a(intArchLib.o)
                0x0044b200                intVecBaseSet
                0x0044b32c                intLockLevelSet
                0x0044b34c                intRegsUnlock
                0x0044b2ac                intEnable
                0x0044b190                intVecSet
                0x0044b2ec                intDisable
                0x0044b338                intRegsLock
                0x0044b154                intConnect
                0x0044b330                intLockLevelGet
                0x0044b234                intVecBaseGet
                0x0044b270                intLevelSet
                0x0044b1c4                intVecGet
 .text          0x0044b364      0x834 /usr/local/clas/devel_new/VxWorks55/ppc/target/lib/ppc/PPC604/common/libarch.a(trcLib.o)
                0x0044b364                trcStack
 .text          0x0044bb98      0x228 /usr/local/clas/devel_new/VxWorks55/ppc/target/lib/ppc/PPC604/common/libarch.a(vxALib.o)
                0x0044bc70                vxHid0Set
                0x0044bc04                vxDsisrSet
                0x0044bcec                vxTimeBaseGet
                0x0044bcb8                vxFpscrGet
                0x0044bbd0                vxMsrSet
                0x0044bd98                vmpxx
                0x0044bbc8                vxMsrGet
                0x0044bbec                vxSrr0Get
                0x0044bbfc                vxDarSet
                0x0044bc34                vxPowerDown
                0x0044bc90                vxFpscrSet
                0x0044bd0c                vxDecSet
                0x0044bcd8                vxTimeBaseSet
                0x0044bc80                vxHid0Get
                0x0044bbe4                vxDsisrGet
                0x0044bc0c                vxSrr0Set
                0x0044bb98                vxTas
                0x0044bda0                vxGhsFlagSet
                0x0044bc2c                vxEieio
                0x0044bd14                vxDecGet
                0x0044bbdc                vxDarGet
                0x0044bc1c                vxFirstBit
                0x0044bd3c                vxMemProbeSup
                0x0044bc24                vxPvrGet
                0x0044bdb4                vxImmrDevGet
                0x0044bd1c                vxDecReload
                0x0044bda8                vxImmrIsbGet
                0x0044bc14                vxSrr1Set
                0x0044bbf4                vxSrr1Get
                0x0044bc88                vxHid1Get
 .text          0x0044bdc0      0x234 /usr/local/clas/devel_new/VxWorks55/ppc/target/lib/ppc/PPC604/common/libarch.a(vxLib.o)
                0x0044bdd4                vxMemArchProbe
                0x0044bfe8                vxPowerModeGet
                0x0044bf9c                vxPowerModeSet
                0x0044bf60                vxMemProbe
 *fill*         0x0044bff4        0x4
 .text          0x0044bff8      0xd2c /usr/local/clas/devel_new/VxWorks55/ppc/target/lib/ppc/PPC604/common/libarch.a(pow.o)
                0x0044c9c4                log
                0x0044bff8                pow
                0x0044cb68                log10
                0x0044c610                exp
 *fill*         0x0044cd24        0x4
 .text          0x0044cd28      0x208 /usr/local/clas/devel_new/VxWorks55/ppc/target/lib/ppc/PPC604/common/libarch.a(sqrt.o)
                0x0044cd28                sqrt
 .text          0x0044cf30      0x1c4 /usr/local/clas/devel_new/VxWorks55/ppc/target/lib/ppc/PPC604/common/libarch.a(trig.o)
                0x0044d0e0                cos
                0x0044cf30                sin
 .text          0x0044d0f4      0x280 /usr/local/clas/devel_new/VxWorks55/ppc/target/lib/ppc/PPC604/common/libarch.a(altivecALib.o)
                0x0044d238                altivecRestore
                0x0044d0f4                altivecSave
 .text          0x0044d374      0x1f0 /usr/local/clas/devel_new/VxWorks55/ppc/target/lib/ppc/PPC604/common/libarch.a(cacheALib.o)
                0x0044d500                cacheArchTextUpdate
                0x0044d374                cachePpcEnable
                0x0044d554                cacheArchPipeFlush
                0x0044d4a4                cacheArchInvalidate
                0x0044d4dc                cacheArchFlush
                0x0044d3b8                cachePpcDisable
 .text          0x0044d564      0x21c /usr/local/clas/devel_new/VxWorks55/ppc/target/lib/ppc/PPC604/common/libarch.a(excALib.o)
                0x0044d694                excExit
                0x0044d564                excEnt
                0x0044d75c                excEPSet
 .text          0x0044d780     0x10a8 /usr/local/clas/devel_new/VxWorks55/ppc/target/lib/ppc/PPC604/common/libdrv.a(endLib.o)
                0x0044e388                endEtherPacketDataGet
                0x0044d7f4                tkRcvRtnCall
                0x0044d908                endFlagsClr
                0x0044e19c                endEtherAddressForm
                0x0044dd94                endObjInit
                0x0044db10                endMibIfInit
                0x0044da00                endMultiLstFirst
                0x0044d948                endFlagsSet
                0x0044d9b4                endMultiLstCnt
                0x0044e52c                endEtherPacketAddrGet
                0x0044da90                endDevName
                0x0044da4c                endMultiLstNext
                0x0044d888                endTxSemTake
                0x0044d8cc                endTxSemGive
                0x0044df28                end8023AddressForm
                0x0044dee4                endObjFlagSet
                0x0044d780                endRcvRtnCall
                0x0044d984                endFlagsGet
                0x0044dc1c                mib2Init
                0x0044dcc0                mib2ErrorAdd
                0x0044e724                endPollStatsInit
                0x0044dac0                endObjectUnload
 .text          0x0044e828      0x5b0 /usr/local/clas/devel_new/VxWorks55/ppc/target/lib/ppc/PPC604/common/libdrv.a(if_loop.o)
                0x0044e828                loattach
                0x0044e924                looutput
 .text          0x0044edd8     0x1f84 /usr/local/clas/devel_new/VxWorks55/ppc/target/lib/ppc/PPC604/common/libnet.a(if.o)
                0x0044ef34                ifreset
                0x0044f108                if_attach
                0x00450124                if_slowtimoRestart
                0x004500c8                if_qflush
                0x0044fdb0                link_rtrequest
                0x0044fe98                if_down
                0x0044fa68                ifaof_ifpforaddr
                0x0044eedc                ifreset2
                0x0044f01c                ifresetImmediate
                0x004507bc                ifconf
                0x0044ffd0                if_up
                0x0044fba4                ifa_ifwithroute
                0x0044edd8                ifinit
                0x0044f7c4                ifa_ifwithdstaddr
                0x0044f874                ifa_ifwithnet
                0x0044fcb8                ifafree
                0x00450a14                ifpromisc
                0x0044f6f8                ifa_ifwithaddr
                0x0044f698                ifIndexToIfp
                0x0044fa18                ifa_ifwithaf
                0x00450300                ifioctl
                0x0044f430                if_dettach
                0x00450160                if_slowtimo
 .text          0x00450d5c     0x29bc /usr/local/clas/devel_new/VxWorks55/ppc/target/lib/ppc/PPC604/common/libnet.a(if_ether.o)
                0x00451788                arpresolve
                0x00451c7c                arpintr
                0x0045332c                ether_sprintf
                0x004531d8                _arpCmd
                0x00453684                _db_show_arptab
                0x0045281c                arptfree
                0x004536f0                db_show_arptab
                0x004532cc                arpEntryDelete
                0x004514a8                arpwhohas
                0x00450f78                arp_rtrequest
                0x00450f3c                ipEtherResolvRtn
                0x00452a2c                arpioctl
                0x00453394                db_print_sa
                0x00450f04                ipToEtherMCastMap
 .text          0x00453718     0x1a54 /usr/local/clas/devel_new/VxWorks55/ppc/target/lib/ppc/PPC604/common/libnet.a(if_subr.o)
                0x00454a60                copyFromMbufs
                0x00454dac                set_if_addr
                0x00454e50                ether_attach
                0x00453718                ether_output
                0x00454274                ether_addmulti
                0x004550b8                netTypeDelete
                0x00454a38                bcopy_to_mbufs
                0x0045413c                ether_ifattach
                0x00454d54                do_protocol_with_type
                0x00454c38                build_cluster
                0x00454a34                check_trailer
                0x00454f9c                netTypeAdd
                0x004546bc                ether_delmulti
                0x00453f94                ether_input
                0x00455144                netTypeInit
 .text          0x0045516c     0x1f04 /usr/local/clas/devel_new/VxWorks55/ppc/target/lib/ppc/PPC604/common/libnet.a(in.o)
                0x00456ea0                mcastHashTblInsert
                0x004562ac                in_ifscrub
                0x00456c40                in_delmulti
                0x00455448                in_control
                0x0045685c                in_broadcast
                0x0045516c                inet_netmatch
                0x00455274                in_localaddr
                0x004563cc                in_ifinit
                0x004551dc                in_netof
                0x004568f8                in_addmulti
                0x00456f78                mcastHashTblLookup
                0x004552fc                in_canforward
                0x00455364                in_socktrim
                0x00456e30                in_iaonnetof
                0x00456740                in_ifaddr_remove
                0x00456e64                mcastHashInit
                0x0045539c                in_lnaof
                0x00456f24                mcastHashTblDelete
 .text          0x00457070     0x2304 /usr/local/clas/devel_new/VxWorks55/ppc/target/lib/ppc/PPC604/common/libnet.a(ip_input.o)
                0x00458704                ip_drain
                0x00458780                ip_dooptions
                0x00458d2c                ip_stripoptions
                0x004572fc                ipintr
                0x00457070                ip_init
                0x004585ac                ip_slowtimo
                0x00458dc0                ip_forward
                0x00458c54                ip_rtaddr
                0x00458520                iptime
                0x004583dc                ip_freef
 .text          0x00459374     0x2478 /usr/local/clas/devel_new/VxWorks55/ppc/target/lib/ppc/PPC604/common/libnet.a(ip_output.o)
                0x00459374                ip_output
                0x0045a92c                ip_ctloutput
                0x0045b5f4                ip_mloopback
                0x0045a824                ip_optcopy
                0x0045b45c                ip_getmoptions
                0x0045ae54                ip_pcbopts
                0x0045b58c                ip_freemoptions
 .text          0x0045b7ec     0x214c /usr/local/clas/devel_new/VxWorks55/ppc/target/lib/ppc/PPC604/common/libnet.a(radix.o)
                0x0045ca0c                rn_delete
                0x0045b7ec                rn_search
                0x0045babc                rn_match
                0x0045be08                rn_insert
                0x0045bdc0                rn_newpair
                0x0045d430                rn_walktree
                0x0045bf7c                rn_addmask
                0x0045d280                rn_walksubtree
                0x0045b868                rn_refines
                0x0045d66c                rn_destroyhead
                0x0045b824                rn_search_m
                0x0045d6a0                rn_init
                0x0045b940                rn_lookup
                0x0045c538                rn_addroute
                0x0045d520                rn_inithead
 .text          0x0045d938     0x278c /usr/local/clas/devel_new/VxWorks55/ppc/target/lib/ppc/PPC604/common/libnet.a(route.o)
                0x0045fc0c                rt_maskedcopy
                0x0045e38c                rtfree
                0x0045f93c                rt_fixdelete
                0x0045d9ac                route_init
                0x0045e848                rtredirect
                0x0045ddc0                routeDrain
                0x0045ef40                rtrequest
                0x0045dea8                rtalloc1
                0x0045f998                rt_setgate
                0x0045fcac                rtinit
                0x0045f6b8                routeSwap
                0x0045d938                rtable_init
                0x0045ec30                rtioctl
                0x0045de48                rtalloc
 .text          0x004600c4     0x22c8 /usr/local/clas/devel_new/VxWorks55/ppc/target/lib/ppc/PPC604/common/libnet.a(udp_usrreq.o)
                0x00461aa4                udp_output
                0x00461ea0                udp_usrreq
                0x004601cc                udp_input
                0x004600c4                udp_init
                0x00461920                udp_ctlinput
 .text          0x0046238c      0x540 /usr/local/clas/devel_new/VxWorks55/ppc/target/lib/ppc/PPC604/common/libnet.a(uipc_dom.o)
                0x00462690                pfctlinput
                0x0046238c                addDomain
                0x004625cc                net_sysctl
                0x004624a0                pffindtype
                0x004623b4                domaininit
                0x00462510                pffindproto
 .text          0x004628cc      0xcb8 /usr/local/clas/devel_new/VxWorks55/ppc/target/lib/ppc/PPC604/common/libnet.a(uipc_mbuf.o)
                0x00462a90                mbinit
                0x00463074                m_pullup
                0x00462d14                mHdrClGet
                0x00462f00                m_adj
                0x00462edc                m_cat
                0x00462c60                mBufClGet
                0x00462ddc                m_getclr
                0x00462e20                m_prepend
                0x004632a4                m_devget
 .text          0x00463584     0x17d8 /usr/local/clas/devel_new/VxWorks55/ppc/target/lib/ppc/PPC604/common/libnet.a(uipc_sock2.o)
                0x00463a58                soqremque
                0x00464a7c                sbdrop
                0x00463b18                socantrcvmore
                0x00463688                soisdisconnecting
                0x00463bbc                sbseldequeue
                0x00463ee8                soreserve
                0x00464008                sbrelease
                0x00464cdc                sbdroprecord
                0x00463d00                sb_lock
                0x00463598                soisconnected
                0x00463f9c                sbreserve
                0x00463d58                sbwakeup
                0x00464050                sbappend
                0x004640c0                sbappendrecord
                0x004644e0                sbappendcontrol
                0x00463b78                sbselqueue
                0x00463708                soisdisconnected
                0x004639d4                soqinsque
                0x00463e8c                sowakeup
                0x004648bc                sbflush
                0x00463790                sonewconn1
                0x00464268                sbappendaddr
                0x00463ae0                socantsendmore
                0x00463584                soisconnecting
                0x004646e8                sbcompress
                0x00463c18                sbwait
                0x00464188                sbinsertoob
 .text          0x00464d5c      0x4dc /usr/local/clas/devel_new/VxWorks55/ppc/target/lib/ppc/PPC604/common/libnet.a(unixLib.o)
                0x00464fc4                _insque
                0x00464e5c                splimp
                0x004650d4                _netFree
                0x00464fa4                wakeup
                0x00464ff8                panic
                0x0046507c                _netMalloc
                0x00464df4                splnet2
                0x00464d8c                splnet
                0x00464ec4                splx
                0x00464efc                ksleep
                0x00464fdc                _remque
                0x00465100                hashinit
                0x00464d5c                splSemInit
 .text          0x00465238     0x21ec /usr/local/clas/devel_new/VxWorks55/ppc/target/lib/ppc/PPC604/common/libnet.a(ipProto.o)
                0x004664f8                ipDetach
                0x004658d8                ipTkError
                0x00465a98                ipAttach
                0x004673ec                ipMuxCookieGet
 .text          0x00467424     0x1cec /usr/local/clas/devel_new/VxWorks55/ppc/target/lib/ppc/PPC604/common/libnet.a(bsdSockLib.o)
                0x00468c7c                bsdGetsockopt
                0x00468b90                bsdSetsockopt
                0x004683d4                bsdRecvfrom
                0x00468f9c                bsdGetpeername
                0x00467424                bsdSockLibInit
                0x00467e70                bsdSend
                0x004690c0                bsdShutdown
                0x00468e90                bsdGetsockname
                0x00467c98                bsdSendto
                0x00468810                bsdRecvmsg
                0x0046762c                bsdBind
                0x004685c8                bsdRecv
                0x004676d0                bsdListen
                0x004680d4                bsdSendmsg
                0x0046795c                bsdConnect
                0x00467730                bsdAccept
                0x004674d8                bsdSocket
                0x00469108                bsdZbufSockRtn
                0x00467aec                bsdConnectWithTimeout
 .text          0x00469110      0x358 /usr/local/clas/devel_new/VxWorks55/ppc/target/lib/ppc/PPC604/common/libnet.a(etherMultiLib.o)
                0x00469110                etherMultiAdd
                0x004692bc                etherMultiDel
                0x00469364                etherMultiGet
 .text          0x00469468     0x1e08 /usr/local/clas/devel_new/VxWorks55/ppc/target/lib/ppc/PPC604/common/libnet.a(ftpLib.o)
                0x0046a4d8                ftpLogin
                0x00469f8c                ftpReplyGet
                0x00469468                ftpCommand
                0x0046b030                ftpTransientConfigGet
                0x0046b00c                ftpLibDebugOptionsSet
                0x004694ac                ftpCommandEnhanced
                0x00469680                ftpXfer
                0x0046a604                ftpDataConnInitPassiveMode
                0x00469fcc                ftpReplyGetEnhanced
                0x0046b090                ftpTransientFatalInstall
                0x0046ae34                ftpDataConnGet
                0x0046a960                ftpDataConnInit
                0x0046a280                ftpHookup
                0x0046ae98                ftpLs
                0x0046b018                ftpTransientConfigSet
 .text          0x0046b270      0x810 /usr/local/clas/devel_new/VxWorks55/ppc/target/lib/ppc/PPC604/common/libnet.a(hostLib.o)
                0x0046b270                hostTblInit
                0x0046b738                hostGetByName
                0x0046b9c0                sethostname
                0x0046b650                hostTblSearchByName
                0x0046b48c                hostDelete
                0x0046b2c4                hostAdd
                0x0046ba14                gethostname
                0x0046b7d0                hostTblSearchByAddr
                0x0046b8a4                hostGetByAddr
 .text          0x0046ba80      0x8c8 /usr/local/clas/devel_new/VxWorks55/ppc/target/lib/ppc/PPC604/common/libnet.a(icmpLib.o)
                0x0046ba80                icmpLibInit
                0x0046c20c                ipHeaderCreate
                0x0046c2c4                ipHeaderVerify
                0x0046bb70                icmpMaskGet
 .text          0x0046c348     0x11d4 /usr/local/clas/devel_new/VxWorks55/ppc/target/lib/ppc/PPC604/common/libnet.a(ifLib.o)
                0x0046d300                ifRouteEnable
                0x0046d1d4                ifIndexToIfName
                0x0046c6d8                ifMaskGet
                0x0046c514                ifAddrDelete
                0x0046c540                ifAddrGet
                0x0046c7dc                ifFlagSet
                0x0046cc28                ifRouteDelete
                0x0046c808                ifFlagGet
                0x0046d018                ifunit
                0x0046d170                ifNameToIfIndex
                0x0046c5f0                ifDstAddrGet
                0x0046c860                ifMetricGet
                0x0046c704                ifFlagChange
                0x0046c56c                ifBroadcastSet
                0x0046c5c4                ifDstAddrSet
                0x0046d4dc                ifRouteCleanup
                0x0046c348                ifAddrAdd
                0x0046c834                ifMetricSet
                0x0046cf44                ifAllRoutesDelete
                0x0046d40c                ifRouteDisable
                0x0046c6ac                ifMaskSet
                0x0046c598                ifBroadcastGet
                0x0046c4e8                ifAddrSet
 .text          0x0046d51c       0xf4 /usr/local/clas/devel_new/VxWorks55/ppc/target/lib/ppc/PPC604/common/libnet.a(igmpLib.o)
                0x0046d51c                igmpLibInit
 .text          0x0046d610      0x694 /usr/local/clas/devel_new/VxWorks55/ppc/target/lib/ppc/PPC604/common/libnet.a(inetLib.o)
                0x0046d990                inet_netof_string
                0x0046d884                inet_makeaddr_b
                0x0046db7c                inet_ntoa_b
                0x0046d838                inet_lnaof
                0x0046d8e4                inet_makeaddr
                0x0046d944                inet_netof
                0x0046d610                inet_addr
                0x0046d9e8                inet_network
                0x0046dc18                inet_aton
                0x0046dbc4                inet_ntoa
 .text          0x0046dca4      0x2d8 /usr/local/clas/devel_new/VxWorks55/ppc/target/lib/ppc/PPC604/common/libnet.a(ipLib.o)
                0x0046dcc8                ipLibMultiInit
                0x0046ddf0                rawIpLibInit
                0x0046dca4                ipLibInit
                0x0046deb4                rawLibInit
 .text          0x0046df7c     0x2b88 /usr/local/clas/devel_new/VxWorks55/ppc/target/lib/ppc/PPC604/common/libnet.a(muxLib.o)
                0x00470760                muxPollDevDel
                0x0046f510                muxLinkHeaderCreate
                0x0046fe90                muxDevStopAll
                0x00470128                muxPollTask
                0x0046fdc0                muxAddrResFuncDel
                0x004702c8                muxTaskPrioritySet
                0x0046f0c0                muxMCastAddrAdd
                0x0046f938                endFindByName
                0x0046e414                muxShow
                0x0046ed58                muxPollReceive
                0x0046f1c8                muxUnbind
                0x004702a4                muxTaskDelayGet
                0x0046f170                muxMCastAddrGet
                0x0046e6c8                muxBind
                0x00470514                muxPollEnd
                0x0046fc18                muxAddrResFuncAdd
                0x0046e990                muxSend
                0x0047007c                muxDevStartAll
                0x00470284                muxTaskDelaySet
                0x0046fd38                muxAddrResFuncGet
                0x0046fa34                muxTxRestart
                0x0046edb0                muxIoctl
                0x0046e2e0                muxDevStart
                0x0046f31c                muxDevUnload
                0x0046e088                muxDevLoad
                0x0046f840                muxPacketDataGet
                0x0046ec74                muxPollSend
                0x0046f6b0                muxAddressForm
                0x0046eaa0                muxReceive
                0x004709c4                muxIterateByName
                0x0046fa08                muxDevExists
                0x0047037c                muxPollStart
                0x0046fb1c                muxError
                0x00470358                muxTaskPriorityGet
                0x0046f118                muxMCastAddrDel
                0x0046e3bc                muxDevStop
                0x0046df7c                muxLibInit
                0x0046f8ac                muxPacketAddrGet
                0x00470628                muxPollDevAdd
                0x004708d4                muxPollDevStat
 .text          0x00470b04     0x18ac /usr/local/clas/devel_new/VxWorks55/ppc/target/lib/ppc/PPC604/common/libnet.a(muxTkLib.o)
                0x00471644                muxTkSend
                0x00471704                muxTkPollReceive
                0x004721f4                muxTkBindUpdate
                0x004722c8                muxTkUnloadUpdate
                0x00471160                muxTkReceive
                0x00470ca4                muxTkBind
                0x00472044                muxTkDevLoadUpdate
                0x004716ac                muxTkPollSend
                0x004721d4                muxTkUnbindUpdate
                0x00471f68                muxTkBibInit
                0x00470bd8                muxTkCookieGet
                0x00471dc4                muxTkBibShow
                0x00471870                muxTkPollReceive2
                0x00470b04                muxTkDrvCheck
 .text          0x004723b0      0x300 /usr/local/clas/devel_new/VxWorks55/ppc/target/lib/ppc/PPC604/common/libnet.a(netLib.o)
                0x00472554                netTask
                0x004725e0                netJobAdd
                0x004723b0                netLibGeneralInit
                0x00472430                netLibInit
                0x00472690                netErrnoSet
 .text          0x004726b0      0xaa0 /usr/local/clas/devel_new/VxWorks55/ppc/target/lib/ppc/PPC604/common/libnet.a(pingLib.o)
                0x00472700                ping
                0x004726b0                pingLibInit
 .text          0x00473150      0x7f0 /usr/local/clas/devel_new/VxWorks55/ppc/target/lib/ppc/PPC604/common/libnet.a(remLib.o)
                0x0047315c                rcmd
                0x00473150                remLibInit
                0x004737ac                iam
                0x0047368c                remCurIdGet
                0x004737ec                whoami
                0x004736e0                remCurIdSet
                0x004735f4                rresvport
                0x00473844                bindresvport
 .text          0x00473940      0x928 /usr/local/clas/devel_new/VxWorks55/ppc/target/lib/ppc/PPC604/common/libnet.a(routeLib.o)
                0x00473b14                routeCmd
                0x00473ed8                mRouteEntryAdd
                0x00473940                routeAdd
                0x00474160                mRouteDelete
                0x00473ba8                routeEntryFill
                0x00473ca4                mRouteAdd
                0x00473a44                routeDelete
                0x00473efc                mRouteEntryDelete
                0x00473d3c                mPrivRouteEntryAdd
                0x004740a4                mPrivRouteEntryDelete
                0x00473968                routeNetAdd
 .text          0x00474268      0x2f4 /usr/local/clas/devel_new/VxWorks55/ppc/target/lib/ppc/PPC604/common/libnet.a(routeCommonLib.o)
                0x0047445c                routeMetricSet
                0x00474324                rtrequestDelEqui
                0x0047435c                routeAgeSet
                0x00474268                rtrequestAddEqui
 .text          0x0047455c      0xdcc /usr/local/clas/devel_new/VxWorks55/ppc/target/lib/ppc/PPC604/common/libnet.a(sockLib.o)
                0x00474de0                recv
                0x00474948                connect
                0x004745e0                sockLibAdd
                0x00474cf0                recvfrom
                0x0047469c                socket
                0x0047455c                sockLibInit
                0x00474ba0                send
                0x0047487c                accept
                0x0047474c                bind
                0x00474f38                setsockopt
                0x00474c4c                sendmsg
                0x00474ab0                sendto
                0x004747ec                listen
                0x00475244                shutdown
                0x0047518c                getpeername
                0x00474ffc                getsockopt
                0x004749f4                connectWithTimeout
                0x004752dc                sockFdtosockFunc
                0x00474e94                recvmsg
                0x004750d4                getsockname
 .text          0x00475328      0x23c /usr/local/clas/devel_new/VxWorks55/ppc/target/lib/ppc/PPC604/common/libnet.a(tcpLib.o)
                0x00475328                tcpLibInit
 .text          0x00475564     0x19d4 /usr/local/clas/devel_new/VxWorks55/ppc/target/lib/ppc/PPC604/common/libnet.a(tftpLib.o)
                0x00476a24                tftpErrorCreate
                0x00475ad4                tftpModeSet
                0x004758b8                tftpCopy
                0x00476378                tftpQuit
                0x00475564                tftpXfer
                0x004763d0                tftpSend
                0x00475a00                tftpInit
                0x0047627c                tftpInfoShow
                0x00475fa4                tftpGet
                0x00475808                tftpTask
                0x00475bcc                tftpPeerSet
                0x00475cfc                tftpPut
 .text          0x00476f38      0x13c /usr/local/clas/devel_new/VxWorks55/ppc/target/lib/ppc/PPC604/common/libnet.a(udpLib.o)
                0x00476f38                udpLibInit
 .text          0x00477074     0x19dc /usr/local/clas/devel_new/VxWorks55/ppc/target/lib/ppc/PPC604/common/libnet.a(netBufLib.o)
                0x00478094                netClFree
                0x004780d8                netMblkClFree
                0x004781a4                netClBlkGet
                0x00478584                netMblkChainDup
                0x00478364                netClBlkJoin
                0x00477ed8                netPoolKheapInit
                0x004784cc                netMblkDup
                0x00478048                netClBlkFree
                0x00478960                netTupleGet2
                0x00477e74                netBufLibInit
                0x00478004                netMblkFree
                0x0047843c                netMblkToBufCopy
                0x0047823c                netMblkClGet
                0x00478118                netMblkClChainFree
                0x00477f34                netPoolDelete
                0x00478288                netTupleGet
                0x00477e7c                netPoolInit
                0x004787c8                netMblkOffsetToBufCopy
                0x00478158                netMblkGet
                0x004781f0                netClusterGet
                0x004783f0                netClPoolIdGet
                0x004783b0                netMblkClJoin
 .text          0x00478a50      0x1b4 /usr/local/clas/devel_new/VxWorks55/ppc/target/lib/ppc/PPC604/common/libnet.a(ifIndexLib.o)
                0x00478b84                ifIndexTest
                0x00478b00                ifIndexAlloc
                0x00478a9c                ifIndexLibShutdown
                0x00478a50                ifIndexLibInit
 .text          0x00478c04     0x1238 /usr/local/clas/devel_new/VxWorks55/ppc/target/lib/ppc/PPC604/common/libnet.a(igmp.o)
                0x004798cc                igmp_fasttimo
                0x00479a8c                igmp_slowtimo
                0x00478e0c                igmp_input
                0x00478c04                igmp_init
 .text          0x00479e3c      0x300 /usr/local/clas/devel_new/VxWorks55/ppc/target/lib/ppc/PPC604/common/libnet.a(in_cksum.o)
                0x00479e3c                in_cksum
 .text          0x0047a13c     0x1a24 /usr/local/clas/devel_new/VxWorks55/ppc/target/lib/ppc/PPC604/common/libnet.a(in_pcb.o)
                0x0047a13c                in_pcballoc
                0x0047ba5c                in_pcbinshash
                0x0047b308                in_pcbnotify
                0x0047b6d8                in_rtchange
                0x0047b718                in_pcblookup
                0x0047a29c                in_pcbbind
                0x0047b288                in_setpeeraddr
                0x0047b560                in_losing
                0x0047a868                in_pcbladdr
                0x0047b208                in_setsockaddr
                0x0047b154                in_pcbdetach
                0x0047b87c                in_pcblookuphash
                0x0047ae1c                in_pcbconnect
                0x0047b05c                in_pcbdisconnect
                0x0047bab8                in_pcbrehash
 .text          0x0047bb60     0x1644 /usr/local/clas/devel_new/VxWorks55/ppc/target/lib/ppc/PPC604/common/libnet.a(ip_icmp.o)
                0x0047d08c                icmp_ctloutput
                0x0047c1b0                icmp_input
                0x0047bb60                icmp_init
 .text          0x0047d1a4     0x12fc /usr/local/clas/devel_new/VxWorks55/ppc/target/lib/ppc/PPC604/common/libnet.a(raw_ip.o)
                0x0047de1c                rip_usrreq
                0x0047d848                rip_output
                0x0047da84                rip_ctloutput
                0x0047d1a4                rip_init
                0x0047d2a8                rip_input
 .text          0x0047e4a0      0x564 /usr/local/clas/devel_new/VxWorks55/ppc/target/lib/ppc/PPC604/common/libnet.a(sys_socket.o)
                0x0047e708                soo_select
                0x0047e8d8                soo_unselect
                0x0047e4a0                soo_ioctl
 .text          0x0047ea04     0x3698 /usr/local/clas/devel_new/VxWorks55/ppc/target/lib/ppc/PPC604/common/libnet.a(tcp_input.o)
                0x00481b7c                tcp_pulloutofband
                0x00481df8                tcp_mss
                0x00481984                tcp_dooptions
                0x0047ea04                tcp_reass
                0x00481cfc                tcp_xmit_timer
                0x0047ee8c                tcp_input
 .text          0x0048209c      0xdc0 /usr/local/clas/devel_new/VxWorks55/ppc/target/lib/ppc/PPC604/common/libnet.a(tcp_output.o)
                0x00482da8                tcp_setpersist
                0x0048209c                tcp_output
 .text          0x00482e5c     0x11f4 /usr/local/clas/devel_new/VxWorks55/ppc/target/lib/ppc/PPC604/common/libnet.a(tcp_subr.o)
                0x00482e5c                tcpRandHookAdd
                0x004836b4                tcp_close
                0x00483158                tcp_respond
                0x00483e34                tcp_rtlookup
                0x00483990                tcp_notify
                0x00483c68                tcp_ctlinput
                0x0048398c                tcp_drain
                0x00483eb0                tcp_updatemtu
                0x00483e1c                tcp_quench
                0x00482e90                tcp_init
                0x00483088                tcp_template
                0x00482e7c                tcpRandHookDelete
                0x00483454                tcp_newtcpcb
                0x00483534                tcp_drop
 .text          0x00484050      0x7a8 /usr/local/clas/devel_new/VxWorks55/ppc/target/lib/ppc/PPC604/common/libnet.a(tcp_timer.o)
                0x004843d0                tcp_canceltimers
                0x00484050                tcp_fasttimo
                0x00484190                tcp_slowtimo
                0x004843f0                tcp_timers
 .text          0x004847f8     0x1018 /usr/local/clas/devel_new/VxWorks55/ppc/target/lib/ppc/PPC604/common/libnet.a(tcp_usrreq.o)
                0x004853fc                tcp_attach
                0x00485618                tcp_disconnect
                0x00485764                tcp_usrclosed
                0x004847f8                tcp_usrreq
                0x004850c0                tcp_ctloutput
 .text          0x00485810     0x2d38 /usr/local/clas/devel_new/VxWorks55/ppc/target/lib/ppc/PPC604/common/libnet.a(uipc_sock.o)
                0x00487248                soreceive
                0x004864e4                soaccept
                0x00487d18                soshutdown
                0x004863f4                soabort
                0x00485db0                sofree
                0x004868cc                soconnect2
                0x00487f30                sosetopt
                0x00488434                uiomove
                0x004866c4                soconnect
                0x00487e40                sorflush
                0x00485c30                solisten
                0x00486958                sodisconnect
                0x00485b14                sobind
                0x00486000                soclose
                0x004881f8                sogetopt
                0x00486a94                sosend
                0x00485810                socreate
                0x00488430                sohasoutofband
 .text          0x00488548      0x51c /usr/local/clas/devel_new/VxWorks55/ppc/target/lib/ppc/PPC604/common/libnet.a(random.o)
                0x004889a4                random
                0x00488820                setstate
                0x00488648                initstate
                0x00488548                srandom
 .text          0x00488a64       0xa8 /usr/local/clas/devel_new/VxWorks55/ppc/target/lib/ppc/PPC604/common/libos.a(fabs.o)
                0x00488a64                fabs
 .text          0x00488b0c      0x120 /usr/local/clas/devel_new/VxWorks55/ppc/target/lib/ppc/PPC604/common/libos.a(fclose.o)
                0x00488b0c                fclose
 .text          0x00488c2c      0x178 /usr/local/clas/devel_new/VxWorks55/ppc/target/lib/ppc/PPC604/common/libos.a(fflush.o)
                0x00488c2c                fflush
                0x00488cac                __sflush
 .text          0x00488da4      0x18c /usr/local/clas/devel_new/VxWorks55/ppc/target/lib/ppc/PPC604/common/libos.a(fgets.o)
                0x00488da4                fgets
 .text          0x00488f30       0xb0 /usr/local/clas/devel_new/VxWorks55/ppc/target/lib/ppc/PPC604/common/libos.a(fopen.o)
                0x00488f30                fopen
 .text          0x00488fe0       0xf8 /usr/local/clas/devel_new/VxWorks55/ppc/target/lib/ppc/PPC604/common/libos.a(fprintf.o)
                0x00488fe0                fprintf
 .text          0x004890d8      0x124 /usr/local/clas/devel_new/VxWorks55/ppc/target/lib/ppc/PPC604/common/libos.a(gets.o)
                0x004890d8                gets
 .text          0x004891fc       0x90 /usr/local/clas/devel_new/VxWorks55/ppc/target/lib/ppc/PPC604/common/libos.a(perror.o)
                0x004891fc                perror
 .text          0x0048928c      0x1a0 /usr/local/clas/devel_new/VxWorks55/ppc/target/lib/ppc/PPC604/common/libos.a(refill.o)
                0x004892c8                __srefill
 .text          0x0048942c       0x58 /usr/local/clas/devel_new/VxWorks55/ppc/target/lib/ppc/PPC604/common/libos.a(rget.o)
                0x0048942c                __srget
 .text          0x00489484       0xf4 /usr/local/clas/devel_new/VxWorks55/ppc/target/lib/ppc/PPC604/common/libos.a(scanf.o)
                0x00489484                scanf
 .text          0x00489578      0x160 /usr/local/clas/devel_new/VxWorks55/ppc/target/lib/ppc/PPC604/common/libos.a(stdio.o)
                0x00489644                __sseek
                0x00489578                __sread
                0x00489698                __sclose
                0x004895cc                __swrite
 .text          0x004896d8      0x400 /usr/local/clas/devel_new/VxWorks55/ppc/target/lib/ppc/PPC604/common/libos.a(stdioLib.o)
                0x004896d8                stdioInit
                0x00489a90                __stderr
                0x00489a00                __stdin
                0x00489750                stdioFpCreate
                0x00489804                stdioFpDestroy
                0x00489a48                __stdout
                0x004899a8                stdioFp
 .text          0x00489ad8      0x278 /usr/local/clas/devel_new/VxWorks55/ppc/target/lib/ppc/PPC604/common/libos.a(ungetc.o)
                0x00489bc4                ungetc
 .text          0x00489d50       0xf4 /usr/local/clas/devel_new/VxWorks55/ppc/target/lib/ppc/PPC604/common/libos.a(wbuf.o)
                0x00489d50                __swbuf
 .text          0x00489e44       0xec /usr/local/clas/devel_new/VxWorks55/ppc/target/lib/ppc/PPC604/common/libos.a(wsetup.o)
                0x00489e44                __swsetup
 .text          0x00489f30      0x324 /usr/local/clas/devel_new/VxWorks55/ppc/target/lib/ppc/PPC604/common/libos.a(vfprintf.o)
                0x00489f30                vfprintf
 .text          0x0048a254       0x10 /usr/local/clas/devel_new/VxWorks55/ppc/target/lib/ppc/PPC604/common/libos.a(abs.o)
                0x0048a254                abs
 .text          0x0048a264       0x24 /usr/local/clas/devel_new/VxWorks55/ppc/target/lib/ppc/PPC604/common/libos.a(atof.o)
                0x0048a264                atof
 .text          0x0048a288       0x28 /usr/local/clas/devel_new/VxWorks55/ppc/target/lib/ppc/PPC604/common/libos.a(atoi.o)
                0x0048a288                atoi
 .text          0x0048a2b0       0x28 /usr/local/clas/devel_new/VxWorks55/ppc/target/lib/ppc/PPC604/common/libos.a(atol.o)
                0x0048a2b0                atol
 .text          0x0048a2d8      0x564 /usr/local/clas/devel_new/VxWorks55/ppc/target/lib/ppc/PPC604/common/libos.a(strtod.o)
                0x0048a7a4                __exp10
                0x0048a2d8                strtod
 .text          0x0048a83c      0x264 /usr/local/clas/devel_new/VxWorks55/ppc/target/lib/ppc/PPC604/common/libos.a(strtol.o)
                0x0048a83c                strtol
 .text          0x0048aaa0      0x230 /usr/local/clas/devel_new/VxWorks55/ppc/target/lib/ppc/PPC604/common/libos.a(strtoul.o)
                0x0048aaa0                strtoul
 .text          0x0048acd0       0x34 /usr/local/clas/devel_new/VxWorks55/ppc/target/lib/ppc/PPC604/common/libos.a(memchr.o)
                0x0048acd0                memchr
 .text          0x0048ad04       0x48 /usr/local/clas/devel_new/VxWorks55/ppc/target/lib/ppc/PPC604/common/libos.a(memcpy.o)
                0x0048ad04                memcpy
 .text          0x0048ad4c       0x60 /usr/local/clas/devel_new/VxWorks55/ppc/target/lib/ppc/PPC604/common/libos.a(memmove.o)
                0x0048ad4c                memmove
 .text          0x0048adac       0x4c /usr/local/clas/devel_new/VxWorks55/ppc/target/lib/ppc/PPC604/common/libos.a(memset.o)
                0x0048adac                memset
 .text          0x0048adf8       0x3c /usr/local/clas/devel_new/VxWorks55/ppc/target/lib/ppc/PPC604/common/libos.a(strcat.o)
                0x0048adf8                strcat
 .text          0x0048ae34       0x34 /usr/local/clas/devel_new/VxWorks55/ppc/target/lib/ppc/PPC604/common/libos.a(strchr.o)
                0x0048ae34                strchr
 .text          0x0048ae68       0x40 /usr/local/clas/devel_new/VxWorks55/ppc/target/lib/ppc/PPC604/common/libos.a(strcmp.o)
                0x0048ae68                strcmp
 .text          0x0048aea8       0x28 /usr/local/clas/devel_new/VxWorks55/ppc/target/lib/ppc/PPC604/common/libos.a(strcpy.o)
                0x0048aea8                strcpy
 .text          0x0048aed0      0x174 /usr/local/clas/devel_new/VxWorks55/ppc/target/lib/ppc/PPC604/common/libos.a(strerror.o)
                0x0048aef0                strerror
                0x0048aed0                strerror_r
 .text          0x0048b044       0x1c /usr/local/clas/devel_new/VxWorks55/ppc/target/lib/ppc/PPC604/common/libos.a(strlen.o)
                0x0048b044                strlen
 .text          0x0048b060       0x4c /usr/local/clas/devel_new/VxWorks55/ppc/target/lib/ppc/PPC604/common/libos.a(strncmp.o)
                0x0048b060                strncmp
 .text          0x0048b0ac       0x60 /usr/local/clas/devel_new/VxWorks55/ppc/target/lib/ppc/PPC604/common/libos.a(strncpy.o)
                0x0048b0ac                strncpy
 .text          0x0048b10c       0x68 /usr/local/clas/devel_new/VxWorks55/ppc/target/lib/ppc/PPC604/common/libos.a(strstr.o)
                0x0048b10c                strstr
 .text          0x0048b174       0xa4 /usr/local/clas/devel_new/VxWorks55/ppc/target/lib/ppc/PPC604/common/libos.a(strtok_r.o)
                0x0048b174                strtok_r
 .text          0x0048b218       0x84 /usr/local/clas/devel_new/VxWorks55/ppc/target/lib/ppc/PPC604/common/libos.a(asctime.o)
                0x0048b218                asctime
                0x0048b268                asctime_r
 .text          0x0048b29c      0x120 /usr/local/clas/devel_new/VxWorks55/ppc/target/lib/ppc/PPC604/common/libos.a(localtime.o)
                0x0048b29c                localtime
                0x0048b2e0                localtime_r
 .text          0x0048b3bc      0xbf8 /usr/local/clas/devel_new/VxWorks55/ppc/target/lib/ppc/PPC604/common/libos.a(strftime.o)
                0x0048bb7c                __getDstInfo
                0x0048b3bc                strftime
                0x0048be64                __getZoneInfo
 .text          0x0048bfb4       0x58 /usr/local/clas/devel_new/VxWorks55/ppc/target/lib/ppc/PPC604/common/libos.a(time.o)
                0x0048bfb4                time
 .text          0x0048c00c      0x168 /usr/local/clas/devel_new/VxWorks55/ppc/target/lib/ppc/PPC604/common/libos.a(fpType.o)
                0x0048c00c                fpTypeGet
 .text          0x0048c174      0x554 /usr/local/clas/devel_new/VxWorks55/ppc/target/lib/ppc/PPC604/common/libos.a(cacheLib.o)
                0x0048c5d8                cacheDrvFlush
                0x0048c2d4                cacheInvalidate
                0x0048c254                cacheUnlock
                0x0048c174                cacheLibInit
                0x0048c314                cacheClear
                0x0048c420                cacheDmaFree
                0x0048c690                cacheDrvPhysToVirt
                0x0048c194                cacheEnable
                0x0048c294                cacheFlush
                0x0048c354                cachePipeFlush
                0x0048c618                cacheDrvInvalidate
                0x0048c1d4                cacheDisable
                0x0048c3e0                cacheDmaMalloc
                0x0048c658                cacheDrvVirtToPhys
                0x0048c464                cacheFuncsSet
                0x0048c390                cacheTextUpdate
                0x0048c214                cacheLock
 .text          0x0048c6c8      0x3d4 /usr/local/clas/devel_new/VxWorks55/ppc/target/lib/ppc/PPC604/common/libos.a(classLib.o)
                0x0048c8e0                classInstConnect
                0x0048c85c                classShowConnect
                0x0048c944                classMemPartIdSet
                0x0048c7a8                classInit
                0x0048c82c                classDestroy
                0x0048c6c8                classLibInit
                0x0048c714                classCreate
                0x0048c9d0                classInstrument
 .text          0x0048ca9c      0x454 /usr/local/clas/devel_new/VxWorks55/ppc/target/lib/ppc/PPC604/common/libos.a(clockLib.o)
                0x0048cba0                clock_gettime
                0x0048cd20                clock_settime
                0x0048cb98                clock_setres
                0x0048cb20                clock_getres
                0x0048cdc8                clock_show
                0x0048ca9c                clockLibInit
 .text          0x0048cef0      0x8ac /usr/local/clas/devel_new/VxWorks55/ppc/target/lib/ppc/PPC604/common/libos.a(envLib.o)
                0x0048d534                getenv
                0x0048d208                envPrivateCreate
                0x0048cef0                envLibInit
                0x0048d3a8                putenv
                0x0048d33c                envPrivateDestroy
                0x0048d6dc                envShow
 .text          0x0048d79c       0xfc /usr/local/clas/devel_new/VxWorks55/ppc/target/lib/ppc/PPC604/common/libos.a(errnoLib.o)
                0x0048d814                errnoSet
                0x0048d79c                __errno
                0x0048d7a8                errnoGet
                0x0048d7b4                errnoOfTaskGet
                0x0048d824                errnoOfTaskSet
 .text          0x0048d898      0x284 /usr/local/clas/devel_new/VxWorks55/ppc/target/lib/ppc/PPC604/common/libos.a(excLib.o)
                0x0048d898                excInit
                0x0048d958                excHookAdd
                0x0048d964                excJobAdd
                0x0048da04                excTask
 .text          0x0048db1c     0x360c /usr/local/clas/devel_new/VxWorks55/ppc/target/lib/ppc/PPC604/common/libos.a(fioLib.o)
                0x0048e2d0                fioFormatV
                0x0048db44                printf
                0x0048e27c                vsprintf
                0x0048dc1c                printErr
                0x0048fb14                fioRead
                0x0048db1c                fioLibInit
                0x0048fbb4                fioRdString
                0x0048e1fc                vprintf
                0x0048dcf4                printExc
                0x0049023c                scanField
                0x0048fca0                sscanf
                0x0048db30                fioFltInstall
                0x0048e118                sprintf
                0x00490b44                scanCharSet
                0x0048e040                fdprintf
                0x0048e238                vfdprintf
                0x0048fda4                fioScanV
 .text          0x00491128      0x6cc /usr/local/clas/devel_new/VxWorks55/ppc/target/lib/ppc/PPC604/common/libos.a(hashLib.o)
                0x00491608                hashTblEach
                0x004912d0                hashTblDelete
                0x00491700                hashFuncIterScale
                0x004917c4                hashKeyStrCmp
                0x004917ac                hashKeyCmp
                0x00491318                hashTblDestroy
                0x00491544                hashTblRemove
                0x004911a4                hashTblCreate
                0x004912f4                hashTblTerminate
                0x004913b4                hashTblPut
                0x00491128                hashLibInit
                0x00491734                hashFuncModulo
                0x00491750                hashFuncMultiply
                0x0049145c                hashTblFind
                0x00491238                hashTblInit
 .text          0x004917f4       0x6c /usr/local/clas/devel_new/VxWorks55/ppc/target/lib/ppc/PPC604/common/libos.a(intLib.o)
                0x004917f4                intRestrict
                0x0049183c                intContext
                0x00491854                intCount
 .text          0x00491860      0xe3c /usr/local/clas/devel_new/VxWorks55/ppc/target/lib/ppc/PPC604/common/libos.a(ioLib.o)
                0x00491f08                ioctl
                0x00492110                writev
                0x00492588                ioGlobalStdGet
                0x00491860                creat
                0x00491b98                remove
                0x00492668                isatty
                0x00491f28                lseek
                0x00491d1c                rename
                0x00491e64                write
                0x00492034                readv
                0x00492344                chdir
                0x00491dc0                read
                0x00492600                ioTaskStdGet
                0x0049256c                ioGlobalStdSet
                0x00491b78                unlink
                0x0049231c                ioDefPathGet
                0x004925ac                ioTaskStdSet
                0x00492290                ioDefPathSet
                0x00492364                getcwd
                0x004921e4                ioFullFileNameGet
                0x004924c4                ioDefDevGet
                0x00492518                ioDefDirGet
                0x00491888                open
                0x004923e4                getwd
                0x00491c98                close
                0x0049242c                ioDefPathCat
 .text          0x0049269c     0x100c /usr/local/clas/devel_new/VxWorks55/ppc/target/lib/ppc/PPC604/common/libos.a(iosLib.o)
                0x004931f4                iosOpen
                0x004931a0                iosDelete
                0x0049301c                iosFdNew
                0x00493434                iosWrite
                0x00492f3c                iosFdSet
                0x00492d20                iosNextDevGet
                0x00493340                iosRead
                0x00493150                iosCreate
                0x00492b94                iosDevDelete
                0x00492d3c                iosFdValue
                0x00492958                iosDrvRemove
                0x00492ad4                iosDevAdd
                0x00492824                iosDrvInstall
                0x00493248                iosClose
                0x00493528                iosIoctl
                0x00492dbc                iosFdDevFind
                0x004926a4                iosInit
                0x00492e3c                iosFdFree
                0x00492bec                iosDevFind
 .text          0x004936a8      0x700 /usr/local/clas/devel_new/VxWorks55/ppc/target/lib/ppc/PPC604/common/libos.a(logLib.o)
                0x0049392c                logFdAdd
                0x004938a0                logFdSet
                0x00493a98                logTask
                0x004936a8                logInit
                0x004939b0                logFdDelete
                0x004937ac                logMsg
                0x00493ce4                logShow
 .text          0x00493da8      0xa50 /usr/local/clas/devel_new/VxWorks55/ppc/target/lib/ppc/PPC604/common/libos.a(memLib.o)
                0x004947a4                memFindMax
                0x0049447c                memPartFindMax
                0x004946c0                memOptionsSet
                0x004946ec                calloc
                0x004940e4                memPartRealloc
                0x00493ea0                memPartOptionsSet
                0x00493e4c                memInit
                0x00494744                realloc
                0x00493da8                memLibInit
                0x00494048                memalign
                0x00494778                cfree
                0x00494074                valloc
 .text          0x004947f8      0xfa0 /usr/local/clas/devel_new/VxWorks55/ppc/target/lib/ppc/PPC604/common/libos.a(memPartLib.o)
                0x004949ec                memPartInit
                0x004956e4                memAddToPool
                0x00495420                memPartBlockIsValid
                0x00495714                malloc
                0x00494d20                memPartAlignedAlloc
                0x004948c0                memPartCreate
                0x004950a8                memPartAlloc
                0x00494ae0                memPartAddToPool
                0x004947f8                memPartLibInit
                0x00495124                memPartFree
                0x00495740                free
 .text          0x00495798      0x268 /usr/local/clas/devel_new/VxWorks55/ppc/target/lib/ppc/PPC604/common/libos.a(objLib.o)
                0x00495944                objFree
                0x00495798                objShow
                0x00495850                objAllocExtra
                0x004959e4                objCoreTerminate
                0x004959d0                objCoreInit
                0x0049591c                objAlloc
 .text          0x00495a00      0x828 /usr/local/clas/devel_new/VxWorks55/ppc/target/lib/ppc/PPC604/common/libos.a(pathLib.o)
                0x00495b68                pathCondense
                0x0049615c                pathSplit
                0x00495a00                pathParse
                0x00495cf8                pathBuild
                0x00495e5c                pathCat
                0x00496070                pathLastNamePtr
                0x004960ac                pathLastName
 .text          0x00496228      0x6d8 /usr/local/clas/devel_new/VxWorks55/ppc/target/lib/ppc/PPC604/common/libos.a(pipeDrv.o)
                0x004962a4                pipeDevCreate
                0x004963c4                pipeDevDelete
                0x00496228                pipeDrv
 .text          0x00496900      0x13c /usr/local/clas/devel_new/VxWorks55/ppc/target/lib/ppc/PPC604/common/libos.a(rebootLib.o)
                0x004969a8                rebootHookAdd
                0x00496900                reboot
 .text          0x00496a3c      0xd24 /usr/local/clas/devel_new/VxWorks55/ppc/target/lib/ppc/PPC604/common/libos.a(selectLib.o)
                0x00496a3c                selectInit
                0x00497294                selNodeAdd
                0x00496c24                select
                0x00496bb8                selTaskDeleteHookAdd
                0x00497470                selWakeupListTerm
                0x00497420                selWakeupListInit
                0x00497490                selWakeupListLen
                0x004971c8                selWakeupAll
                0x004974b4                selWakeupType
                0x0049713c                selWakeup
                0x00497360                selNodeDelete
 .text          0x00497760      0x7a8 /usr/local/clas/devel_new/VxWorks55/ppc/target/lib/ppc/PPC604/common/libos.a(taskHookLib.o)
                0x004977dc                taskSwitchHookAdd
                0x00497784                taskCreateHookAdd
                0x00497834                taskSwapHookAdd
                0x00497adc                taskSwapHookDelete
                0x004978bc                taskSwapHookAttach
                0x00497808                taskSwitchHookDelete
                0x004977b0                taskCreateHookDelete
                0x004979d8                taskSwapHookDetach
                0x00497b7c                taskDeleteHookAdd
                0x00497c08                taskDeleteHookDelete
                0x00497760                taskHookInit
 .text          0x00497f08      0x358 /usr/local/clas/devel_new/VxWorks55/ppc/target/lib/ppc/PPC604/common/libos.a(ttyDrv.o)
                0x00497f08                ttyDrv
                0x00497f84                ttyDevCreate
 .text          0x00498260     0x11b4 /usr/local/clas/devel_new/VxWorks55/ppc/target/lib/ppc/PPC604/common/libos.a(tyLib.o)
                0x00498348                tyDevRemove
                0x00498568                tyAbortFuncSet
                0x00498580                tyBackspaceSet
                0x0049858c                tyDeleteLineSet
                0x00498cb0                tyIRd
                0x00498598                tyEOFSet
                0x00498260                tyDevInit
                0x00498b30                tyITx
                0x00498574                tyAbortSet
                0x00498808                tyWrite
                0x004985a4                tyMonitorTrapSet
                0x00498930                tyRead
                0x004985b0                tyIoctl
 .text          0x00499414      0x434 /usr/local/clas/devel_new/VxWorks55/ppc/target/lib/ppc/PPC604/common/libos.a(bootElfLib.o)
                0x00499830                bootElfInit
 .text          0x00499848       0x4c /usr/local/clas/devel_new/VxWorks55/ppc/target/lib/ppc/PPC604/common/libos.a(bootLoadLib.o)
                0x00499848                bootLoadModule
 .text          0x00499894      0x254 /usr/local/clas/devel_new/VxWorks55/ppc/target/lib/ppc/PPC604/common/libos.a(ramDrv.o)
                0x00499894                ramDrv
                0x0049989c                ramDevCreate
 .text          0x00499ae8      0x338 /usr/local/clas/devel_new/VxWorks55/ppc/target/lib/ppc/PPC604/common/libos.a(usrDosFsOld.o)
                0x00499d18                dosFsConfigShow
                0x00499d54                dosFsVolOptionsSet
                0x00499d3c                dosFsModeChange
                0x00499d40                dosFsReadyChange
                0x00499d44                dosFsVolOptionsGet
                0x00499d10                dosFsConfigGet
                0x00499c6c                dosFsDevInitOptionsSet
                0x00499b54                dosFsDevInit
                0x00499c74                dosFsMkfs
                0x00499ae8                dosFsInit
                0x00499cf8                dosFsMkfsOptionsSet
                0x00499d08                dosFsConfigInit
                0x00499d5c                dosFsDateTimeInstall
 .text          0x00499e20      0x198 /usr/local/clas/devel_new/VxWorks55/ppc/target/lib/ppc/PPC604/common/libos.a(bLib.o)
                0x00499e20                bcmp
                0x00499e94                bswap
                0x00499ef8                bzero
                0x00499f58                rindex
                0x00499f1c                index
                0x00499ec0                uswab
                0x00499e60                binvert
 .text          0x00499fb8     0x1934 /usr/local/clas/devel_new/VxWorks55/ppc/target/lib/ppc/PPC604/common/libos.a(bootLib.o)
                0x0049b78c                bootScanNum
                0x0049acc8                bootBpAnchorExtract
                0x0049a3a4                bootStructToString
                0x0049aaf8                bootLeaseExtract
                0x0049aab8                bootParamsErrorPrint
                0x0049a8c8                bootParamsPrompt
                0x0049ac18                bootNetmaskExtract
                0x00499fb8                bootStringToStruct
                0x0049a734                bootParamsShow
 .text          0x0049b8ec       0x58 /usr/local/clas/devel_new/VxWorks55/ppc/target/lib/ppc/PPC604/common/libos.a(cksumLib.o)
                0x0049b8ec                checksum
 .text          0x0049b944      0x204 /usr/local/clas/devel_new/VxWorks55/ppc/target/lib/ppc/PPC604/common/libos.a(dllLib.o)
                0x0049bad8                dllEach
                0x0049b9d0                dllInsert
                0x0049bab0                dllCount
                0x0049b9c8                dllTerminate
                0x0049b944                dllCreate
                0x0049b9a4                dllDelete
                0x0049ba0c                dllAdd
                0x0049ba34                dllRemove
                0x0049ba78                dllGet
                0x0049b98c                dllInit
 .text          0x0049bb48      0x418 /usr/local/clas/devel_new/VxWorks55/ppc/target/lib/ppc/PPC604/common/libos.a(lstLib.o)
                0x0049be7c                lstFind
                0x0049bd2c                lstInsert
                0x0049bc5c                lstExtract
                0x0049bd7c                lstNext
                0x0049bce0                lstFirst
                0x0049bb60                lstAdd
                0x0049bb88                lstConcat
                0x0049bce8                lstGet
                0x0049be00                lstNStep
                0x0049bc04                lstCount
                0x0049bdf8                lstPrevious
                0x0049beec                lstFree
                0x0049bb4c                lstInit
                0x0049bc0c                lstDelete
                0x0049bb48                lstLibInit
                0x0049bd84                lstNth
                0x0049bd74                lstLast
 .text          0x0049bf60      0x208 /usr/local/clas/devel_new/VxWorks55/ppc/target/lib/ppc/PPC604/common/libos.a(qFifoLib.o)
                0x0049bfc8                qFifoDelete
                0x0049c024                qFifoGet
                0x0049c0f0                qFifoEach
                0x0049c05c                qFifoRemove
                0x0049bfec                qFifoPut
                0x0049bf60                qFifoCreate
                0x0049bfa4                qFifoInit
                0x0049c080                qFifoInfo
 .text          0x0049c168      0x580 /usr/local/clas/devel_new/VxWorks55/ppc/target/lib/ppc/PPC604/common/libos.a(qLib.o)
                0x0049c658                qCalibrate
                0x0049c6b8                qEach
                0x0049c5f0                qGetExpired
                0x0049c500                qPut
                0x0049c2f8                qInit
                0x0049c560                qRemove
                0x0049c4f8                qFirst
                0x0049c4a4                qTerminate
                0x0049c688                qInfo
                0x0049c5c0                qAdvance
                0x0049c458                qDelete
                0x0049c530                qGet
                0x0049c590                qResort
                0x0049c620                qKey
                0x0049c168                qCreate
 .text          0x0049c6e8      0x66c /usr/local/clas/devel_new/VxWorks55/ppc/target/lib/ppc/PPC604/common/libos.a(qPriBMapLib.o)
                0x0049c8a8                qPriBMapDelete
                0x0049ca34                qPriBMapResort
                0x0049c74c                qPriBMapCreate
                0x0049c6e8                qPriBMapListCreate
                0x0049ca9c                qPriBMapInfo
                0x0049ca94                qPriBMapKey
                0x0049c7d0                qPriBMapInit
                0x0049c728                qPriBMapListDelete
                0x0049c8cc                qPriBMapPut
                0x0049c950                qPriBMapGet
                0x0049cb98                qPriBMapEach
                0x0049c98c                qPriBMapRemove
 .text          0x0049cd54      0x3c0 /usr/local/clas/devel_new/VxWorks55/ppc/target/lib/ppc/PPC604/common/libos.a(qPriListLib.o)
                0x0049cd54                qPriListCreate
                0x0049cee4                qPriListRemove
                0x0049d034                qPriListInfo
                0x0049cf08                qPriListResort
                0x0049cf9c                qPriListAdvance
                0x0049cd98                qPriListInit
                0x0049cfa0                qPriListGetExpired
                0x0049cdbc                qPriListDelete
                0x0049d0a4                qPriListEach
                0x0049cde0                qPriListTerminate
                0x0049ceac                qPriListGet
                0x0049d010                qPriListKey
                0x0049cfe8                qPriListCalibrate
                0x0049cde8                qPriListPut
                0x0049ce4c                qPriListPutFromTail
 .text          0x0049d114      0x468 /usr/local/clas/devel_new/VxWorks55/ppc/target/lib/ppc/PPC604/common/libos.a(rngLib.o)
                0x0049d4f0                rngNBytes
                0x0049d1e4                rngBufGet
                0x0049d49c                rngIsFull
                0x0049d318                rngBufPut
                0x0049d548                rngMoveAhead
                0x0049d114                rngCreate
                0x0049d1d4                rngFlush
                0x0049d4cc                rngFreeBytes
                0x0049d510                rngPutAhead
                0x0049d484                rngIsEmpty
                0x0049d18c                rngDelete
 .text          0x0049d57c      0x224 /usr/local/clas/devel_new/VxWorks55/ppc/target/lib/ppc/PPC604/common/libos.a(sllLib.o)
                0x0049d6fc                sllCount
                0x0049d600                sllTerminate
                0x0049d57c                sllCreate
                0x0049d6b0                sllPrevious
                0x0049d5c4                sllInit
                0x0049d724                sllEach
                0x0049d62c                sllPutAtTail
                0x0049d65c                sllGet
                0x0049d678                sllRemove
                0x0049d608                sllPutAtHead
                0x0049d5dc                sllDelete
 .text          0x0049d7a0     0x2810 /usr/local/clas/devel_new/VxWorks55/ppc/target/lib/ppc/PPC604/common/libos.a(dcacheCbio.o)
                0x0049e7a8                dcacheDevEnable
                0x0049e6f0                dcacheDevDisable
                0x0049fc98                dcacheShow
                0x0049d7a0                dcacheDevCreate
                0x0049f890                dcacheDevMemResize
                0x0049fb50                dcacheUpd
                0x0049f7b4                dcacheDevTune
 .text          0x0049ffb0     0x23b0 /usr/local/clas/devel_new/VxWorks55/ppc/target/lib/ppc/PPC604/common/libos.a(dosChkLib.o)
                0x004a01dc                dosChkEntryMark
                0x004a0e50                dosFsChkTree
                0x004a13a8                dosChkDsk
                0x004a1868                dosChkLibInit
 .text          0x004a2360     0x21f0 /usr/local/clas/devel_new/VxWorks55/ppc/target/lib/ppc/PPC604/common/libos.a(dosDirOldLib.o)
                0x004a4508                dosDirOldLibInit
 .text          0x004a4550     0x1f48 /usr/local/clas/devel_new/VxWorks55/ppc/target/lib/ppc/PPC604/common/libos.a(dosFsFat.o)
                0x004a60e8                fat16VolMount
                0x004a6008                fat16ClustValueGet
                0x004a5e3c                fat16ClustValueSet
                0x004a6450                dosFsFatInit
 .text          0x004a6498     0x177c /usr/local/clas/devel_new/VxWorks55/ppc/target/lib/ppc/PPC604/common/libos.a(dosFsFmtLib.o)
                0x004a7c00                dosFsFmtLibInit
                0x004a783c                dosFsVolFormat
 .text          0x004a7c14     0x4e80 /usr/local/clas/devel_new/VxWorks55/ppc/target/lib/ppc/PPC604/common/libos.a(dosFsLib.o)
                0x004ac168                dosFsDevCreate
                0x004ac91c                dosFsHdlrInstall
                0x004a89b8                dosFsVolIsFat12
                0x004ac458                dosFsShow
                0x004a7f24                dosFsChkDsk
                0x004ac0a0                dosFsLastAccessDateEnable
                0x004a7e0c                dosFsVolUnmount
                0x004a7c14                dosSetVolCaseSens
                0x004ac0e4                dosFsLibInit
                0x004a7ca0                dosFsVolDescGet
 .text          0x004aca94     0x30e4 /usr/local/clas/devel_new/VxWorks55/ppc/target/lib/ppc/PPC604/common/libos.a(dosVDirLib.o)
                0x004afb30                dosVDirLibInit
 .text          0x004afb78      0x378 /usr/local/clas/devel_new/VxWorks55/ppc/target/lib/ppc/PPC604/common/libos.a(print64Lib.o)
                0x004afe10                print64Mult
                0x004afb78                print64
                0x004afdac                print64Fine
                0x004afdec                print64Row
 .text          0x004afef0       0x94 /usr/local/clas/devel_new/VxWorks55/ppc/target/lib/ppc/PPC604/common/libos.a(fgetc.o)
                0x004afef0                fgetc
 .text          0x004aff84      0x150 /usr/local/clas/devel_new/VxWorks55/ppc/target/lib/ppc/PPC604/common/libos.a(flags.o)
                0x004aff84                __sflags
 .text          0x004b00d4      0x16c /usr/local/clas/devel_new/VxWorks55/ppc/target/lib/ppc/PPC604/common/libos.a(makebuf.o)
                0x004b00d4                __smakebuf
 .text          0x004b0240       0x58 /usr/local/clas/devel_new/VxWorks55/ppc/target/lib/ppc/PPC604/common/libos.a(strncat.o)
                0x004b0240                strncat
 .text          0x004b0298       0x54 /usr/local/clas/devel_new/VxWorks55/ppc/target/lib/ppc/PPC604/common/libos.a(strpbrk.o)
                0x004b0298                strpbrk
 .text          0x004b02ec       0x6c /usr/local/clas/devel_new/VxWorks55/ppc/target/lib/ppc/PPC604/common/libos.a(strspn.o)
                0x004b02ec                strspn
 .text          0x004b0358       0x8c /usr/local/clas/devel_new/VxWorks55/ppc/target/lib/ppc/PPC604/common/libos.a(ctime.o)
                0x004b0358                ctime
                0x004b038c                ctime_r
 .text          0x004b03e4      0x350 /usr/local/clas/devel_new/VxWorks55/ppc/target/lib/ppc/PPC604/common/libos.a(gmtime.o)
                0x004b0634                __daysSinceEpoch
                0x004b044c                __getTime
                0x004b0428                gmtime_r
                0x004b0684                __julday
                0x004b03e4                gmtime
 .text          0x004b0734      0x2d4 /usr/local/clas/devel_new/VxWorks55/ppc/target/lib/ppc/PPC604/common/libos.a(mktime.o)
                0x004b0734                mktime
 .text          0x004b0a08     0x1898 /usr/local/clas/devel_new/VxWorks55/ppc/target/lib/ppc/PPC604/common/libos.a(cbioLib.o)
                0x004b0ee4                cbioLock
                0x004b0f38                cbioUnlock
                0x004b0d6c                cbioModeSet
                0x004b0e00                cbioRdyChgdGet
                0x004b0ab0                cbioBlkRW
                0x004b0e8c                cbioRdyChgdSet
                0x004b100c                cbioRdyChk
                0x004b0c80                cbioIoctl
                0x004b0a08                cbioLibInit
                0x004b0c00                cbioBlkCopy
                0x004b136c                cbioWrapBlkDev
                0x004b14d0                cbioDevCreate
                0x004b0b50                cbioBytesRW
                0x004b10c8                cbioShow
                0x004b0f7c                cbioParamsGet
                0x004b12e8                cbioDevVerify
                0x004b0cf0                cbioModeGet
 .text          0x004b22a0       0x38 /usr/local/clas/devel_new/VxWorks55/ppc/target/lib/ppc/PPC604/common/libos.a(assert.o)
                0x004b22a0                __assert
 .text          0x004b22d8       0x2c /usr/local/clas/devel_new/VxWorks55/ppc/target/lib/ppc/PPC604/common/libos.a(abort.o)
                0x004b22d8                abort
 .text          0x004b2304       0x8c /usr/local/clas/devel_new/VxWorks55/ppc/target/lib/ppc/PPC604/common/libos.a(ldiv.o)
                0x004b2358                ldiv_r
                0x004b2304                ldiv
 .text          0x004b2390     0x2228 /usr/local/clas/devel_new/VxWorks55/ppc/target/lib/ppc/PPC604/common/libos.a(sigLib.o)
                0x004b423c                sigPendInit
                0x004b2cd8                pause
                0x004b2560                sigemptyset
                0x004b2580                sigaddset
                0x004b4254                sigPendDestroy
                0x004b2390                sigInit
                0x004b34bc                kill
                0x004b3354                sigvec
                0x004b32e0                sigwaitinfo
                0x004b410c                sigPendKill
                0x004b241c                sigqueueInit
                0x004b2678                signal
                0x004b2570                sigfillset
                0x004b26f8                sigaction
                0x004b33d8                sigreturn
                0x004b2f44                sigtimedwait
                0x004b345c                sigblock
                0x004b36b4                sigqueue
                0x004b2628                sigismember
                0x004b25d4                sigdelset
                0x004b29f4                sigpending
                0x004b3428                sigsetmask
                0x004b3304                sigwait
                0x004b2a3c                sigsuspend
                0x004b3490                raise
                0x004b28f8                sigprocmask
 .text          0x004b45b8      0xdb8 /usr/local/clas/devel_new/VxWorks55/ppc/target/lib/ppc/PPC604/common/libwind.a(eventLib.o)
                0x004b4f84                eventRsrcSend
                0x004b46f0                eventReceive
                0x004b4600                eventTerminate
                0x004b45b8                eventLibInit
                0x004b522c                eventStart
                0x004b45ec                eventInit
                0x004b51d4                eventClear
                0x004b4bc4                eventSend
 .text          0x004b5370      0x1c4 /usr/local/clas/devel_new/VxWorks55/ppc/target/lib/ppc/PPC604/common/libwind.a(kernelLib.o)
                0x004b54f8                kernelVersion
                0x004b5370                kernelInit
                0x004b5504                kernelTimeSlice
 .text          0x004b5534     0x1270 /usr/local/clas/devel_new/VxWorks55/ppc/target/lib/ppc/PPC604/common/libwind.a(msgQLib.o)
                0x004b5774                msgQInit
                0x004b55d4                msgQCreate
                0x004b66c0                msgQNumMsgs
                0x004b598c                msgQDelete
                0x004b5eb0                msgQSend
                0x004b5968                msgQTerminate
                0x004b62ec                msgQReceive
                0x004b5534                msgQLibInit
 .text          0x004b67a4      0x954 /usr/local/clas/devel_new/VxWorks55/ppc/target/lib/ppc/PPC604/common/libwind.a(msgQShow.o)
                0x004b67a4                msgQShowInit
                0x004b6860                msgQInfoGet
                0x004b6a84                msgQShow
 .text          0x004b70f8      0x330 /usr/local/clas/devel_new/VxWorks55/ppc/target/lib/ppc/PPC604/common/libwind.a(schedLib.o)
                0x004b70f8                reschedule
 .text          0x004b7428      0x87c /usr/local/clas/devel_new/VxWorks55/ppc/target/lib/ppc/PPC604/common/libwind.a(semBLib.o)
                0x004b76d8                semBCoreInit
                0x004b77a4                semBGive
                0x004b7b78                semBGiveDefer
                0x004b7650                semBInit
                0x004b7428                semBLibInit
                0x004b74e4                semBCreate
                0x004b79a4                semBTake
 .text          0x004b7ca4      0x820 /usr/local/clas/devel_new/VxWorks55/ppc/target/lib/ppc/PPC604/common/libwind.a(semCLib.o)
                0x004b7f44                semCCoreInit
                0x004b7ebc                semCInit
                0x004b83a4                semCGiveDefer
                0x004b81d4                semCTake
                0x004b7d60                semCCreate
                0x004b7ca4                semCLibInit
                0x004b7fe0                semCGive
 .text          0x004b84c4      0xcc0 /usr/local/clas/devel_new/VxWorks55/ppc/target/lib/ppc/PPC604/common/libwind.a(semLib.o)
                0x004b881c                semFlush
                0x004b89d4                semDestroy
                0x004b8ce0                semGiveDefer
                0x004b8e00                semInvalid
                0x004b898c                semDelete
                0x004b86c8                semTake
                0x004b8d70                semFlushDefer
                0x004b89b0                semTerminate
                0x004b855c                semGive
                0x004b90b0                semQFlushDefer
                0x004b8e68                semIntRestrict
                0x004b84c4                semLibInit
                0x004b8f5c                semQFlush
                0x004b8eb4                semQInit
 .text          0x004b9184      0xd54 /usr/local/clas/devel_new/VxWorks55/ppc/target/lib/ppc/PPC604/common/libwind.a(semMLib.o)
                0x004b9184                semMLibInit
                0x004b93ec                semMCoreInit
                0x004b9b28                semMGiveKern
                0x004b91f8                semMCreate
                0x004b9dbc                semMPendQPut
                0x004b946c                semMGive
                0x004b9664                semMTake
                0x004b97ec                semMGiveForce
                0x004b9354                semMInit
 .text          0x004b9ed8      0x428 /usr/local/clas/devel_new/VxWorks55/ppc/target/lib/ppc/PPC604/common/libwind.a(taskInfo.o)
                0x004ba128                taskNameToId
                0x004ba094                taskRegsSet
                0x004ba008                taskBpHookSet
                0x004b9ed8                taskOptionsSet
                0x004ba26c                taskIdListGet
                0x004ba0e4                taskName
                0x004ba234                taskIsSuspended
                0x004ba1f8                taskIsReady
                0x004ba014                taskRegsGet
                0x004b9fc0                taskOptionsGet
                0x004ba1dc                taskIdDefault
 .text          0x004ba300     0x2630 /usr/local/clas/devel_new/VxWorks55/ppc/target/lib/ppc/PPC604/common/libwind.a(taskLib.o)
                0x004bac40                taskDeleteForce
                0x004ba39c                taskSpawn
                0x004bc310                taskUnsafe
                0x004ba648                taskInit
                0x004bc860                taskTcb
                0x004bc1d0                taskSafe
                0x004bb92c                taskRestart
                0x004ba444                taskCreat
                0x004bc50c                taskDelay
                0x004bab6c                taskActivate
                0x004bc8d0                taskStackAllot
                0x004bbf60                taskLock
                0x004bb744                taskResume
                0x004bac98                taskDestroy
                0x004bc7ec                taskIdVerify
                0x004bc7e0                taskIdSelf
                0x004bbf18                taskPriorityGet
                0x004bc028                taskUnlock
                0x004ba300                taskLibInit
                0x004bac14                taskDelete
                0x004bc6f8                taskUndelay
                0x004bb534                taskSuspend
                0x004bab8c                exit
                0x004bac6c                taskTerminate
                0x004bbcc4                taskPrioritySet
 .text          0x004bc930      0xb10 /usr/local/clas/devel_new/VxWorks55/ppc/target/lib/ppc/PPC604/common/libwind.a(taskShow.o)
                0x004bcf14                taskIdListSort
                0x004bcb1c                taskShow
                0x004bcfcc                taskRegsShow
                0x004bc930                taskShowInit
                0x004bd154                taskStatusString
                0x004bd2bc                taskOptionsString
                0x004bc994                taskInfoGet
 .text          0x004bd440      0x208 /usr/local/clas/devel_new/VxWorks55/ppc/target/lib/ppc/PPC604/common/libwind.a(tickLib.o)
                0x004bd440                tickAnnounce
                0x004bd588                tick64Set
                0x004bd5e8                tick64Get
                0x004bd520                tickSet
                0x004bd57c                tickGet
 .text          0x004bd648      0x928 /usr/local/clas/devel_new/VxWorks55/ppc/target/lib/ppc/PPC604/common/libwind.a(wdLib.o)
                0x004bdf6c                wdTick
                0x004bd908                wdTerminate
                0x004bd704                wdCreate
                0x004bd648                wdLibInit
                0x004bdc04                wdStart
                0x004bd92c                wdDestroy
                0x004bddec                wdCancel
                0x004bd854                wdInit
                0x004bd8e4                wdDelete
 .text          0x004bdf70     0x1c0c /usr/local/clas/devel_new/VxWorks55/ppc/target/lib/ppc/PPC604/common/libwind.a(windLib.o)
                0x004be230                windSuspend
                0x004beebc                windUndelay
                0x004bf584                windPendQFlush
                0x004be450                windPrioritySet
                0x004bf3e8                windReadyQPut
                0x004bf908                windPendQRemove
                0x004bed48                windDelay
                0x004bf73c                windPendQPut
                0x004bf1a4                windWdCancel
                0x004bf488                windReadyQRemove
                0x004be328                windResume
                0x004bf298                windPendQGet
                0x004bf000                windWdStart
                0x004bdf70                windSpawn
                0x004be058                windDelete
                0x004be424                windPriNormalSet
                0x004be6ec                windSemDelete
                0x004be87c                windTickAnnounce
                0x004bf9a0                windPendQTerminate
 .text          0x004bfb7c      0x370 /usr/local/clas/devel_new/VxWorks55/ppc/target/lib/ppc/PPC604/common/libwind.a(workQLib.o)
                0x004bfba4                workQAdd0
                0x004bfb7c                workQInit
                0x004bfc3c                workQAdd1
                0x004bfe84                workQPanic
                0x004bfdb4                workQDoWork
                0x004bfcf0                workQAdd2
 .text          0x004bfeec      0x1e0 /usr/local/clas/devel_new/VxWorks55/ppc/target/lib/ppc/PPC604/common/libwind.a(eventShow.o)
                0x004bffd0                eventRsrcShow
                0x004bfeec                eventTaskShow
 .text          0x004c00cc      0x280 /usr/local/clas/devel_new/VxWorks55/ppc/target/lib/ppc/PPC604/common/libwind.a(msgQEvLib.o)
                0x004c00cc                msgQEvLibInit
                0x004c00d0                msgQEvStart
                0x004c0268                msgQEvStop
 .text          0x004c034c      0x29c /usr/local/clas/devel_new/VxWorks55/ppc/target/lib/ppc/PPC604/common/libwind.a(semEvLib.o)
                0x004c034c                semEvLibInit
                0x004c0504                semEvStop
                0x004c0350                semEvStart
 .text          0x004c05e8     0x1810 /usr/local/clas/devel_new/VxWorks55/ppc/target/lib/ppc/PPC604/common/libwindview.a(wvLib.o)
                0x004c07f4                wvEvtClassClearAll
                0x004c1220                wvLogHeaderCreate
                0x004c07c0                wvEvtClassSet
                0x004c0b64                wvSigInst
                0x004c1840                wvTaskNamesBufAdd
                0x004c120c                wvUploadTaskConfig
                0x004c0628                wvEvtLogInit
                0x004c15b4                wvEvtBufferGet
                0x004c16bc                wvTaskNamesUpload
                0x004c0be4                wvEvent
                0x004c0ba4                wvEventInst
                0x004c0804                wvObjInstModeSet
                0x004c06f8                wvEvtLogStop
                0x004c151c                wvLogHeaderUpload
                0x004c0608                wvLibInit2
                0x004c07e0                wvEvtClassClear
                0x004c1018                wvUploadStart
                0x004c05e8                wvLibInit
                0x004c0868                wvObjInst
                0x004c15c0                wvTaskNamesPreserve
                0x004c1184                wvUploadStop
                0x004c07d4                wvEvtClassGet
                0x004c066c                wvEvtLogStart
 .text          0x004c1df8      0xcf4 /usr/local/clas/devel_new/VxWorks55/ppc/target/lib/ppc/PPC604/common/libwindview.a(evtLogLib.o)
                0x004c2254                evtLogM2
                0x004c23d4                evtLogOInt
                0x004c1df8                evtObjLogFuncBind
                0x004c2084                evtLogT1
                0x004c2308                evtLogM3
                0x004c2a74                evtLogT1_noTS
                0x004c2828                evtLogTasks
                0x004c213c                evtLogM0
                0x004c2900                evtsched
                0x004c26fc                evtLogPoint
                0x004c2484                evtLogO
                0x004c21bc                evtLogM1
                0x004c1f5c                evtLogT0
                0x004c25d0                evtLogString
                0x004c2000                evtLogT0_noInt
                0x004c1f50                evtBufferBind
                0x004c1e1c                evtLogFuncBind
 .text          0x004c2aec        0xc /usr/local/clas/devel_new/VxWorks55/ppc/target/lib/ppc/PPC604/common/libarch.a(ffsALib.o)
                0x004c2aec                ffsMsb
 .text          0x004c2af8       0xf4 /usr/local/clas/devel_new/VxWorks55/ppc/target/lib/ppc/PPC604/common/libarch.a(sigCtxALib.o)
                0x004c2af8                sigsetjmp
                0x004c2b28                setjmp
                0x004c2b58                _sigCtxSave
                0x004c2b90                _sigCtxLoad
 .text          0x004c2bec       0xc0 /usr/local/clas/devel_new/VxWorks55/ppc/target/lib/ppc/PPC604/common/libarch.a(sigCtxLib.o)
                0x004c2bec                _sigCtxRtnValSet
                0x004c2bfc                _sigCtxSetup
                0x004c2bf4                _sigCtxStackEnd
 .text          0x004c2cac      0x18c /usr/local/clas/devel_new/VxWorks55/ppc/target/lib/ppc/PPC604/common/libarch.a(taskArchLib.o)
                0x004c2cac                vxTaskEntry
                0x004c2df4                taskMsrSet
                0x004c2dd4                taskArgsGet
                0x004c2dac                taskArgsSet
                0x004c2dcc                taskRtnValueSet
                0x004c2d24                taskRegsInit
 .text          0x004c2e38      0x3fc /usr/local/clas/devel_new/VxWorks55/ppc/target/lib/ppc/PPC604/common/libarch.a(windALib.o)
                0x004c2fa4                windExit
                0x004c312c                windLoadContext
                0x004c3204                windIntStackSet
 .text          0x004c3234       0x40 /usr/local/clas/devel_new/VxWorks55/ppc/target/lib/ppc/PPC604/common/libgcc.a(_x_gnu__ashldi3.o)
                0x004c3234                __ashldi3
 .text          0x004c3274       0x40 /usr/local/clas/devel_new/VxWorks55/ppc/target/lib/ppc/PPC604/common/libgcc.a(_x_gnu__ashrdi3.o)
                0x004c3274                __ashrdi3
 .text          0x004c32b4      0x5cc /usr/local/clas/devel_new/VxWorks55/ppc/target/lib/ppc/PPC604/common/libgcc.a(_x_gnu__divdi3.o)
                0x004c32b4                __divdi3
 .text          0x004c3880      0x53c /usr/local/clas/devel_new/VxWorks55/ppc/target/lib/ppc/PPC604/common/libgcc.a(_x_gnu__udivdi3.o)
                0x004c3880                __udivdi3
 .text          0x004c3dbc      0x4fc /usr/local/clas/devel_new/VxWorks55/ppc/target/lib/ppc/PPC604/common/libgcc.a(_x_gnu__umoddi3.o)
                0x004c3dbc                __umoddi3
 .text          0x004c42b8       0xf4 /usr/local/clas/devel_new/VxWorks55/ppc/target/lib/ppc/PPC604/common/libos.a(longjmp.o)
                0x004c42f8                longjmp
                0x004c42b8                _setjmpSetup
 .text          0x004c43ac      0x92c /usr/local/clas/devel_new/VxWorks55/ppc/target/lib/ppc/PPC604/common/libos.a(qJobLib.o)
                0x004c44c0                qJobTerminate
                0x004c4478                qJobDelete
                0x004c44e8                qJobPut
                0x004c4ba4                qJobInfo
                0x004c4c44                qJobEach
                0x004c48f0                qJobGet
                0x004c43ac                qJobCreate
                0x004c4410                qJobInit
 *(.text.*)
 *(.stub)
 *(.gnu.warning)
 *(.gnu.linkonce.t*)
 *(.init)
 *(.fini)
 *(.glue_7t)
 *(.glue_7)
 *(.rdata)
 *(.mips16.fn.*)
 *(.mips16.call.*)
 *(.reginfo)
 *(.rodata)
 *fill*         0x004c4cd8        0x8
 .rodata        0x004c4ce0      0xe70 bootConfig.o
 .rodata        0x004c5b50       0x38 version.o
 *fill*         0x004c5b88        0x8
 .rodata        0x004c5b90      0xe00 sysLib.o
 .rodata        0x004c6990      0x110 pciDevConfig.o
 .rodata        0x004c6aa0      0x210 pciScan.o
 .rodata        0x004c6cb0       0x90 gtInitLib.o
 .rodata        0x004c6d40      0x218 gtIntControl.o
 .rodata        0x004c6f58      0x43c sysIntCtrl.o
 *fill*         0x004c7394        0xc
 .rodata        0x004c73a0       0x60 gtMemory.o
 .rodata        0x004c7400      0x1c8 vxGppIntCtrl.o
 .rodata        0x004c75c8      0x138 vxCntmrIntCtrl.o
 .rodata        0x004c7700      0x130 vxDmaIntCtrl.o
 .rodata        0x004c7830       0x3c vxWatchDog.o
 .rodata        0x004c786c       0x7c vxEthernetIntCtrl.o
 .rodata        0x004c78e8       0x80 mgiEnd.obj
 *fill*         0x004c7968        0x8
 .rodata        0x004c7970       0x80 brg.o
 .rodata        0x004c79f0      0x168 vxCunitIntCtrl.o
 .rodata        0x004c7b58      0x124 mpsc.o
 .rodata        0x004c7c7c      0x10c vxMpscIntCtrl.o
 .rodata        0x004c7d88      0x10c sdma.o
 .rodata        0x004c7e94      0x140 vxSdmaIntCtrl.o
 *fill*         0x004c7fd4        0xc
 .rodata        0x004c7fe0       0x20 vxMpscUart.o
 .rodata        0x004c8000       0x94 sysRamDrv.o
 .rodata        0x004c8094      0x3dc bFlashDrv.o
 .rodata        0x004c8470      0x13c flashDrv.o
 .rodata        0x004c85ac      0x474 i2cDrv.o
 .rodata        0x004c8a20      0x108 rtc.o
 *fill*         0x004c8b28        0x8
 .rodata        0x004c8b30     0x1380 frcBibShow.o
 .rodata        0x004c9eb0      0x1f8 frcBibDrv.o
 .rodata        0x004ca0a8      0x124 bibSupport.o
 .rodata        0x004ca1cc       0xb4 pciBoot.o
 .rodata        0x004ca280       0x78 regFileBurn.o
 .rodata        0x004ca2f8       0xa0 vpd.o
 *fill*         0x004ca398        0x8
 .rodata        0x004ca3a0    0x14950 tests/testtool.o
 .rodata        0x004decf0       0x50 /usr/local/clas/devel_new/VxWorks55/ppc/target/lib/ppc/PPC604/common/libarch.a(altivecShow.o)
 .rodata        0x004ded40       0x48 /usr/local/clas/devel_new/VxWorks55/ppc/target/lib/ppc/PPC604/common/libarch.a(excArchLib.o)
 .rodata        0x004ded88      0x508 /usr/local/clas/devel_new/VxWorks55/ppc/target/lib/ppc/PPC604/common/libarch.a(excArchShow.o)
 .rodata        0x004df290       0x48 /usr/local/clas/devel_new/VxWorks55/ppc/target/lib/ppc/PPC604/common/libarch.a(trcLib.o)
 *fill*         0x004df2d8        0x8
 .rodata        0x004df2e0       0x40 /usr/local/clas/devel_new/VxWorks55/ppc/target/lib/ppc/PPC604/common/libarch.a(vxLib.o)
 .rodata        0x004df320       0x30 /usr/local/clas/devel_new/VxWorks55/ppc/target/lib/ppc/PPC604/common/libdrv.a(if_loop.o)
 .rodata        0x004df350       0x3c /usr/local/clas/devel_new/VxWorks55/ppc/target/lib/ppc/PPC604/common/libnet.a(if.o)
 .rodata        0x004df38c      0x2fc /usr/local/clas/devel_new/VxWorks55/ppc/target/lib/ppc/PPC604/common/libnet.a(if_ether.o)
 .rodata        0x004df688       0x54 /usr/local/clas/devel_new/VxWorks55/ppc/target/lib/ppc/PPC604/common/libnet.a(if_subr.o)
 .rodata        0x004df6dc       0x54 /usr/local/clas/devel_new/VxWorks55/ppc/target/lib/ppc/PPC604/common/libnet.a(in.o)
 .rodata        0x004df730      0x120 /usr/local/clas/devel_new/VxWorks55/ppc/target/lib/ppc/PPC604/common/libnet.a(ip_input.o)
 .rodata        0x004df850       0xe0 /usr/local/clas/devel_new/VxWorks55/ppc/target/lib/ppc/PPC604/common/libnet.a(ip_output.o)
 .rodata        0x004df930      0x158 /usr/local/clas/devel_new/VxWorks55/ppc/target/lib/ppc/PPC604/common/libnet.a(radix.o)
 .rodata        0x004dfa88       0x94 /usr/local/clas/devel_new/VxWorks55/ppc/target/lib/ppc/PPC604/common/libnet.a(route.o)
 *fill*         0x004dfb1c        0x4
 .rodata        0x004dfb20       0xa0 /usr/local/clas/devel_new/VxWorks55/ppc/target/lib/ppc/PPC604/common/libnet.a(udp_usrreq.o)
 .rodata        0x004dfbc0       0x50 /usr/local/clas/devel_new/VxWorks55/ppc/target/lib/ppc/PPC604/common/libnet.a(uipc_mbuf.o)
 .rodata        0x004dfc10       0x54 /usr/local/clas/devel_new/VxWorks55/ppc/target/lib/ppc/PPC604/common/libnet.a(uipc_sock2.o)
 .rodata        0x004dfc64       0x24 /usr/local/clas/devel_new/VxWorks55/ppc/target/lib/ppc/PPC604/common/libnet.a(unixLib.o)
 *fill*         0x004dfc88        0x8
 .rodata        0x004dfc90      0x220 /usr/local/clas/devel_new/VxWorks55/ppc/target/lib/ppc/PPC604/common/libnet.a(ipProto.o)
 .rodata        0x004dfeb0       0x14 /usr/local/clas/devel_new/VxWorks55/ppc/target/lib/ppc/PPC604/common/libnet.a(bsdSockLib.o)
 .rodata        0x004dfec4       0x84 /usr/local/clas/devel_new/VxWorks55/ppc/target/lib/ppc/PPC604/common/libnet.a(etherMultiLib.o)
 .rodata        0x004dff48      0xb80 /usr/local/clas/devel_new/VxWorks55/ppc/target/lib/ppc/PPC604/common/libnet.a(ftpLib.o)
 .rodata        0x004e0ac8       0x20 /usr/local/clas/devel_new/VxWorks55/ppc/target/lib/ppc/PPC604/common/libnet.a(icmpLib.o)
 .rodata        0x004e0ae8        0x8 /usr/local/clas/devel_new/VxWorks55/ppc/target/lib/ppc/PPC604/common/libnet.a(ifLib.o)
 .rodata        0x004e0af0        0xc /usr/local/clas/devel_new/VxWorks55/ppc/target/lib/ppc/PPC604/common/libnet.a(inetLib.o)
 .rodata        0x004e0afc      0x1c0 /usr/local/clas/devel_new/VxWorks55/ppc/target/lib/ppc/PPC604/common/libnet.a(muxLib.o)
 .rodata        0x004e0cbc      0x158 /usr/local/clas/devel_new/VxWorks55/ppc/target/lib/ppc/PPC604/common/libnet.a(muxTkLib.o)
 .rodata        0x004e0e14       0xa0 /usr/local/clas/devel_new/VxWorks55/ppc/target/lib/ppc/PPC604/common/libnet.a(netLib.o)
 .rodata        0x004e0eb4      0x208 /usr/local/clas/devel_new/VxWorks55/ppc/target/lib/ppc/PPC604/common/libnet.a(pingLib.o)
 .rodata        0x004e10bc       0x2c /usr/local/clas/devel_new/VxWorks55/ppc/target/lib/ppc/PPC604/common/libnet.a(remLib.o)
 .rodata        0x004e10e8       0x78 /usr/local/clas/devel_new/VxWorks55/ppc/target/lib/ppc/PPC604/common/libnet.a(tcpLib.o)
 .rodata        0x004e1160      0x310 /usr/local/clas/devel_new/VxWorks55/ppc/target/lib/ppc/PPC604/common/libnet.a(tftpLib.o)
 .rodata        0x004e1470       0x14 /usr/local/clas/devel_new/VxWorks55/ppc/target/lib/ppc/PPC604/common/libnet.a(in_cksum.o)
 .rodata        0x004e1484        0xc /usr/local/clas/devel_new/VxWorks55/ppc/target/lib/ppc/PPC604/common/libnet.a(in_proto.o)
 .rodata        0x004e1490       0xb0 /usr/local/clas/devel_new/VxWorks55/ppc/target/lib/ppc/PPC604/common/libnet.a(ip_icmp.o)
 .rodata        0x004e1540       0x80 /usr/local/clas/devel_new/VxWorks55/ppc/target/lib/ppc/PPC604/common/libnet.a(raw_ip.o)
 .rodata        0x004e15c0       0x60 /usr/local/clas/devel_new/VxWorks55/ppc/target/lib/ppc/PPC604/common/libnet.a(tcp_input.o)
 .rodata        0x004e1620       0x20 /usr/local/clas/devel_new/VxWorks55/ppc/target/lib/ppc/PPC604/common/libnet.a(tcp_output.o)
 .rodata        0x004e1640        0xc /usr/local/clas/devel_new/VxWorks55/ppc/target/lib/ppc/PPC604/common/libnet.a(tcp_subr.o)
 *fill*         0x004e164c        0x4
 .rodata        0x004e1650       0x80 /usr/local/clas/devel_new/VxWorks55/ppc/target/lib/ppc/PPC604/common/libnet.a(tcp_usrreq.o)
 .rodata        0x004e16d0       0x34 /usr/local/clas/devel_new/VxWorks55/ppc/target/lib/ppc/PPC604/common/libnet.a(uipc_sock.o)
 .rodata        0x004e1704       0x5c /usr/local/clas/devel_new/VxWorks55/ppc/target/lib/ppc/PPC604/common/libnet.a(random.o)
 .rodata        0x004e1760      0x104 /usr/local/clas/devel_new/VxWorks55/ppc/target/lib/ppc/PPC604/common/libos.a(__ctype_tab.o)
 *fill*         0x004e1864        0xc
 .rodata        0x004e1870       0x30 /usr/local/clas/devel_new/VxWorks55/ppc/target/lib/ppc/PPC604/common/libos.a(fabs.o)
 .rodata        0x004e18a0        0xc /usr/local/clas/devel_new/VxWorks55/ppc/target/lib/ppc/PPC604/common/libos.a(perror.o)
 *fill*         0x004e18ac        0x4
 .rodata        0x004e18b0       0x38 /usr/local/clas/devel_new/VxWorks55/ppc/target/lib/ppc/PPC604/common/libos.a(strtod.o)
 .rodata        0x004e18e8       0x10 /usr/local/clas/devel_new/VxWorks55/ppc/target/lib/ppc/PPC604/common/libos.a(strerror.o)
 .rodata        0x004e18f8       0x18 /usr/local/clas/devel_new/VxWorks55/ppc/target/lib/ppc/PPC604/common/libos.a(asctime.o)
 .rodata        0x004e1910      0x1a0 /usr/local/clas/devel_new/VxWorks55/ppc/target/lib/ppc/PPC604/common/libos.a(strftime.o)
 .rodata        0x004e1ab0      0x104 /usr/local/clas/devel_new/VxWorks55/ppc/target/lib/ppc/PPC604/common/libos.a(clockLib.o)
 .rodata        0x004e1bb4       0xa4 /usr/local/clas/devel_new/VxWorks55/ppc/target/lib/ppc/PPC604/common/libos.a(copyright.o)
                0x004e1bb4                copyright_wind_river
 .rodata        0x004e1c58       0x70 /usr/local/clas/devel_new/VxWorks55/ppc/target/lib/ppc/PPC604/common/libos.a(envLib.o)
 .rodata        0x004e1cc8       0x64 /usr/local/clas/devel_new/VxWorks55/ppc/target/lib/ppc/PPC604/common/libos.a(excLib.o)
 *fill*         0x004e1d2c        0x4
 .rodata        0x004e1d30      0x440 /usr/local/clas/devel_new/VxWorks55/ppc/target/lib/ppc/PPC604/common/libos.a(fioLib.o)
 .rodata        0x004e2170        0x4 /usr/local/clas/devel_new/VxWorks55/ppc/target/lib/ppc/PPC604/common/libos.a(ioLib.o)
 .rodata        0x004e2174       0xc0 /usr/local/clas/devel_new/VxWorks55/ppc/target/lib/ppc/PPC604/common/libos.a(logLib.o)
 .rodata        0x004e2234       0x70 /usr/local/clas/devel_new/VxWorks55/ppc/target/lib/ppc/PPC604/common/libos.a(memLib.o)
 .rodata        0x004e22a4        0xc /usr/local/clas/devel_new/VxWorks55/ppc/target/lib/ppc/PPC604/common/libos.a(memPartLib.o)
 .rodata        0x004e22b0       0x18 /usr/local/clas/devel_new/VxWorks55/ppc/target/lib/ppc/PPC604/common/libos.a(pathLib.o)
 *fill*         0x004e22c8        0x8
 .rodata        0x004e22d0       0x80 /usr/local/clas/devel_new/VxWorks55/ppc/target/lib/ppc/PPC604/common/libos.a(pipeDrv.o)
 .rodata        0x004e2350       0xac /usr/local/clas/devel_new/VxWorks55/ppc/target/lib/ppc/PPC604/common/libos.a(selectLib.o)
 *fill*         0x004e23fc        0x4
 .rodata        0x004e2400       0x80 /usr/local/clas/devel_new/VxWorks55/ppc/target/lib/ppc/PPC604/common/libos.a(tyLib.o)
 .rodata        0x004e2480       0x64 /usr/local/clas/devel_new/VxWorks55/ppc/target/lib/ppc/PPC604/common/libos.a(bootElfLib.o)
 *fill*         0x004e24e4        0xc
 .rodata        0x004e24f0      0x210 /usr/local/clas/devel_new/VxWorks55/ppc/target/lib/ppc/PPC604/common/libos.a(bootLib.o)
 .rodata        0x004e2700      0x37c /usr/local/clas/devel_new/VxWorks55/ppc/target/lib/ppc/PPC604/common/libos.a(dcacheCbio.o)
 *fill*         0x004e2a7c        0x4
 .rodata        0x004e2a80      0x5e0 /usr/local/clas/devel_new/VxWorks55/ppc/target/lib/ppc/PPC604/common/libos.a(dosChkLib.o)
 .rodata        0x004e3060      0x2e0 /usr/local/clas/devel_new/VxWorks55/ppc/target/lib/ppc/PPC604/common/libos.a(dosDirOldLib.o)
 .rodata        0x004e3340       0xb0 /usr/local/clas/devel_new/VxWorks55/ppc/target/lib/ppc/PPC604/common/libos.a(dosFsFat.o)
 .rodata        0x004e33f0      0x2d8 /usr/local/clas/devel_new/VxWorks55/ppc/target/lib/ppc/PPC604/common/libos.a(dosFsFmtLib.o)
 .rodata        0x004e36c8      0x908 /usr/local/clas/devel_new/VxWorks55/ppc/target/lib/ppc/PPC604/common/libos.a(dosFsLib.o)
 .rodata        0x004e3fd0      0x400 /usr/local/clas/devel_new/VxWorks55/ppc/target/lib/ppc/PPC604/common/libos.a(dosVDirLib.o)
 .rodata        0x004e43d0       0x34 /usr/local/clas/devel_new/VxWorks55/ppc/target/lib/ppc/PPC604/common/libos.a(print64Lib.o)
 .rodata        0x004e4404      0x134 /usr/local/clas/devel_new/VxWorks55/ppc/target/lib/ppc/PPC604/common/libos.a(locTime.o)
 .rodata        0x004e4538      0x2a4 /usr/local/clas/devel_new/VxWorks55/ppc/target/lib/ppc/PPC604/common/libos.a(cbioLib.o)
 .rodata        0x004e47dc        0x4 /usr/local/clas/devel_new/VxWorks55/ppc/target/lib/ppc/PPC604/common/libos.a(assert.o)
 .rodata        0x004e47e0       0x20 /usr/local/clas/devel_new/VxWorks55/ppc/target/lib/ppc/PPC604/common/libwind.a(kernelLib.o)
 .rodata        0x004e4800      0x234 /usr/local/clas/devel_new/VxWorks55/ppc/target/lib/ppc/PPC604/common/libwind.a(msgQShow.o)
 .rodata        0x004e4a34        0x4 /usr/local/clas/devel_new/VxWorks55/ppc/target/lib/ppc/PPC604/common/libwind.a(taskInfo.o)
 .rodata        0x004e4a38       0x10 /usr/local/clas/devel_new/VxWorks55/ppc/target/lib/ppc/PPC604/common/libwind.a(taskLib.o)
 *fill*         0x004e4a48        0x8
 .rodata        0x004e4a50      0x2a0 /usr/local/clas/devel_new/VxWorks55/ppc/target/lib/ppc/PPC604/common/libwind.a(taskShow.o)
 .rodata        0x004e4cf0       0x2c /usr/local/clas/devel_new/VxWorks55/ppc/target/lib/ppc/PPC604/common/libwind.a(workQLib.o)
 .rodata        0x004e4d1c      0x240 /usr/local/clas/devel_new/VxWorks55/ppc/target/lib/ppc/PPC604/common/libwind.a(eventShow.o)
 *fill*         0x004e4f5c        0x4
 .rodata        0x004e4f60      0x1b0 /usr/local/clas/devel_new/VxWorks55/ppc/target/lib/ppc/PPC604/common/libwindview.a(wvLib.o)
 .rodata        0x004e5110       0x40 /usr/local/clas/devel_new/VxWorks55/ppc/target/lib/ppc/PPC604/common/libwindview.a(evtLogLib.o)
 .rodata        0x004e5150       0x98 /usr/local/clas/devel_new/VxWorks55/ppc/target/lib/ppc/PPC604/common/libarch.a(taskArchLib.o)
 .rodata        0x004e51e8      0x100 /usr/local/clas/devel_new/VxWorks55/ppc/target/lib/ppc/PPC604/common/libgcc.a(_x_gnu__divdi3.o)
 .rodata        0x004e52e8      0x100 /usr/local/clas/devel_new/VxWorks55/ppc/target/lib/ppc/PPC604/common/libgcc.a(_x_gnu__udivdi3.o)
 .rodata        0x004e53e8      0x100 /usr/local/clas/devel_new/VxWorks55/ppc/target/lib/ppc/PPC604/common/libgcc.a(_x_gnu__umoddi3.o)
 *(.rodata.*)
 *(.gnu.linkonce.r*)
 *(.rodata1)
 *(.sdata2)
 *(.sbss2)
 *fill*         0x004e54e8        0x8
                0x004e54f0                .=ALIGN(0x10)
                0x004e54f0                .=ALIGN(0x10)
                0x004e54f0                wrs_kernel_text_end=.
                0x004e54f0                _wrs_kernel_text_end=.
                0x004e54f0                etext=.
                0x004e54f0                _etext=.

.data           0x004e54f0     0x5200
                0x004e54f0                wrs_kernel_data_start=.
                0x004e54f0                _wrs_kernel_data_start=.
 *(.data)
 .data          0x004e54f0      0x280 bootConfig.o
                0x004e55f0                mClBlkConfig
                0x004e5650                clDescTblNumEnt
                0x004e558c                scsiInitialized
                0x004e56a4                sysClDescTblNumEnt
                0x004e5594                bootCmdTaskOptions
                0x004e5600                clDescTbl
                0x004e5664                sysClDescTbl
                0x004e55d0                udpCfgParams
                0x004e56ac                buffer
                0x004e55e0                ipCfgParams
                0x004e5654                sysMclBlkConfig
                0x004e54f0                endDevTbl
                0x004e5598                bootCmdTaskStackSize
                0x004e55dc                icmpCfgParams
                0x004e55a4                tcpCfgParams
                0x004e56a8                frc_end_of_vxworks
                0x004e5538                ipMaxUnits
                0x004e5590                bootCmdTaskPriority
 .data          0x004e5770       0x10 version.o
                0x004e5774                runtimeVersion
                0x004e577c                creationDate
                0x004e5770                runtimeName
                0x004e5778                vxWorksVersion
 .data          0x004e5780      0x244 sysLib.o
                0x004e5780                evtTimeStamp
                0x004e5934                sysCpu
                0x004e593c                sysExcMsg
                0x004e5938                sysBootLine
                0x004e5784                sysBatDesc
                0x004e5804                sysPhysMemDesc
                0x004e5930                sysBus
                0x004e5940                sysProcNum
 .data          0x004e59c4       0x28 itab.o
                0x004e59c4                reginittab
 .data          0x004e59ec       0x18 pciConfigLib.o
                0x004e59fc                frcPciConfigWrite
                0x004e59f0                pciConfigMech
                0x004e59f4                pciMaxBus
                0x004e59ec                pciLibInitStatus
                0x004e59f8                frcPciConfigRead
                0x004e5a00                pciConfigSpcl
 .data          0x004e5a04        0xc pciDevConfig.o
                0x004e5a08                noofgeidevices
                0x004e5a04                nooffeidevices
 .data          0x004e5a10        0x4 pciScan.o
                0x004e5a10                pciDebug
 .data          0x004e5a14       0x40 sysIntCtrl.o
 .data          0x004e5a54        0x4 userRsrvMem.o
 .data          0x004e5a58        0x4 gtCore.o
                0x004e5a58                gtInternalRegBaseAddr
 .data          0x004e5a5c        0x8 gtSram.o
                0x004e5a60                internalSramTopAddr
                0x004e5a5c                nextFreeBlkPtr
 .data          0x004e5a64       0x14 vxGppIntCtrl.o
 .data          0x004e5a78        0x8 vxCntmrIntCtrl.o
 .data          0x004e5a80        0xc vxDmaIntCtrl.o
 .data          0x004e5a8c        0x4 vxWatchDog.o
                0x004e5a8c                preset_val
 .data          0x004e5a90       0x14 vxEthernetIntCtrl.o
 .data          0x004e5aa4       0x48 mgiEnd.obj
                0x004e5aa4                bspEndIntConnect
                0x004e5aac                bspEndIntEnable
                0x004e5ab0                bspEndIntDisable
                0x004e5aa8                bspEndIntDisconnect
 .data          0x004e5aec        0x4 cunit.o
 .data          0x004e5af0        0x8 vxCunitIntCtrl.o
 .data          0x004e5af8        0xc vxMpscIntCtrl.o
 .data          0x004e5b04        0x8 vxSdmaIntCtrl.o
 .data          0x004e5b0c       0x14 vxMpscUart.o
 .data          0x004e5b20       0x98 bFlashDrv.o
                0x004e5b20                am29TopOffset
                0x004e5b6c                am29BotOffset
 .data          0x004e5bb8       0x50 flashDrv.o
                0x004e5bec                flash_write
                0x004e5bf8                FlashCmdS
                0x004e5bf4                flashBlocks
                0x004e5bf0                flash_read
                0x004e5bb8                id
                0x004e5be8                debug_flash_width
                0x004e5c00                FlashCmdE
                0x004e5be0                num_flash_dev
                0x004e5be4                flash_width
 .data          0x004e5c08        0xc i2cDrv.o
                0x004e5c0c                protectBIB
                0x004e5c08                protectMAC
                0x004e5c10                protectPCI
 .data          0x004e5c14      0x960 frcBibShow.o
 .data          0x004e6574       0x10 frcBibDrv.o
                0x004e6574                bibMallocRtn
                0x004e657c                frcBibShowRtn
                0x004e6578                bibFreeRtn
 .data          0x004e6584      0x560 regFileBurn.o
                0x004e6604                bootrom_sramregfile
                0x004e65c4                bootrom_pciregfile
                0x004e6a9c                non_monarchregfile
                0x004e6584                bootrom_userflregfile
                0x004e6a34                monarchregfile
 *fill*         0x004e6ae4        0x4
 .data          0x004e6ae8     0x16dc tests/testtool.o
                0x004e7b20                maxruns
                0x004e7b98                tbStart_lm
                0x004e6c80                global_fstruct
                0x004e7b74                tests_1arg
                0x004e7c50                IntLatencyTotal
                0x004e7c80                testInfo
                0x004e6bd8                paramnames
                0x004e7a44                wordcatarray
                0x004e81bc                frcTestWdInitConnect
                0x004e7b14                maxMove
                0x004e6b88                lx_bindex
                0x004e7c48                mpp24Initialized
                0x004e6b0c                ftestnames
                0x004e7c40                netWorkInitStatus
                0x004e81a8                watchdogFlag
                0x004e7c4c                ioTemp
                0x004e7c44                mpp18Initialized
                0x004e7c78                intConnectSoft
                0x004e6ca8                funcpointer
                0x004e81b4                wdgCnt
                0x004e7c7c                intConnectHard
                0x004e6b38                bindex
                0x004e7c68                tbTempHi
                0x004e6b04                compilername
                0x004e6b00                sysname
                0x004e7be8                sysTimestampResetRtn
                0x004e7a40                inpath
                0x004e7b10                minMove
                0x004e81ac                watchdogAppId
                0x004e7b24                run
                0x004e7b2c                tests_noarg
                0x004e7c60                IntTimeBaseEnd
                0x004e81b0                wdgService
                0x004e77c0                out_pats
                0x004e7b18                tbStart
                0x004e81b8                wdgNMICnt
                0x004e6cd0                in_pats
                0x004e7b1c                totalerrors
                0x004e7c70                tbTempLo
                0x004e81c0                frcTestWdInitDisconnect
                0x004e7b28                runerrors
                0x004e7c58                IntTimeBaseSt
                0x004e6b08                compilerversion
 .data          0x004e81c4        0x4 /usr/local/clas/devel_new/VxWorks55/ppc/target/lib/ppc/PPC604/common/libarch.a(altivecArchLib.o)
                0x004e81c4                _func_altivecProbeRtn
 .data          0x004e81c8       0x28 /usr/local/clas/devel_new/VxWorks55/ppc/target/lib/ppc/PPC604/common/libarch.a(cacheArchLib.o)
                0x004e81c8                cachePpcReadOrigin
                0x004e81e8                _pSysL3CacheInvalEnableFunc
                0x004e81d8                _pSysL2CacheEnable
                0x004e81d4                _pSysL2CacheInvFunc
                0x004e81e0                _pSysL2CacheDisable
                0x004e81ec                _pSysL3CacheFlushDisableFunc
                0x004e81dc                _pSysL2CacheFlush
                0x004e81d0                cacheDToEnable
                0x004e81cc                cacheIToEnable
                0x004e81e4                snoopEnable
 .data          0x004e81f0      0x198 /usr/local/clas/devel_new/VxWorks55/ppc/target/lib/ppc/PPC604/common/libarch.a(excArchLib.o)
                0x004e81f0                _func_excTrapRtn
                0x004e81f4                excExtendedVectors
 .data          0x004e8388      0x100 /usr/local/clas/devel_new/VxWorks55/ppc/target/lib/ppc/PPC604/common/libarch.a(excArchShow.o)
                0x004e8418                fpExcMsgTbl
 .data          0x004e8488        0x4 /usr/local/clas/devel_new/VxWorks55/ppc/target/lib/ppc/PPC604/common/libarch.a(intALib.o)
 .data          0x004e848c       0x20 /usr/local/clas/devel_new/VxWorks55/ppc/target/lib/ppc/PPC604/common/libarch.a(intArchLib.o)
                0x004e848c                _func_intConnectRtn
                0x004e849c                _func_intVecBaseGetRtn
                0x004e84a8                _func_intDisableRtn
                0x004e8498                _func_intVecBaseSetRtn
                0x004e8494                _func_intVecGetRtn
                0x004e8490                _func_intVecSetRtn
                0x004e84a0                _func_intLevelSetRtn
                0x004e84a4                _func_intEnableRtn
 .data          0x004e84ac        0x8 /usr/local/clas/devel_new/VxWorks55/ppc/target/lib/ppc/PPC604/common/libarch.a(mmuArchVars.o)
                0x004e84b0                mmuPpcDEnabled
                0x004e84ac                mmuPpcIEnabled
 .data          0x004e84b4        0x8 /usr/local/clas/devel_new/VxWorks55/ppc/target/lib/ppc/PPC604/common/libarch.a(trcLib.o)
                0x004e84b8                trcScanDepth
                0x004e84b4                trcDefaultArgs
 .data          0x004e84bc        0x4 /usr/local/clas/devel_new/VxWorks55/ppc/target/lib/ppc/PPC604/common/libarch.a(vxALib.o)
 .data          0x004e84c0        0xc /usr/local/clas/devel_new/VxWorks55/ppc/target/lib/ppc/PPC604/common/libarch.a(vxLib.o)
                0x004e84c4                _func_vxMemProbeHook
                0x004e84c0                vxPowMgtEnable
 *fill*         0x004e84cc        0x4
 .data          0x004e84d0      0xcf0 /usr/local/clas/devel_new/VxWorks55/ppc/target/lib/ppc/PPC604/common/libarch.a(pow.o)
 .data          0x004e91c0      0x420 /usr/local/clas/devel_new/VxWorks55/ppc/target/lib/ppc/PPC604/common/libarch.a(sqrt.o)
 .data          0x004e95e0       0xa0 /usr/local/clas/devel_new/VxWorks55/ppc/target/lib/ppc/PPC604/common/libarch.a(trig.o)
 .data          0x004e9680        0x4 /usr/local/clas/devel_new/VxWorks55/ppc/target/lib/ppc/PPC604/common/libarch.a(cacheALib.o)
 .data          0x004e9684        0x4 /usr/local/clas/devel_new/VxWorks55/ppc/target/lib/ppc/PPC604/common/libarch.a(excALib.o)
 .data          0x004e9688        0x8 /usr/local/clas/devel_new/VxWorks55/ppc/target/lib/ppc/PPC604/common/libnet.a(if.o)
 .data          0x004e9690       0x80 /usr/local/clas/devel_new/VxWorks55/ppc/target/lib/ppc/PPC604/common/libnet.a(if_ether.o)
                0x004e9690                llinfo_arp
                0x004e96c8                arpt_keep
                0x004e96d0                arpRxmitTicks
                0x004e96c4                arpt_prune
                0x004e96cc                arpt_down
                0x004e96bc                useloopback
                0x004e96a8                arpintrq
                0x004e96a4                arpinit_done
                0x004e96c0                arp_maxtries
                0x004e96d4                proxyArpHook
 .data          0x004e9710       0x1c /usr/local/clas/devel_new/VxWorks55/ppc/target/lib/ppc/PPC604/common/libnet.a(if_subr.o)
                0x004e971c                ether_ipmulticast_min
                0x004e9714                etherbroadcastaddr
                0x004e9724                ether_ipmulticast_max
 .data          0x004e972c        0xc /usr/local/clas/devel_new/VxWorks55/ppc/target/lib/ppc/PPC604/common/libnet.a(in.o)
                0x004e9730                mCastHashTblSize
                0x004e972c                subnetsarelocal
 .data          0x004e9738       0x44 /usr/local/clas/devel_new/VxWorks55/ppc/target/lib/ppc/PPC604/common/libnet.a(ip_input.o)
                0x004e973c                ip_defttl
                0x004e974c                ip_nhops
                0x004e9744                ipStrongEnded
                0x004e9764                inetctlerrmap
                0x004e9738                proxyBroadcastHook
                0x004e9740                ipfragttl
                0x004e9748                ipqmaxlen
                0x004e9754                input_ipaddr
 .data          0x004e977c        0x2 /usr/local/clas/devel_new/VxWorks55/ppc/target/lib/ppc/PPC604/common/libnet.a(ip_output.o)
 *fill*         0x004e977e        0x2
 .data          0x004e9780       0x14 /usr/local/clas/devel_new/VxWorks55/ppc/target/lib/ppc/PPC604/common/libnet.a(radix.o)
 .data          0x004e9794       0x10 /usr/local/clas/devel_new/VxWorks55/ppc/target/lib/ppc/PPC604/common/libnet.a(route.o)
                0x004e9794                rtmodified
 .data          0x004e97a4       0x2c /usr/local/clas/devel_new/VxWorks55/ppc/target/lib/ppc/PPC604/common/libnet.a(udp_usrreq.o)
                0x004e97c0                udp_ttl
                0x004e97cc                udp_pcbhashsize
                0x004e97c4                udp_sendspace
                0x004e97c8                udp_recvspace
                0x004e97a8                udpDoCkSumRcv
                0x004e97ac                udp_in
                0x004e97a4                udpcksum
                0x004e97bc                udp_last_inpcb
 .data          0x004e97d0        0xc /usr/local/clas/devel_new/VxWorks55/ppc/target/lib/ppc/PPC604/common/libnet.a(uipc_mbuf.o)
                0x004e97d0                _pNetDpool
                0x004e97d4                _pNetSysPool
 .data          0x004e97dc        0xc /usr/local/clas/devel_new/VxWorks55/ppc/target/lib/ppc/PPC604/common/libnet.a(uipc_sock2.o)
                0x004e97e0                sowakeupHook
                0x004e97e4                sb_max
 .data          0x004e97e8        0xc /usr/local/clas/devel_new/VxWorks55/ppc/target/lib/ppc/PPC604/common/libnet.a(unixLib.o)
                0x004e97f0                _panicHook
                0x004e97ec                mutexOptionsUnixLib
 .data          0x004e97f4        0x2 /usr/local/clas/devel_new/VxWorks55/ppc/target/lib/ppc/PPC604/common/libnet.a(ipProto.o)
 *fill*         0x004e97f6        0x2
 .data          0x004e97f8       0x54 /usr/local/clas/devel_new/VxWorks55/ppc/target/lib/ppc/PPC604/common/libnet.a(bsdSockLib.o)
                0x004e97fc                bsdSock43ApiFlag
                0x004e9800                bsdSockFunc
 .data          0x004e984c        0x4 /usr/local/clas/devel_new/VxWorks55/ppc/target/lib/ppc/PPC604/common/libnet.a(etherMultiLib.o)
                0x004e984c                etherMultiDebug
 .data          0x004e9850       0x10 /usr/local/clas/devel_new/VxWorks55/ppc/target/lib/ppc/PPC604/common/libnet.a(ftpLib.o)
                0x004e9850                ftplPasvModeDisable
                0x004e985c                _func_ftpTransientFatal
                0x004e9854                ftplTransientMaxRetryCount
                0x004e9858                ftplTransientRetryInterval
 .data          0x004e9860       0x14 /usr/local/clas/devel_new/VxWorks55/ppc/target/lib/ppc/PPC604/common/libnet.a(hostLib.o)
                0x004e9868                _presolvHostLibGetByName
                0x004e9864                hostInitFlag
                0x004e986c                _presolvHostLibGetByAddr
                0x004e9870                mutexOptionsHostLib
                0x004e9860                hostListSem
 .data          0x004e9874        0x8 /usr/local/clas/devel_new/VxWorks55/ppc/target/lib/ppc/PPC604/common/libnet.a(icmpLib.o)
 .data          0x004e987c        0xc /usr/local/clas/devel_new/VxWorks55/ppc/target/lib/ppc/PPC604/common/libnet.a(muxTkLib.o)
                0x004e9884                muxMaxBinds
                0x004e987c                muxBibLock
                0x004e9880                muxTkDebug
 .data          0x004e9888       0x40 /usr/local/clas/devel_new/VxWorks55/ppc/target/lib/ppc/PPC604/common/libnet.a(netLib.o)
                0x004e98c4                rtNewAddrMsgHook
                0x004e98b0                _igmpLeaveGrpHook
                0x004e98a8                netLibGenInitialized
                0x004e989c                _protoSwIndex
                0x004e98a4                _mCastRouteFwdHook
                0x004e98c0                rtIfaceMsgHook
                0x004e98b8                _mCastRouteCmdHook
                0x004e988c                netTaskPriority
                0x004e9894                netTaskStackSize
                0x004e9898                netLibInitialized
                0x004e98bc                rtMissMsgHook
                0x004e98ac                _igmpJoinGrpHook
                0x004e98b4                _ipFilterHook
                0x004e98a0                _icmpErrorHook
                0x004e9888                netTaskSemId
                0x004e9890                netTaskOptions
 .data          0x004e98c8       0x14 /usr/local/clas/devel_new/VxWorks55/ppc/target/lib/ppc/PPC604/common/libnet.a(pingLib.o)
                0x004e98d0                _pingTxTmo
                0x004e98cc                _pingTxInterval
                0x004e98c8                _pingTxLen
 .data          0x004e98dc        0x8 /usr/local/clas/devel_new/VxWorks55/ppc/target/lib/ppc/PPC604/common/libnet.a(remLib.o)
                0x004e98e0                remStdErrSetupTimeout
                0x004e98dc                remLastResvPort
 .data          0x004e98e4        0xc /usr/local/clas/devel_new/VxWorks55/ppc/target/lib/ppc/PPC604/common/libnet.a(sockLib.o)
                0x004e98e4                pSockFdMap
 .data          0x004e98f0       0x30 /usr/local/clas/devel_new/VxWorks55/ppc/target/lib/ppc/PPC604/common/libnet.a(tcpLib.o)
                0x004e98f0                pTcpstates
                0x004e98f4                tcpstates
 .data          0x004e9920       0xac /usr/local/clas/devel_new/VxWorks55/ppc/target/lib/ppc/PPC604/common/libnet.a(tftpLib.o)
                0x004e9930                tftpTaskPriority
                0x004e9934                tftpTaskOptions
                0x004e992c                tftpReXmit
                0x004e9920                tftpVerbose
                0x004e9928                tftpTimeout
                0x004e9924                tftpTrace
                0x004e9938                tftpTaskStackSize
 .data          0x004e99cc       0x30 /usr/local/clas/devel_new/VxWorks55/ppc/target/lib/ppc/PPC604/common/libnet.a(netBufLib.o)
                0x004e99cc                _pNetBufCollect
                0x004e99f8                _pNetPoolFuncTbl
 .data          0x004e99fc        0x4 /usr/local/clas/devel_new/VxWorks55/ppc/target/lib/ppc/PPC604/common/libnet.a(ifIndexLib.o)
 .data          0x004e9a00        0x8 /usr/local/clas/devel_new/VxWorks55/ppc/target/lib/ppc/PPC604/common/libnet.a(igmp.o)
 .data          0x004e9a08        0x2 /usr/local/clas/devel_new/VxWorks55/ppc/target/lib/ppc/PPC604/common/libnet.a(in_pcb.o)
 *fill*         0x004e9a0a        0x2
 .data          0x004e9a0c       0x2c /usr/local/clas/devel_new/VxWorks55/ppc/target/lib/ppc/PPC604/common/libnet.a(in_proto.o)
                0x004e9a0c                inetdomain
 .data          0x004e9a38       0xcc /usr/local/clas/devel_new/VxWorks55/ppc/target/lib/ppc/PPC604/common/libnet.a(ip_icmp.o)
                0x004e9a48                icmpmaskrepl
                0x004e9a38                icmpmask
 .data          0x004e9b04       0x1c /usr/local/clas/devel_new/VxWorks55/ppc/target/lib/ppc/PPC604/common/libnet.a(raw_ip.o)
                0x004e9b1c                rip_recvspace
                0x004e9b18                rip_sendspace
 .data          0x004e9b20        0x2 /usr/local/clas/devel_new/VxWorks55/ppc/target/lib/ppc/PPC604/common/libnet.a(sys_socket.o)
 *fill*         0x004e9b22        0x2
 .data          0x004e9b24       0x10 /usr/local/clas/devel_new/VxWorks55/ppc/target/lib/ppc/PPC604/common/libnet.a(tcp_input.o)
                0x004e9b24                _landAttackSafe
                0x004e9b28                tcprexmtthresh
                0x004e9b2c                tcp_last_inpcb
 .data          0x004e9b34       0x10 /usr/local/clas/devel_new/VxWorks55/ppc/target/lib/ppc/PPC604/common/libnet.a(tcp_output.o)
                0x004e9b34                tcp_outflags
 .data          0x004e9b44       0x14 /usr/local/clas/devel_new/VxWorks55/ppc/target/lib/ppc/PPC604/common/libnet.a(tcp_subr.o)
                0x004e9b54                pTcpRandHook
                0x004e9b50                tcp_pcbhashsize
                0x004e9b48                tcp_rttdflt
                0x004e9b44                tcp_mssdflt
                0x004e9b4c                tcp_do_rfc1323
 .data          0x004e9b58       0x50 /usr/local/clas/devel_new/VxWorks55/ppc/target/lib/ppc/PPC604/common/libnet.a(tcp_timer.o)
                0x004e9b64                tcp_keepinit
                0x004e9b5c                tcp_keepintvl
                0x004e9b68                tcp_maxpersistidle
                0x004e9b60                tcp_keepcnt
                0x004e9ba4                tcp_totbackoff
                0x004e9b58                tcp_keepidle
                0x004e9b70                tcp_backoff
 .data          0x004e9ba8       0x14 /usr/local/clas/devel_new/VxWorks55/ppc/target/lib/ppc/PPC604/common/libnet.a(tcp_usrreq.o)
                0x004e9ba8                tcpTraceRtn
                0x004e9bac                tcpReportRtn
                0x004e9bb4                tcp_sendspace
                0x004e9bb8                tcp_recvspace
 .data          0x004e9bbc        0x2 /usr/local/clas/devel_new/VxWorks55/ppc/target/lib/ppc/PPC604/common/libnet.a(uipc_sock.o)
 *fill*         0x004e9bbe        0x2
 .data          0x004e9bc0       0xc4 /usr/local/clas/devel_new/VxWorks55/ppc/target/lib/ppc/PPC604/common/libnet.a(random.o)
 .data          0x004e9c84        0x4 /usr/local/clas/devel_new/VxWorks55/ppc/target/lib/ppc/PPC604/common/libos.a(__ctype_tab.o)
                0x004e9c84                __ctype
 .data          0x004e9c88        0xc /usr/local/clas/devel_new/VxWorks55/ppc/target/lib/ppc/PPC604/common/libos.a(stdioLib.o)
                0x004e9c90                fpClassId
 *fill*         0x004e9c94        0x4
 .data          0x004e9c98       0x28 /usr/local/clas/devel_new/VxWorks55/ppc/target/lib/ppc/PPC604/common/libos.a(strtod.o)
 .data          0x004e9cc0       0x80 /usr/local/clas/devel_new/VxWorks55/ppc/target/lib/ppc/PPC604/common/libos.a(fpType.o)
 .data          0x004e9d40       0x14 /usr/local/clas/devel_new/VxWorks55/ppc/target/lib/ppc/PPC604/common/libos.a(cacheLib.o)
                0x004e9d50                cacheMmuAvailable
                0x004e9d4c                cacheDataEnabled
                0x004e9d40                cacheDmaMallocRtn
                0x004e9d48                cacheDataMode
                0x004e9d44                cacheDmaFreeRtn
 .data          0x004e9d54        0x4 /usr/local/clas/devel_new/VxWorks55/ppc/target/lib/ppc/PPC604/common/libos.a(classLib.o)
                0x004e9d54                classClassId
 .data          0x004e9d58       0x14 /usr/local/clas/devel_new/VxWorks55/ppc/target/lib/ppc/PPC604/common/libos.a(clockLib.o)
 .data          0x004e9d6c       0x10 /usr/local/clas/devel_new/VxWorks55/ppc/target/lib/ppc/PPC604/common/libos.a(excLib.o)
                0x004e9d70                excTaskOptions
                0x004e9d74                excTaskStackSize
                0x004e9d6c                excTaskPriority
 .data          0x004e9d7c       0x24 /usr/local/clas/devel_new/VxWorks55/ppc/target/lib/ppc/PPC604/common/libos.a(fioLib.o)
                0x004e9d7c                fieldSzIncludeSign
 .data          0x004e9da0       0xa0 /usr/local/clas/devel_new/VxWorks55/ppc/target/lib/ppc/PPC604/common/libos.a(funcBind.o)
                0x004e9ddc                cacheLib
                0x004e9e10                cacheNullFuncs
                0x004e9db4                evtAction
                0x004e9dac                m2If64BitCounters
                0x004e9da8                fastUdpInitialized
                0x004e9db0                _procNumWasSet
                0x004e9e30                cacheUserFuncs
                0x004e9e20                cacheDmaFuncs
                0x004e9db8                vmLibInfo
                0x004e9da4                ftplDebug
                0x004e9da0                _dbgDsmInstRtn
 .data          0x004e9e40        0x8 /usr/local/clas/devel_new/VxWorks55/ppc/target/lib/ppc/PPC604/common/libos.a(hashLib.o)
                0x004e9e44                hashClassId
 .data          0x004e9e48        0x4 /usr/local/clas/devel_new/VxWorks55/ppc/target/lib/ppc/PPC604/common/libos.a(intLib.o)
                0x004e9e48                intCnt
 .data          0x004e9e4c        0x4 /usr/local/clas/devel_new/VxWorks55/ppc/target/lib/ppc/PPC604/common/libos.a(ioLib.o)
                0x004e9e4c                ioMaxLinkLevels
 .data          0x004e9e50       0x10 /usr/local/clas/devel_new/VxWorks55/ppc/target/lib/ppc/PPC604/common/libos.a(iosLib.o)
                0x004e9e58                iosFdNewHookRtn
                0x004e9e5c                iosFdFreeHookRtn
                0x004e9e54                iosLibInitialized
                0x004e9e50                mutexOptionsIosLib
 .data          0x004e9e60       0x28 /usr/local/clas/devel_new/VxWorks55/ppc/target/lib/ppc/PPC604/common/libos.a(logLib.o)
                0x004e9e68                logTaskOptions
                0x004e9e60                logTaskId
                0x004e9e6c                logTaskStackSize
                0x004e9e64                logTaskPriority
                0x004e9e74                logFdFromRlogin
                0x004e9e70                mutexOptionsLogLib
 .data          0x004e9e88        0xc /usr/local/clas/devel_new/VxWorks55/ppc/target/lib/ppc/PPC604/common/libos.a(memLib.o)
                0x004e9e88                mutexOptionsMemLib
 .data          0x004e9e94       0x2c /usr/local/clas/devel_new/VxWorks55/ppc/target/lib/ppc/PPC604/common/libos.a(memPartLib.o)
                0x004e9eb8                memPartSemInitRtn
                0x004e9eb0                memPartBlockErrorRtn
                0x004e9e9c                smMemPartAllocRtn
                0x004e9ea8                memSysPartId
                0x004e9eac                memDefaultAlignment
                0x004e9ea0                memPartClassId
                0x004e9eb4                memPartAllocErrorRtn
                0x004e9ea4                memPartInstClassId
                0x004e9e94                smMemPartAddToPoolRtn
                0x004e9e98                smMemPartFreeRtn
                0x004e9ebc                memPartOptionsDefault
 .data          0x004e9ec0        0x8 /usr/local/clas/devel_new/VxWorks55/ppc/target/lib/ppc/PPC604/common/libos.a(pipeDrv.o)
                0x004e9ec0                pipeMsgQOptions
 .data          0x004e9ec8        0x4 /usr/local/clas/devel_new/VxWorks55/ppc/target/lib/ppc/PPC604/common/libos.a(selectLib.o)
                0x004e9ec8                mutexOptionsSelectLib
 .data          0x004e9ecc       0x24 /usr/local/clas/devel_new/VxWorks55/ppc/target/lib/ppc/PPC604/common/libos.a(tyLib.o)
                0x004e9ecd                tyDeleteLineChar
                0x004e9ece                tyEofChar
                0x004e9ed0                mutexOptionsTyLib
                0x004e9ecc                tyBackspaceChar
 .data          0x004e9ef0        0x4 /usr/local/clas/devel_new/VxWorks55/ppc/target/lib/ppc/PPC604/common/libos.a(bootLoadLib.o)
                0x004e9ef0                bootLoadRoutine
 .data          0x004e9ef4       0x10 /usr/local/clas/devel_new/VxWorks55/ppc/target/lib/ppc/PPC604/common/libos.a(usrDosFsOld.o)
                0x004e9f00                dosFsCacheSizeDefault
 .data          0x004e9f04      0x11c /usr/local/clas/devel_new/VxWorks55/ppc/target/lib/ppc/PPC604/common/libos.a(bootLib.o)
 .data          0x004ea020       0x40 /usr/local/clas/devel_new/VxWorks55/ppc/target/lib/ppc/PPC604/common/libos.a(qFifoLib.o)
                0x004ea05c                qFifoClassId
 .data          0x004ea060       0x40 /usr/local/clas/devel_new/VxWorks55/ppc/target/lib/ppc/PPC604/common/libos.a(qPriBMapLib.o)
                0x004ea09c                qPriBMapClassId
 .data          0x004ea0a0       0x80 /usr/local/clas/devel_new/VxWorks55/ppc/target/lib/ppc/PPC604/common/libos.a(qPriListLib.o)
                0x004ea11c                qPriListFromTailClassId
                0x004ea118                qPriListClassId
 .data          0x004ea120       0x54 /usr/local/clas/devel_new/VxWorks55/ppc/target/lib/ppc/PPC604/common/libos.a(dcacheCbio.o)
                0x004ea13c                dcacheUpdTaskOptions
                0x004ea128                dcacheUpdTaskStack
                0x004ea120                dcacheUpdTaskId
                0x004ea124                dcacheUpdTaskPriority
 .data          0x004ea174        0x8 /usr/local/clas/devel_new/VxWorks55/ppc/target/lib/ppc/PPC604/common/libos.a(dosChkLib.o)
                0x004ea178                dosChkMinDate
                0x004ea174                dosChkDebug
 .data          0x004ea17c        0x4 /usr/local/clas/devel_new/VxWorks55/ppc/target/lib/ppc/PPC604/common/libos.a(dosDirOldLib.o)
                0x004ea17c                dosDirOldDebug
 .data          0x004ea180        0x8 /usr/local/clas/devel_new/VxWorks55/ppc/target/lib/ppc/PPC604/common/libos.a(dosFsFat.o)
                0x004ea180                fat16Debug
                0x004ea184                fatClugFac
 .data          0x004ea188       0x70 /usr/local/clas/devel_new/VxWorks55/ppc/target/lib/ppc/PPC604/common/libos.a(dosFsLib.o)
                0x004ea1c0                dosDirHdlrsList
                0x004ea188                dosFsDrvNum
                0x004ea18c                dosFsDebug
                0x004ea1f0                dosFsChkRtn
                0x004ea1f4                dosFsVolFormatRtn
                0x004ea190                dosFatHdlrsList
 .data          0x004ea1f8        0x4 /usr/local/clas/devel_new/VxWorks55/ppc/target/lib/ppc/PPC604/common/libos.a(dosVDirLib.o)
                0x004ea1f8                dosVDirDebug
 .data          0x004ea1fc       0x18 /usr/local/clas/devel_new/VxWorks55/ppc/target/lib/ppc/PPC604/common/libos.a(print64Lib.o)
 .data          0x004ea214       0xc4 /usr/local/clas/devel_new/VxWorks55/ppc/target/lib/ppc/PPC604/common/libos.a(locTime.o)
                0x004ea2d4                __loctime
 .data          0x004ea2d8       0x30 /usr/local/clas/devel_new/VxWorks55/ppc/target/lib/ppc/PPC604/common/libos.a(gmtime.o)
 .data          0x004ea308       0x1c /usr/local/clas/devel_new/VxWorks55/ppc/target/lib/ppc/PPC604/common/libos.a(cbioLib.o)
                0x004ea310                cbioMutexSemOptions
                0x004ea30c                cbioClassId
 .data          0x004ea324        0x8 /usr/local/clas/devel_new/VxWorks55/ppc/target/lib/ppc/PPC604/common/libos.a(sigLib.o)
 .data          0x004ea32c       0x10 /usr/local/clas/devel_new/VxWorks55/ppc/target/lib/ppc/PPC604/common/libwind.a(kernelLib.o)
                0x004ea32c                activeQHead
 .data          0x004ea33c        0x8 /usr/local/clas/devel_new/VxWorks55/ppc/target/lib/ppc/PPC604/common/libwind.a(msgQLib.o)
                0x004ea340                msgQInstClassId
                0x004ea33c                msgQClassId
 .data          0x004ea344       0xa8 /usr/local/clas/devel_new/VxWorks55/ppc/target/lib/ppc/PPC604/common/libwind.a(semLib.o)
                0x004ea36c                semTakeTbl
                0x004ea3cc                semFlushDeferTbl
                0x004ea34c                semGiveTbl
                0x004ea344                semClassId
                0x004ea3ac                semGiveDeferTbl
                0x004ea38c                semFlushTbl
                0x004ea348                semInstClassId
 .data          0x004ea3ec       0x38 /usr/local/clas/devel_new/VxWorks55/ppc/target/lib/ppc/PPC604/common/libwind.a(taskLib.o)
                0x004ea3fc                restartTaskStackSize
                0x004ea3ec                taskClassId
                0x004ea3f0                namelessPrefix
                0x004ea400                restartTaskOptions
                0x004ea410                pTaskLastAltivecTcb
                0x004ea404                taskPriRangeCheck
                0x004ea3f8                restartTaskPriority
                0x004ea414                taskInstClassId
                0x004ea3f4                restartTaskName
                0x004ea408                pTaskLastFpTcb
                0x004ea40c                pTaskLastDspTcb
 .data          0x004ea424       0xa8 /usr/local/clas/devel_new/VxWorks55/ppc/target/lib/ppc/PPC604/common/libwind.a(taskShow.o)
                0x004ea424                taskRegsFmt
 .data          0x004ea4cc        0x8 /usr/local/clas/devel_new/VxWorks55/ppc/target/lib/ppc/PPC604/common/libwind.a(wdLib.o)
                0x004ea4d0                wdInstClassId
                0x004ea4cc                wdClassId
 .data          0x004ea4d4        0x4 /usr/local/clas/devel_new/VxWorks55/ppc/target/lib/ppc/PPC604/common/libwind.a(workQLib.o)
 .data          0x004ea4d8       0x20 /usr/local/clas/devel_new/VxWorks55/ppc/target/lib/ppc/PPC604/common/libwind.a(semEvLib.o)
                0x004ea4d8                semEvIsFreeTbl
 .data          0x004ea4f8       0x18 /usr/local/clas/devel_new/VxWorks55/ppc/target/lib/ppc/PPC604/common/libwindview.a(wvLib.o)
                0x004ea50c                wvEvtBufferFullNotify
                0x004ea4fc                wvUploadTaskStackSize
                0x004ea500                wvUploadTaskOptions
                0x004ea504                wvUploadMaxAttempts
                0x004ea4f8                wvUploadTaskPriority
                0x004ea508                wvUploadRetryBackoff
 .data          0x004ea510       0x50 /usr/local/clas/devel_new/VxWorks55/ppc/target/lib/ppc/PPC604/common/libarch.a(sigCtxLib.o)
                0x004ea510                _sigfaulttable
 .data          0x004ea560      0x13c /usr/local/clas/devel_new/VxWorks55/ppc/target/lib/ppc/PPC604/common/libarch.a(taskArchLib.o)
                0x004ea698                taskMsrDefault
                0x004ea560                taskRegName
 .data          0x004ea69c        0x1 /usr/local/clas/devel_new/VxWorks55/ppc/target/lib/ppc/PPC604/common/libgcc.a(_x_gnu__ashldi3.o)
                0x004ea69c                ___x_gnu__ashldi3_o
 .data          0x004ea69d        0x1 /usr/local/clas/devel_new/VxWorks55/ppc/target/lib/ppc/PPC604/common/libgcc.a(_x_gnu__ashrdi3.o)
                0x004ea69d                ___x_gnu__ashrdi3_o
 .data          0x004ea69e        0x1 /usr/local/clas/devel_new/VxWorks55/ppc/target/lib/ppc/PPC604/common/libgcc.a(_x_gnu__divdi3.o)
                0x004ea69e                ___x_gnu__divdi3_o
 .data          0x004ea69f        0x1 /usr/local/clas/devel_new/VxWorks55/ppc/target/lib/ppc/PPC604/common/libgcc.a(_x_gnu__udivdi3.o)
                0x004ea69f                ___x_gnu__udivdi3_o
 .data          0x004ea6a0        0x1 /usr/local/clas/devel_new/VxWorks55/ppc/target/lib/ppc/PPC604/common/libgcc.a(_x_gnu__umoddi3.o)
                0x004ea6a0                ___x_gnu__umoddi3_o
 *fill*         0x004ea6a1        0x3
 .data          0x004ea6a4       0x40 /usr/local/clas/devel_new/VxWorks55/ppc/target/lib/ppc/PPC604/common/libos.a(qJobLib.o)
                0x004ea6e0                qJobClassId
 *(.data.*)
 *(.gnu.linkonce.d*)
 *(.data1)
 *(.eh_frame)
 *(.gcc_except_table)
 *crtbegin.o(.ctors)
 EXCLUDE_FILE ( *crtend.o)*(.ctors)
 *(SORT(.ctors.*))
 *(.ctors)
 *crtbegin.o(.dtors)
 EXCLUDE_FILE ( *crtend.o)*(.dtors)
 *(SORT(.dtors.*))
 *(.dtors)
                0x004f26e0                _gp=(ALIGN(0x10)+0x7ff0)
 *(.got.plt)
 *(.got)
 *(.dynamic)
 *(.got2)
 *(.sdata)
 *(.sdata.*)
 *(.lit8)
 *(.lit4)
 *fill*         0x004ea6e4        0xc
                0x004ea6f0                .=ALIGN(0x10)
                0x004ea6f0                .=ALIGN(0x10)
                0x004ea6f0                edata=.
                0x004ea6f0                _edata=.
                0x004ea6f0                wrs_kernel_data_end=.
                0x004ea6f0                _wrs_kernel_data_end=.

.bss            0x004ea6f0    0x69c10
                0x004ea6f0                wrs_kernel_bss_start=.
                0x004ea6f0                _wrs_kernel_bss_start=.
 *(.sbss)
 *(.scommon)
 *(.dynbss)
 *(.bss)
 .bss           0x004ea6f0        0x4 bootConfig.o
 .bss           0x004ea6f4      0x1a4 sysLib.o
 .bss           0x004ea898      0x118 pciDevConfig.o
 .bss           0x004ea9b0      0x408 gtIntControl.o
 .bss           0x004eadb8        0x8 userRsrvMem.o
 .bss           0x004eadc0      0x200 vxGppIntCtrl.o
 .bss           0x004eafc0       0x50 vxCntmrIntCtrl.o
 .bss           0x004eb010      0x240 vxDmaIntCtrl.o
 .bss           0x004eb250      0x800 vxEthernetIntCtrl.o
 .bss           0x004eba50       0x60 vxCunitIntCtrl.o
 .bss           0x004ebab0      0x400 vxMpscIntCtrl.o
 .bss           0x004ebeb0       0x80 vxSdmaIntCtrl.o
 .bss           0x004ebf30        0x4 bFlashDrv.o
 .bss           0x004ebf34        0x4 frcBibShow.o
 .bss           0x004ebf38      0x1b0 tests/testtool.o
 .bss           0x004ec0e8        0x4 /usr/local/clas/devel_new/VxWorks55/ppc/target/lib/ppc/PPC604/common/libarch.a(altivecLib.o)
 .bss           0x004ec0ec        0xc /usr/local/clas/devel_new/VxWorks55/ppc/target/lib/ppc/PPC604/common/libarch.a(excArchLib.o)
 .bss           0x004ec0f8        0x8 /usr/local/clas/devel_new/VxWorks55/ppc/target/lib/ppc/PPC604/common/libnet.a(if.o)
 .bss           0x004ec100       0x1c /usr/local/clas/devel_new/VxWorks55/ppc/target/lib/ppc/PPC604/common/libnet.a(if_ether.o)
 .bss           0x004ec11c       0x10 /usr/local/clas/devel_new/VxWorks55/ppc/target/lib/ppc/PPC604/common/libnet.a(if_subr.o)
 .bss           0x004ec12c        0x4 /usr/local/clas/devel_new/VxWorks55/ppc/target/lib/ppc/PPC604/common/libnet.a(in.o)
 .bss           0x004ec130        0x4 /usr/local/clas/devel_new/VxWorks55/ppc/target/lib/ppc/PPC604/common/libnet.a(ip_input.o)
 .bss           0x004ec134        0x4 /usr/local/clas/devel_new/VxWorks55/ppc/target/lib/ppc/PPC604/common/libnet.a(ip_output.o)
 .bss           0x004ec138       0x10 /usr/local/clas/devel_new/VxWorks55/ppc/target/lib/ppc/PPC604/common/libnet.a(radix.o)
 .bss           0x004ec148       0x14 /usr/local/clas/devel_new/VxWorks55/ppc/target/lib/ppc/PPC604/common/libnet.a(route.o)
 .bss           0x004ec15c        0x4 /usr/local/clas/devel_new/VxWorks55/ppc/target/lib/ppc/PPC604/common/libnet.a(udp_usrreq.o)
 .bss           0x004ec160        0x8 /usr/local/clas/devel_new/VxWorks55/ppc/target/lib/ppc/PPC604/common/libnet.a(uipc_dom.o)
 .bss           0x004ec168       0xb8 /usr/local/clas/devel_new/VxWorks55/ppc/target/lib/ppc/PPC604/common/libnet.a(uipc_mbuf.o)
 .bss           0x004ec220        0x4 /usr/local/clas/devel_new/VxWorks55/ppc/target/lib/ppc/PPC604/common/libnet.a(uipc_sock2.o)
 .bss           0x004ec224        0x4 /usr/local/clas/devel_new/VxWorks55/ppc/target/lib/ppc/PPC604/common/libnet.a(unixLib.o)
 .bss           0x004ec228        0x4 /usr/local/clas/devel_new/VxWorks55/ppc/target/lib/ppc/PPC604/common/libnet.a(ipProto.o)
 .bss           0x004ec22c       0x14 /usr/local/clas/devel_new/VxWorks55/ppc/target/lib/ppc/PPC604/common/libnet.a(bsdSockLib.o)
 .bss           0x004ec240      0x100 /usr/local/clas/devel_new/VxWorks55/ppc/target/lib/ppc/PPC604/common/libnet.a(ftpLib.o)
 .bss           0x004ec340       0x80 /usr/local/clas/devel_new/VxWorks55/ppc/target/lib/ppc/PPC604/common/libnet.a(hostLib.o)
 .bss           0x004ec3c0       0x30 /usr/local/clas/devel_new/VxWorks55/ppc/target/lib/ppc/PPC604/common/libnet.a(icmpLib.o)
 .bss           0x004ec3f0      0x79c /usr/local/clas/devel_new/VxWorks55/ppc/target/lib/ppc/PPC604/common/libnet.a(muxLib.o)
 .bss           0x004ecb8c        0x4 /usr/local/clas/devel_new/VxWorks55/ppc/target/lib/ppc/PPC604/common/libnet.a(muxTkLib.o)
 .bss           0x004ecb90       0x2c /usr/local/clas/devel_new/VxWorks55/ppc/target/lib/ppc/PPC604/common/libnet.a(netLib.o)
 .bss           0x004ecbbc       0xc8 /usr/local/clas/devel_new/VxWorks55/ppc/target/lib/ppc/PPC604/common/libnet.a(remLib.o)
 .bss           0x004ecc84        0x4 /usr/local/clas/devel_new/VxWorks55/ppc/target/lib/ppc/PPC604/common/libnet.a(ifIndexLib.o)
 .bss           0x004ecc88       0x28 /usr/local/clas/devel_new/VxWorks55/ppc/target/lib/ppc/PPC604/common/libnet.a(igmp.o)
 .bss           0x004eccb0        0x4 /usr/local/clas/devel_new/VxWorks55/ppc/target/lib/ppc/PPC604/common/libnet.a(in_pcb.o)
 .bss           0x004eccb4        0x4 /usr/local/clas/devel_new/VxWorks55/ppc/target/lib/ppc/PPC604/common/libnet.a(ip_icmp.o)
 .bss           0x004eccb8       0x18 /usr/local/clas/devel_new/VxWorks55/ppc/target/lib/ppc/PPC604/common/libnet.a(raw_ip.o)
 .bss           0x004eccd0        0x4 /usr/local/clas/devel_new/VxWorks55/ppc/target/lib/ppc/PPC604/common/libnet.a(sys_socket.o)
 .bss           0x004eccd4        0x4 /usr/local/clas/devel_new/VxWorks55/ppc/target/lib/ppc/PPC604/common/libnet.a(tcp_input.o)
 .bss           0x004eccd8        0x4 /usr/local/clas/devel_new/VxWorks55/ppc/target/lib/ppc/PPC604/common/libnet.a(tcp_output.o)
 .bss           0x004eccdc        0x4 /usr/local/clas/devel_new/VxWorks55/ppc/target/lib/ppc/PPC604/common/libnet.a(tcp_subr.o)
 .bss           0x004ecce0        0x4 /usr/local/clas/devel_new/VxWorks55/ppc/target/lib/ppc/PPC604/common/libnet.a(tcp_timer.o)
 .bss           0x004ecce4        0x4 /usr/local/clas/devel_new/VxWorks55/ppc/target/lib/ppc/PPC604/common/libnet.a(tcp_usrreq.o)
 .bss           0x004ecce8        0x4 /usr/local/clas/devel_new/VxWorks55/ppc/target/lib/ppc/PPC604/common/libnet.a(uipc_sock.o)
 .bss           0x004eccec       0x34 /usr/local/clas/devel_new/VxWorks55/ppc/target/lib/ppc/PPC604/common/libos.a(stdioLib.o)
 .bss           0x004ecd20       0x64 /usr/local/clas/devel_new/VxWorks55/ppc/target/lib/ppc/PPC604/common/libos.a(strerror.o)
 .bss           0x004ecd84       0x1c /usr/local/clas/devel_new/VxWorks55/ppc/target/lib/ppc/PPC604/common/libos.a(asctime.o)
 .bss           0x004ecda0       0x24 /usr/local/clas/devel_new/VxWorks55/ppc/target/lib/ppc/PPC604/common/libos.a(localtime.o)
 .bss           0x004ecdc4       0x34 /usr/local/clas/devel_new/VxWorks55/ppc/target/lib/ppc/PPC604/common/libos.a(classLib.o)
 .bss           0x004ecdf8        0x8 /usr/local/clas/devel_new/VxWorks55/ppc/target/lib/ppc/PPC604/common/libos.a(envLib.o)
 .bss           0x004ece00        0x4 /usr/local/clas/devel_new/VxWorks55/ppc/target/lib/ppc/PPC604/common/libos.a(excLib.o)
 .bss           0x004ece04        0x8 /usr/local/clas/devel_new/VxWorks55/ppc/target/lib/ppc/PPC604/common/libos.a(fioLib.o)
 .bss           0x004ece0c       0x34 /usr/local/clas/devel_new/VxWorks55/ppc/target/lib/ppc/PPC604/common/libos.a(hashLib.o)
 .bss           0x004ece40        0xc /usr/local/clas/devel_new/VxWorks55/ppc/target/lib/ppc/PPC604/common/libos.a(ioLib.o)
 .bss           0x004ece4c       0x38 /usr/local/clas/devel_new/VxWorks55/ppc/target/lib/ppc/PPC604/common/libos.a(iosLib.o)
 .bss           0x004ece84       0x40 /usr/local/clas/devel_new/VxWorks55/ppc/target/lib/ppc/PPC604/common/libos.a(logLib.o)
 .bss           0x004ecec4        0x4 /usr/local/clas/devel_new/VxWorks55/ppc/target/lib/ppc/PPC604/common/libos.a(memLib.o)
 .bss           0x004ecec8       0xbc /usr/local/clas/devel_new/VxWorks55/ppc/target/lib/ppc/PPC604/common/libos.a(memPartLib.o)
 .bss           0x004ecf84        0xc /usr/local/clas/devel_new/VxWorks55/ppc/target/lib/ppc/PPC604/common/libos.a(rebootLib.o)
 .bss           0x004ecf90        0x4 /usr/local/clas/devel_new/VxWorks55/ppc/target/lib/ppc/PPC604/common/libos.a(ttyDrv.o)
 .bss           0x004ecf94        0x4 /usr/local/clas/devel_new/VxWorks55/ppc/target/lib/ppc/PPC604/common/libos.a(bootElfLib.o)
 .bss           0x004ecf98       0x1c /usr/local/clas/devel_new/VxWorks55/ppc/target/lib/ppc/PPC604/common/libos.a(ctime.o)
 .bss           0x004ecfb4       0x24 /usr/local/clas/devel_new/VxWorks55/ppc/target/lib/ppc/PPC604/common/libos.a(gmtime.o)
 .bss           0x004ecfd8        0x4 /usr/local/clas/devel_new/VxWorks55/ppc/target/lib/ppc/PPC604/common/libos.a(cbioLib.o)
 .bss           0x004ecfdc        0x8 /usr/local/clas/devel_new/VxWorks55/ppc/target/lib/ppc/PPC604/common/libos.a(ldiv.o)
 .bss           0x004ecfe4       0x6c /usr/local/clas/devel_new/VxWorks55/ppc/target/lib/ppc/PPC604/common/libwind.a(msgQLib.o)
 .bss           0x004ed050        0x4 /usr/local/clas/devel_new/VxWorks55/ppc/target/lib/ppc/PPC604/common/libwind.a(semBLib.o)
 .bss           0x004ed054        0x4 /usr/local/clas/devel_new/VxWorks55/ppc/target/lib/ppc/PPC604/common/libwind.a(semCLib.o)
 .bss           0x004ed058        0x4 /usr/local/clas/devel_new/VxWorks55/ppc/target/lib/ppc/PPC604/common/libwind.a(semLib.o)
 .bss           0x004ed05c        0x4 /usr/local/clas/devel_new/VxWorks55/ppc/target/lib/ppc/PPC604/common/libwind.a(semMLib.o)
 .bss           0x004ed060        0x4 /usr/local/clas/devel_new/VxWorks55/ppc/target/lib/ppc/PPC604/common/libwind.a(taskInfo.o)
 .bss           0x004ed064       0x70 /usr/local/clas/devel_new/VxWorks55/ppc/target/lib/ppc/PPC604/common/libwind.a(taskLib.o)
 .bss           0x004ed0d4       0x6c /usr/local/clas/devel_new/VxWorks55/ppc/target/lib/ppc/PPC604/common/libwind.a(wdLib.o)
 .bss           0x004ed140        0x8 /usr/local/clas/devel_new/VxWorks55/ppc/target/lib/ppc/PPC604/common/libwindview.a(wvLib.o)
 *(COMMON)
 COMMON         0x004ed148      0xde0 bootConfig.o
                                  0x0 (size before relaxing)
                0x004ed148                consoleName
                0x004ed15c                consoleFd
                0x004ed160                frc_vxworks_size
                0x004ed164                sysSymTbl
                0x004ed168                sdramSize
                0x004ed16c                ipDrvCtrl
                0x004ed2f4                cookieTbl
                0x004ed4f4                sysStartType
                0x004ed4f8                pCookie
                0x004ed4fc                endM2Tbl
                0x004ed700                statSymTbl
                0x004ed704                readyQBMap
 COMMON         0x004edf28      0x14c sysLib.o
                                  0x0 (size before relaxing)
                0x004edf28                frcSysBoardId
                0x004edf2c                sysFlags
                0x004edf30                sysBootFile
                0x004edfd0                sysPhysMemDescNumEnt
                0x004edfd4                sysBootHost
 COMMON         0x004ee074        0xc pciConfigLib.o
                                  0x0 (size before relaxing)
                0x004ee074                pciConfigAddr2
                0x004ee078                pciConfigAddr0
                0x004ee07c                pciConfigAddr1
 COMMON         0x004ee080      0x17c pciDevConfig.o
                                  0x0 (size before relaxing)
                0x004ee080                busIoMemRanges
                0x004ee1c0                geidevices
                0x004ee1d4                feidevices
 COMMON         0x004ee1fc        0x4 pciScan.o
                                  0x0 (size before relaxing)
                0x004ee1fc                pciActive
 COMMON         0x004ee200    0x12100 bFlashDrv.o
                                  0x0 (size before relaxing)
                0x004ee200                flashBuf
                0x004fe200                flashBufNV
 COMMON         0x00500300    0x50044 flashDrv.o
                                  0x0 (size before relaxing)
                0x00500300                flash_index
                0x00500304                uflashBuf
                0x00540324                flocalBuf
                0x00540344                usrflashBuf
 COMMON         0x00550344       0x20 rtc.o
                                  0x0 (size before relaxing)
                0x00550344                hourr
                0x00550348                dayr
                0x0055034c                secr
                0x00550350                monr
                0x00550354                yearr
                0x00550358                dater
                0x0055035c                minr
                0x00550360                cenr
 COMMON         0x00550364        0x4 frcBibShow.o
                                  0x0 (size before relaxing)
                0x00550364                frcModNumBase
 COMMON         0x00550368        0x4 frcBibDrv.o
                                  0x0 (size before relaxing)
                0x00550368                pIntf
 *fill*         0x0055036c        0x4
 COMMON         0x00550370     0x24c8 tests/testtool.o
                                  0x0 (size before relaxing)
                0x00550370                global_emfloatstruct
                0x00550388                use_result_dummy
                0x0055038c                global_ofile_name
                0x005503c8                tot_out_error
                0x00550418                average_error
                0x00550420                global_ofile
                0x00550428                mid_wt_cum_change
                0x00550ce8                mid_error
                0x00550d28                global_lustruct
                0x00550d40                LUtempvv
                0x00550d44                numpats
                0x00550d48                avg_out_error
                0x00550d98                worst_error
                0x00550da0                global_numsortstruct
                0x00550db8                s1
                0x00550dc0                global_bitopstruct
                0x00550dd8                learned
                0x00550ddc                iteration_count
                0x00550de0                mid_wt_change
                0x005516a0                numpasses
                0x005516a4                mem_array
                0x00551748                mid_out
                0x00551788                global_huffstruct
                0x005517a0                mid_wts
                0x00552060                global_min_seconds
                0x00552068                out_wt_cum_change
                0x00552268                start_addr
                0x0055226c                global_allstats
                0x00552270                global_strsortstruct
                0x00552288                global_min_ticks
                0x0055228c                write_to_file
                0x00552290                memsplit
                0x00552294                end_addr
                0x00552298                out_out
                0x005522d8                bp2
                0x005522dc                count
                0x005522e0                silent_test
                0x005522e4                s2
                0x005522e8                outBuffer
                0x0055234c                mem_array_ents
                0x00552350                buf
                0x00552354                tests_to_do
                0x00552380                out_wts
                0x00552580                out_error
                0x005525c0                global_align
                0x005525c4                global_custrun
                0x005525c8                global_assignstruct
                0x005525e0                global_nnetstruct
                0x005525f8                bp1
                0x00552600                global_ideastruct
                0x00552618                global_fourierstruct
                0x00552630                membytes
                0x00552634                ftiming
                0x00552638                out_wt_change
 COMMON         0x00552838        0xc /usr/local/clas/devel_new/VxWorks55/ppc/target/lib/ppc/PPC604/common/libarch.a(altivecLib.o)
                                  0x0 (size before relaxing)
                0x00552838                pAltivecTaskIdPrevious
                0x0055283c                altivecCreateHookRtn
                0x00552840                altivecDisplayHookRtn
 COMMON         0x00552844        0x4 /usr/local/clas/devel_new/VxWorks55/ppc/target/lib/ppc/PPC604/common/libdrv.a(endLib.o)
                                  0x0 (size before relaxing)
                0x00552844                pMibRtn
 COMMON         0x00552848       0x94 /usr/local/clas/devel_new/VxWorks55/ppc/target/lib/ppc/PPC604/common/libdrv.a(if_loop.o)
                                  0x0 (size before relaxing)
                0x00552848                loif
 COMMON         0x005528dc        0xc /usr/local/clas/devel_new/VxWorks55/ppc/target/lib/ppc/PPC604/common/libnet.a(if.o)
                                  0x0 (size before relaxing)
                0x005528dc                ifnet
                0x005528e0                _m2IfTableUpdate
                0x005528e4                _m2SetIfLastChange
 COMMON         0x005528e8       0x10 /usr/local/clas/devel_new/VxWorks55/ppc/target/lib/ppc/PPC604/common/libnet.a(if_ether.o)
                                  0x0 (size before relaxing)
                0x005528e8                arp_allocated
                0x005528ec                arpMaxEntries
                0x005528f0                arp_inuse
                0x005528f4                arp_intimer
 COMMON         0x005528f8        0xc /usr/local/clas/devel_new/VxWorks55/ppc/target/lib/ppc/PPC604/common/libnet.a(in.o)
                                  0x0 (size before relaxing)
                0x005528f8                mCastHashInfo
                0x00552900                in_interfaces
 COMMON         0x00552904      0x1b8 /usr/local/clas/devel_new/VxWorks55/ppc/target/lib/ppc/PPC604/common/libnet.a(ip_input.o)
                                  0x0 (size before relaxing)
                0x00552904                ip_id
                0x00552908                ip_protox
                0x00552a08                _func_ipsecFilterHook
                0x00552a0c                in_ifaddr
                0x00552a10                ipstat
                0x00552a70                ipintrq
                0x00552a84                _func_ipsecInput
                0x00552a88                ipforward_rt
                0x00552a9c                _ipCfgFlags
                0x00552aa0                ipq
 COMMON         0x00552abc        0x4 /usr/local/clas/devel_new/VxWorks55/ppc/target/lib/ppc/PPC604/common/libnet.a(ip_output.o)
                                  0x0 (size before relaxing)
                0x00552abc                _func_ipsecOutput
 COMMON         0x00552ac0        0xc /usr/local/clas/devel_new/VxWorks55/ppc/target/lib/ppc/PPC604/common/libnet.a(radix.o)
                                  0x0 (size before relaxing)
                0x00552ac0                mask_rnhead
                0x00552ac4                rn_mkfreelist
                0x00552ac8                max_keylen
 COMMON         0x00552acc       0x8a /usr/local/clas/devel_new/VxWorks55/ppc/target/lib/ppc/PPC604/common/libnet.a(route.o)
                                  0x0 (size before relaxing)
                0x00552acc                rttrash
                0x00552ad0                rt_tables
                0x00552b3c                wildcard
                0x00552b4c                rtstat
 *fill*         0x00552b56        0x2
 COMMON         0x00552b58       0x3c /usr/local/clas/devel_new/VxWorks55/ppc/target/lib/ppc/PPC604/common/libnet.a(udp_usrreq.o)
                                  0x0 (size before relaxing)
                0x00552b58                udpstat
                0x00552b80                udb
                0x00552b84                udbinfo
 COMMON         0x00552b94       0x10 /usr/local/clas/devel_new/VxWorks55/ppc/target/lib/ppc/PPC604/common/libnet.a(uipc_dom.o)
                                  0x0 (size before relaxing)
                0x00552b94                max_protohdr
                0x00552b98                max_hdr
                0x00552b9c                max_linkhdr
                0x00552ba0                domains
 COMMON         0x00552ba4        0xc /usr/local/clas/devel_new/VxWorks55/ppc/target/lib/ppc/PPC604/common/libnet.a(unixLib.o)
                                  0x0 (size before relaxing)
                0x00552ba4                splSemId
                0x00552ba8                splTid
                0x00552bac                panicSuspend
 COMMON         0x00552bb0        0xc /usr/local/clas/devel_new/VxWorks55/ppc/target/lib/ppc/PPC604/common/libnet.a(hostLib.o)
                                  0x0 (size before relaxing)
                0x00552bb0                hostList
 COMMON         0x00552bbc        0x4 /usr/local/clas/devel_new/VxWorks55/ppc/target/lib/ppc/PPC604/common/libnet.a(netLib.o)
                                  0x0 (size before relaxing)
                0x00552bbc                netTaskId
 COMMON         0x00552bc0       0x34 /usr/local/clas/devel_new/VxWorks55/ppc/target/lib/ppc/PPC604/common/libnet.a(igmp.o)
                                  0x0 (size before relaxing)
                0x00552bc0                _igmpQuerierTimeUpdateHook
                0x00552bc4                _igmpLeaveAlertHook
                0x00552bc8                _igmpMessageHook
                0x00552bcc                _igmpJoinAlertHook
                0x00552bd0                igmpstat
 COMMON         0x00552bf4        0x4 /usr/local/clas/devel_new/VxWorks55/ppc/target/lib/ppc/PPC604/common/libnet.a(in_pcb.o)
                                  0x0 (size before relaxing)
                0x00552bf4                zeroin_addr
 COMMON         0x00552bf8      0x340 /usr/local/clas/devel_new/VxWorks55/ppc/target/lib/ppc/PPC604/common/libnet.a(in_proto.o)
                                  0x0 (size before relaxing)
                0x00552bf8                inetsw
 COMMON         0x00552f38       0xb8 /usr/local/clas/devel_new/VxWorks55/ppc/target/lib/ppc/PPC604/common/libnet.a(ip_icmp.o)
                                  0x0 (size before relaxing)
                0x00552f38                icmpstat
 COMMON         0x00552ff0      0x124 /usr/local/clas/devel_new/VxWorks55/ppc/target/lib/ppc/PPC604/common/libnet.a(tcp_input.o)
                                  0x0 (size before relaxing)
                0x00552ff0                tcpstat
                0x005530c0                tcbinfo
                0x005530d0                tcpOutRsts
                0x005530d4                tcp_alpha
                0x005530d8                tcp_msl
                0x005530dc                tcp_beta
                0x005530e0                tcp_now
                0x005530e4                tcp_saveti
                0x0055310c                tcpcb
                0x00553110                tcp_iss
 COMMON         0x00553114        0x4 /usr/local/clas/devel_new/VxWorks55/ppc/target/lib/ppc/PPC604/common/libnet.a(tcp_timer.o)
                                  0x0 (size before relaxing)
                0x00553114                tcp_maxidle
 COMMON         0x00553118        0x4 /usr/local/clas/devel_new/VxWorks55/ppc/target/lib/ppc/PPC604/common/libnet.a(uipc_sock.o)
                                  0x0 (size before relaxing)
                0x00553118                somaxconn
 *fill*         0x0055311c        0x4
 COMMON         0x00553120       0x10 /usr/local/clas/devel_new/VxWorks55/ppc/target/lib/ppc/PPC604/common/libos.a(clockLib.o)
                                  0x0 (size before relaxing)
                0x00553120                _clockRealtime
 COMMON         0x00553130        0x4 /usr/local/clas/devel_new/VxWorks55/ppc/target/lib/ppc/PPC604/common/libos.a(envLib.o)
                                  0x0 (size before relaxing)
                0x00553130                ppGlobalEnviron
 COMMON         0x00553134        0x4 /usr/local/clas/devel_new/VxWorks55/ppc/target/lib/ppc/PPC604/common/libos.a(errnoLib.o)
                                  0x0 (size before relaxing)
                0x00553134                errno
 COMMON         0x00553138        0xc /usr/local/clas/devel_new/VxWorks55/ppc/target/lib/ppc/PPC604/common/libos.a(excLib.o)
                                  0x0 (size before relaxing)
                0x00553138                excMsgQId
                0x0055313c                excExcepHook
                0x00553140                excTaskId
 COMMON         0x00553144      0x168 /usr/local/clas/devel_new/VxWorks55/ppc/target/lib/ppc/PPC604/common/libos.a(funcBind.o)
                                  0x0 (size before relaxing)
                0x00553144                _func_smObjObjShow
                0x00553148                msgQDistShowRtn
                0x0055314c                _func_evtLogT1_noTS
                0x00553150                _func_spyStop
                0x00553154                _func_excInfoShow
                0x00553158                _func_evtLogReserveTaskName
                0x0055315c                _func_trgCheck
                0x00553160                pWvNetEventMap
                0x00553164                _func_taskCreateHookAdd
                0x00553168                _func_dspRegsListHook
                0x0055316c                _func_tmrConnect
                0x00553170                _func_evtLogTSched
                0x00553174                _func_dspTaskRegsShow
                0x00553178                trgEvtClass
                0x0055317c                _func_selPtyDelete
                0x00553180                _func_evtLogO
                0x00553184                _func_selWakeupListInit
                0x00553188                trgCnt
                0x0055318c                _func_ioTaskStdSet
                0x00553190                _func_excIntHook
                0x00553194                _func_selPtyAdd
                0x00553198                _func_evtLogM1
                0x0055319c                _func_sigExcKill
                0x005531a0                _func_wvNetPortFilterTest
                0x005531a4                _func_bdall
                0x005531a8                _func_symNameGet
                0x005531ac                _func_logMsg
                0x005531b0                _func_tmrFreq
                0x005531b4                _func_tmrEnable
                0x005531b8                _func_excPanicHook
                0x005531bc                _func_spy
                0x005531c0                _func_fastUdpInput
                0x005531c4                _func_remCurIdGet
                0x005531c8                _func_selTyDelete
                0x005531cc                _func_pthread_setcanceltype
                0x005531d0                _func_evtLogT0
                0x005531d4                smMemPartShowRtn
                0x005531d8                _func_sseTaskRegsShow
                0x005531dc                _func_tmrStampLock
                0x005531e0                _func_valloc
                0x005531e4                _func_evtLogM3
                0x005531e8                _func_fastUdpErrorNotify
                0x005531ec                _func_evtLogPoint
                0x005531f0                msgQSmShowRtn
                0x005531f4                _func_symValueGet
                0x005531f8                _func_spyClkStart
                0x005531fc                _func_excBaseHook
                0x00553200                _func_tmrPeriod
                0x00553204                _func_altivecProbe
                0x00553208                _func_tmrStamp
                0x0055320c                msgQSmInfoGetRtn
                0x00553210                _func_ftpLs
                0x00553214                wvInstIsOn
                0x00553218                _func_evtLogM2
                0x0055321c                _func_evtLogT0_noInt
                0x00553220                _func_spyReport
                0x00553224                msgQDistInfoGetRtn
                0x00553228                _func_selTyAdd
                0x0055322c                _func_fclose
                0x00553230                _func_spyClkStop
                0x00553234                _func_tmrDisable
                0x00553238                _func_evtLogString
                0x0055323c                wvEvtClass
                0x00553240                _func_symFindSymbol
                0x00553244                _func_printErr
                0x00553248                _func_evtLogT1
                0x0055324c                _func_taskDeleteHookAdd
                0x00553250                _func_netLsByName
                0x00553254                _func_fppTaskRegsShow
                0x00553258                _func_altivecTaskRegsGet
                0x0055325c                _func_symFindByValue
                0x00553260                _func_selWakeupListTerm
                0x00553264                _func_memalign
                0x00553268                _func_evtLogM0
                0x0055326c                semSmShowRtn
                0x00553270                _func_sigprocmask
                0x00553274                _func_symTypeGet
                0x00553278                _func_altivecTaskRegsShow
                0x0055327c                _func_remCurIdSet
                0x00553280                _func_dspMregsHook
                0x00553284                _func_excJobAdd
                0x00553288                _func_spyTask
                0x0055328c                _func_wvNetAddressFilterTest
                0x00553290                _func_fastUdpPortTest
                0x00553294                _func_selWakeupAll
                0x00553298                wvObjIsEnabled
                0x0055329c                _func_sigTimeoutRecalc
                0x005532a0                _func_symFindByValueAndType
                0x005532a4                semSmInfoRtn
                0x005532a8                _func_evtLogOIntLock
 COMMON         0x005532ac      0x118 /usr/local/clas/devel_new/VxWorks55/ppc/target/lib/ppc/PPC604/common/libos.a(iosLib.o)
                                  0x0 (size before relaxing)
                0x005532ac                drvTable
                0x005532b0                ioDefPath
                0x005533b0                maxFiles
                0x005533b4                maxDrivers
                0x005533b8                fdTable
                0x005533bc                iosDvList
 COMMON         0x005533c4        0xc /usr/local/clas/devel_new/VxWorks55/ppc/target/lib/ppc/PPC604/common/libos.a(memLib.o)
                                  0x0 (size before relaxing)
                0x005533c4                smMemPartOptionsSetRtn
                0x005533c8                smMemPartFindMaxRtn
                0x005533cc                smMemPartReallocRtn
 COMMON         0x005533d0      0x880 /usr/local/clas/devel_new/VxWorks55/ppc/target/lib/ppc/PPC604/common/libos.a(dcacheCbio.o)
                                  0x0 (size before relaxing)
                0x005533d0                DCACHE_CTRL
                0x00553450                dcacheCtrl
 COMMON         0x00553c50       0x34 /usr/local/clas/devel_new/VxWorks55/ppc/target/lib/ppc/PPC604/common/libos.a(cbioLib.o)
                                  0x0 (size before relaxing)
                0x00553c50                cbioClass
 COMMON         0x00553c84        0x8 /usr/local/clas/devel_new/VxWorks55/ppc/target/lib/ppc/PPC604/common/libos.a(sigLib.o)
                                  0x0 (size before relaxing)
                0x00553c84                sigEvtRtn
                0x00553c88                _pSigQueueFreeHead
 COMMON         0x00553c8c       0x14 /usr/local/clas/devel_new/VxWorks55/ppc/target/lib/ppc/PPC604/common/libwind.a(eventLib.o)
                                  0x0 (size before relaxing)
                0x00553c8c                eventEvtRtn
                0x00553c90                vxEventPendQ
 COMMON         0x00553ca0       0x3c /usr/local/clas/devel_new/VxWorks55/ppc/target/lib/ppc/PPC604/common/libwind.a(kernelLib.o)
                                  0x0 (size before relaxing)
                0x00553ca0                vxIntStackBase
                0x00553ca4                tickQHead
                0x00553cb4                rootTaskId
                0x00553cb8                roundRobinSlice
                0x00553cbc                vxIntStackEnd
                0x00553cc0                rootMemNBytes
                0x00553cc4                readyQHead
                0x00553cd4                pRootMemStart
                0x00553cd8                roundRobinOn
 COMMON         0x00553cdc       0x18 /usr/local/clas/devel_new/VxWorks55/ppc/target/lib/ppc/PPC604/common/libwind.a(msgQLib.o)
                                  0x0 (size before relaxing)
                0x00553cdc                msgQDistNumMsgsRtn
                0x00553ce0                msgQSmReceiveRtn
                0x00553ce4                msgQDistSendRtn
                0x00553ce8                msgQSmNumMsgsRtn
                0x00553cec                msgQSmSendRtn
                0x00553cf0                msgQDistReceiveRtn
 COMMON         0x00553cf4       0x68 /usr/local/clas/devel_new/VxWorks55/ppc/target/lib/ppc/PPC604/common/libwind.a(semLib.o)
                                  0x0 (size before relaxing)
                0x00553cf4                semClass
                0x00553d28                semInstClass
 COMMON         0x00553d5c        0x4 /usr/local/clas/devel_new/VxWorks55/ppc/target/lib/ppc/PPC604/common/libwind.a(semMLib.o)
                                  0x0 (size before relaxing)
                0x00553d5c                semMGiveKernWork
 COMMON         0x00553d60      0x168 /usr/local/clas/devel_new/VxWorks55/ppc/target/lib/ppc/PPC604/common/libwind.a(taskLib.o)
                                  0x0 (size before relaxing)
                0x00553d60                taskSwitchTable
                0x00553da4                taskSwapTable
                0x00553de8                smObjTcbFreeFailRtn
                0x00553dec                taskBpHook
                0x00553df0                taskDeleteTable
                0x00553e34                smObjTaskDeleteFailRtn
                0x00553e38                smObjTcbFreeRtn
                0x00553e3c                taskIdCurrent
                0x00553e40                taskCreateTable
                0x00553e84                taskSwapReference
 COMMON         0x00553ec8        0x4 /usr/local/clas/devel_new/VxWorks55/ppc/target/lib/ppc/PPC604/common/libwind.a(taskShow.o)
                                  0x0 (size before relaxing)
                0x00553ec8                _func_taskRegsShowRtn
 *fill*         0x00553ecc        0x4
 COMMON         0x00553ed0        0xc /usr/local/clas/devel_new/VxWorks55/ppc/target/lib/ppc/PPC604/common/libwind.a(tickLib.o)
                                  0x0 (size before relaxing)
                0x00553ed0                vxAbsTicks
                0x00553ed8                vxTicks
 COMMON         0x00553edc       0x10 /usr/local/clas/devel_new/VxWorks55/ppc/target/lib/ppc/PPC604/common/libwind.a(windLib.o)
                                  0x0 (size before relaxing)
                0x00553edc                kernelState
                0x00553ee0                localToGlobalOffset
                0x00553ee4                smObjPoolMinusOne
                0x00553ee8                kernelIsIdle
 COMMON         0x00553eec      0x408 /usr/local/clas/devel_new/VxWorks55/ppc/target/lib/ppc/PPC604/common/libwind.a(workQLib.o)
                                  0x0 (size before relaxing)
                0x00553eec                workQWriteIx
                0x00553eed                workQReadIx
                0x00553ef0                workQIsEmpty
                0x00553ef4                pJobPool
 COMMON         0x005542f4        0x4 /usr/local/clas/devel_new/VxWorks55/ppc/target/lib/ppc/PPC604/common/libwindview.a(wvLib.o)
                                  0x0 (size before relaxing)
                0x005542f4                pmPartId
 COMMON         0x005542f8        0x4 /usr/local/clas/devel_new/VxWorks55/ppc/target/lib/ppc/PPC604/common/libwindview.a(evtLogLib.o)
                                  0x0 (size before relaxing)
                0x005542f8                evtBufferId
 *fill*         0x005542fc        0x4
                0x00554300                .=ALIGN(0x10)
                0x00554300                .=ALIGN(0x10)
                0x00554300                end=.
                0x00554300                _end=.
                0x00554300                wrs_kernel_bss_end=.
                0x00554300                _wrs_kernel_bss_end=.

/DISCARD/
 *(.note)
 *(.comment)
 *(.pdr)

.stab
 *(.stab)

.stabstr
 *(.stabstr)

.stab.excl
 *(.stab.excl)

.stab.exclstr
 *(.stab.exclstr)

.stab.index
 *(.stab.index)

.stab.indexstr
 *(.stab.indexstr)

.comment
 *(.comment)

.debug
 *(.debug)

.line
 *(.line)

.debug_srcinfo
 *(.debug_srcinfo)

.debug_sfnames
 *(.debug_sfnames)

.debug_aranges
 *(.debug_aranges)

.debug_pubnames
 *(.debug_pubnames)

.debug_info
 *(.debug_info)

.debug_abbrev
 *(.debug_abbrev)

.debug_line
 *(.debug_line)

.debug_frame
 *(.debug_frame)

.debug_str
 *(.debug_str)

.debug_loc
 *(.debug_loc)

.debug_macinfo
 *(.debug_macinfo)

.debug_weaknames
 *(.debug_weaknames)

.debug_funcnames
 *(.debug_funcnames)

.debug_typenames
 *(.debug_typenames)

.debug_varnames
 *(.debug_varnames)
OUTPUT(tmp.o elf32-powerpc)
