
Allocating common symbols
Common symbol       size              file

_func_smObjObjShow  0x4               vxWorks.tmp
taskSwitchTable     0x44              vxWorks.tmp
inetsw              0x340             vxWorks.tmp
msgQDistShowRtn     0x4               vxWorks.tmp
_func_evtLogT1_noTS
                    0x4               vxWorks.tmp
__func_type_info type_info node
                    0xc               vxWorks.tmp
mCastHashInfo       0x8               vxWorks.tmp
ifnet               0x4               vxWorks.tmp
_func_spyStop       0x4               vxWorks.tmp
rlogindSocket       0x4               vxWorks.tmp
workQWriteIx        0x1               vxWorks.tmp
bad_alloc type_info node
                    0xc               vxWorks.tmp
_func_excInfoShow   0x4               vxWorks.tmp
ip_id               0x2               vxWorks.tmp
_func_evtLogReserveTaskName
                    0x4               vxWorks.tmp
dbgLockUnbreakable  0x4               vxWorks.tmp
drvTable            0x4               vxWorks.tmp
ip_protox           0x100             vxWorks.tmp
DCACHE_CTRL         0x80              vxWorks.tmp
global_emfloatstruct
                    0x18              vxWorks.tmp
zeroin_addr         0x4               vxWorks.tmp
__attr_type_info type_info node
                    0xc               vxWorks.tmp
_func_trgCheck      0x4               vxWorks.tmp
frcSysBoardId       0x3               vxWorks.tmp
pWvNetEventMap      0x4               vxWorks.tmp
pAltivecRegSetObj   0x4               vxWorks.tmp
workQReadIx         0x1               vxWorks.tmp
use_result_dummy    0x4               vxWorks.tmp
fppDisplayHookRtn   0x4               vxWorks.tmp
cbioClass           0x34              vxWorks.tmp
ioDefPath           0x100             vxWorks.tmp
_func_taskCreateHookAdd
                    0x4               vxWorks.tmp
somaxconn           0x4               vxWorks.tmp
_func_dspRegsListHook
                    0x4               vxWorks.tmp
_func_tmrConnect    0x4               vxWorks.tmp
max_protohdr        0x4               vxWorks.tmp
_func_evtLogTSched  0x4               vxWorks.tmp
tcpstat             0xd0              vxWorks.tmp
vxIntStackBase      0x4               vxWorks.tmp
_func_dspTaskRegsShow
                    0x4               vxWorks.tmp
workQIsEmpty        0x4               vxWorks.tmp
arp_allocated       0x4               vxWorks.tmp
trgEvtClass         0x4               vxWorks.tmp
_func_selPtyDelete  0x4               vxWorks.tmp
wvDefaultBufOptions
                    0x4               vxWorks.tmp
mmuLibFuncs         0x28              vxWorks.tmp
redirOutFd          0x4               vxWorks.tmp
taskSwapTable       0x44              vxWorks.tmp
_func_evtLogO       0x4               vxWorks.tmp
pEndPktDev          0x4               vxWorks.tmp
_func_selWakeupListInit
                    0x4               vxWorks.tmp
_wdbTaskBpBreakpoint
                    0x4               vxWorks.tmp
global_ofile_name   0x3c              vxWorks.tmp
rttrash             0x4               vxWorks.tmp
_wdbTaskCont        0x4               vxWorks.tmp
semMGiveKernWork    0x4               vxWorks.tmp
ftpsCurrentClients  0x4               vxWorks.tmp
wvLogHeader         0x4               vxWorks.tmp
trgCnt              0x4               vxWorks.tmp
errno               0x4               vxWorks.tmp
mmuStateTransArraySize
                    0x4               vxWorks.tmp
pIntf               0x4               vxWorks.tmp
_func_ioTaskStdSet  0x4               vxWorks.tmp
_func_excIntHook    0x4               vxWorks.tmp
_func_selPtyAdd     0x4               vxWorks.tmp
tot_out_error       0x50              vxWorks.tmp
kernelState         0x4               vxWorks.tmp
_func_evtLogM1      0x4               vxWorks.tmp
yyerrflag           0x4               vxWorks.tmp
_func_sigExcKill    0x4               vxWorks.tmp
_func_wvNetPortFilterTest
                    0x4               vxWorks.tmp
average_error       0x8               vxWorks.tmp
bad_typeid type_info node
                    0xc               vxWorks.tmp
pciConfigAddr2      0x4               vxWorks.tmp
_func_bdall         0x4               vxWorks.tmp
lockKey             0x4               vxWorks.tmp
hostList            0xc               vxWorks.tmp
tickQHead           0x10              vxWorks.tmp
rBuffClass          0x34              vxWorks.tmp
global_ofile        0x4               vxWorks.tmp
__wdbEvtptDeleteAll
                    0x4               vxWorks.tmp
mid_wt_cum_change   0x8c0             vxWorks.tmp
_func_symNameGet    0x4               vxWorks.tmp
tcbinfo             0x10              vxWorks.tmp
_func_logMsg        0x4               vxWorks.tmp
mid_error           0x40              vxWorks.tmp
tcpOutRsts          0x4               vxWorks.tmp
_func_tmrFreq       0x4               vxWorks.tmp
excMsgQId           0x4               vxWorks.tmp
_clockRealtime      0x10              vxWorks.tmp
global_lustruct     0x18              vxWorks.tmp
_func_tmrEnable     0x4               vxWorks.tmp
wvDefaultRBuffParams
                    0x1c              vxWorks.tmp
LUtempvv            0x4               vxWorks.tmp
flash_index         0x4               vxWorks.tmp
_igmpQuerierTimeUpdateHook
                    0x4               vxWorks.tmp
numpats             0x4               vxWorks.tmp
bpFreeList          0x8               vxWorks.tmp
msgQDistNumMsgsRtn  0x4               vxWorks.tmp
sysFlags            0x4               vxWorks.tmp
_func_excPanicHook  0x4               vxWorks.tmp
_func_spy           0x4               vxWorks.tmp
bad_cast type_info node
                    0xc               vxWorks.tmp
avg_out_error       0x50              vxWorks.tmp
_func_fastUdpInput  0x4               vxWorks.tmp
_func_remCurIdGet   0x4               vxWorks.tmp
rlogindId           0x4               vxWorks.tmp
_func_ipsecFilterHook
                    0x4               vxWorks.tmp
_igmpLeaveAlertHook
                    0x4               vxWorks.tmp
consoleName         0x14              vxWorks.tmp
smObjTcbFreeFailRtn
                    0x4               vxWorks.tmp
taskBpHook          0x4               vxWorks.tmp
sigEvtRtn           0x4               vxWorks.tmp
_func_ipsecOutput   0x4               vxWorks.tmp
_m2IfTableUpdate    0x4               vxWorks.tmp
_func_selTyDelete   0x4               vxWorks.tmp
_wdbTaskStep        0x4               vxWorks.tmp
_func_pthread_setcanceltype
                    0x4               vxWorks.tmp
_func_evtLogT0      0x4               vxWorks.tmp
in_ifaddr           0x4               vxWorks.tmp
max_hdr             0x4               vxWorks.tmp
smMemPartShowRtn    0x4               vxWorks.tmp
_func_sseTaskRegsShow
                    0x4               vxWorks.tmp
busIoMemRanges      0x140             vxWorks.tmp
arpMaxEntries       0x4               vxWorks.tmp
dbgPrintFpp         0x4               vxWorks.tmp
worst_error         0x8               vxWorks.tmp
_func_tmrStampLock  0x4               vxWorks.tmp
taskDeleteTable     0x44              vxWorks.tmp
rt_tables           0x6c              vxWorks.tmp
ipstat              0x60              vxWorks.tmp
_func_valloc        0x4               vxWorks.tmp
global_numsortstruct
                    0x18              vxWorks.tmp
s1                  0x4               vxWorks.tmp
pciConfigAddr0      0x4               vxWorks.tmp
ledId               0x4               vxWorks.tmp
global_bitopstruct  0x18              vxWorks.tmp
_igmpMessageHook    0x4               vxWorks.tmp
wvDefaultBufSize    0x4               vxWorks.tmp
hourr               0x4               vxWorks.tmp
dbgUnbreakableOld   0x4               vxWorks.tmp
max_linkhdr         0x4               vxWorks.tmp
_func_evtLogM3      0x4               vxWorks.tmp
loif                0x94              vxWorks.tmp
_func_fastUdpErrorNotify
                    0x4               vxWorks.tmp
consoleFd           0x4               vxWorks.tmp
fppCreateHookRtn    0x4               vxWorks.tmp
_func_evtLogPoint   0x4               vxWorks.tmp
uflashBuf           0x40020           vxWorks.tmp
msgQSmShowRtn       0x4               vxWorks.tmp
_func_symValueGet   0x4               vxWorks.tmp
_func_spyClkStart   0x4               vxWorks.tmp
_func_excBaseHook   0x4               vxWorks.tmp
_func_tmrPeriod     0x4               vxWorks.tmp
dbgSafeUnbreakable  0x4               vxWorks.tmp
__ptmf_type_info type_info node
                    0xc               vxWorks.tmp
rlogInTaskId        0x4               vxWorks.tmp
rBuffShowRtn        0x4               vxWorks.tmp
dayr                0x4               vxWorks.tmp
secr                0x4               vxWorks.tmp
_func_altivecProbe  0x4               vxWorks.tmp
yynerrs             0x4               vxWorks.tmp
pWdbRtIf            0x4               vxWorks.tmp
learned             0x4               vxWorks.tmp
wdbTaskId           0x4               vxWorks.tmp
__array_type_info type_info node
                    0xc               vxWorks.tmp
_func_tmrStamp      0x4               vxWorks.tmp
monr                0x4               vxWorks.tmp
msgQSmInfoGetRtn    0x4               vxWorks.tmp
sysBootParams       0x2b4             vxWorks.tmp
_func_ftpLs         0x4               vxWorks.tmp
iteration_count     0x4               vxWorks.tmp
sysBootFile         0xa0              vxWorks.tmp
tcp_maxidle         0x4               vxWorks.tmp
wvDefaultBufMax     0x4               vxWorks.tmp
pmPartId            0x4               vxWorks.tmp
mmuPageBlockSize    0x4               vxWorks.tmp
sysPhysMemDescNumEnt
                    0x4               vxWorks.tmp
wvInstIsOn          0x4               vxWorks.tmp
yyval               0x10              vxWorks.tmp
mid_wt_change       0x8c0             vxWorks.tmp
semClass            0x34              vxWorks.tmp
wvUpTaskId          0x4               vxWorks.tmp
semInstClass        0x34              vxWorks.tmp
smObjTaskDeleteFailRtn
                    0x4               vxWorks.tmp
type_info type_info node
                    0x8               vxWorks.tmp
_func_evtLogM2      0x4               vxWorks.tmp
pJobPool            0x400             vxWorks.tmp
numpasses           0x4               vxWorks.tmp
tcp_alpha           0x4               vxWorks.tmp
udpstat             0x28              vxWorks.tmp
rlogChildTaskId     0x4               vxWorks.tmp
mask_rnhead         0x4               vxWorks.tmp
_func_evtLogT0_noInt
                    0x4               vxWorks.tmp
_func_spyReport     0x4               vxWorks.tmp
msgQDistInfoGetRtn  0x4               vxWorks.tmp
_func_selTyAdd      0x4               vxWorks.tmp
_igmpJoinAlertHook  0x4               vxWorks.tmp
_func_fclose        0x4               vxWorks.tmp
sysSymTbl           0x4               vxWorks.tmp
mem_array           0xa0              vxWorks.tmp
evtBufferId         0x4               vxWorks.tmp
yytmp               0x4               vxWorks.tmp
vxAbsTicks          0x8               vxWorks.tmp
in_interfaces       0x4               vxWorks.tmp
ppGlobalEnviron     0x4               vxWorks.tmp
msgQSmReceiveRtn    0x4               vxWorks.tmp
smObjTcbFreeRtn     0x4               vxWorks.tmp
_m2SetIfLastChange  0x4               vxWorks.tmp
mid_out             0x40              vxWorks.tmp
smMemPartOptionsSetRtn
                    0x4               vxWorks.tmp
_func_spyClkStop    0x4               vxWorks.tmp
redirInFd           0x4               vxWorks.tmp
global_huffstruct   0x18              vxWorks.tmp
yearr               0x4               vxWorks.tmp
mid_wts             0x8c0             vxWorks.tmp
global_min_seconds  0x4               vxWorks.tmp
wildcard            0x10              vxWorks.tmp
pciConfigAddr1      0x4               vxWorks.tmp
out_wt_cum_change   0x200             vxWorks.tmp
pciActive           0x4               vxWorks.tmp
pAltivecTaskIdPrevious
                    0x4               vxWorks.tmp
_wdbTaskBpAdd       0x4               vxWorks.tmp
geidevices          0x14              vxWorks.tmp
tcp_msl             0x4               vxWorks.tmp
start_addr          0x4               vxWorks.tmp
dbgPrintSimd        0x4               vxWorks.tmp
wvDefaultBufThresh  0x4               vxWorks.tmp
global_allstats     0x4               vxWorks.tmp
yy_yys              0x258             vxWorks.tmp
msgQDistSendRtn     0x4               vxWorks.tmp
_func_tmrDisable    0x4               vxWorks.tmp
shellTaskId         0x4               vxWorks.tmp
rn_mkfreelist       0x4               vxWorks.tmp
__pointer_type_info type_info node
                    0xc               vxWorks.tmp
global_strsortstruct
                    0x18              vxWorks.tmp
wvDefaultBufMin     0x4               vxWorks.tmp
global_min_ticks    0x4               vxWorks.tmp
_func_evtLogString  0x4               vxWorks.tmp
tcp_beta            0x4               vxWorks.tmp
splSemId            0x4               vxWorks.tmp
udb                 0x4               vxWorks.tmp
flashBuf            0x10000           vxWorks.tmp
arp_inuse           0x4               vxWorks.tmp
mmuStateTransArray  0x4               vxWorks.tmp
write_to_file       0x4               vxWorks.tmp
altivecCreateHookRtn
                    0x4               vxWorks.tmp
memsplit            0x4               vxWorks.tmp
wvEvtClass          0x4               vxWorks.tmp
splTid              0x4               vxWorks.tmp
taskIdCurrent       0x4               vxWorks.tmp
ipintrq             0x14              vxWorks.tmp
rootTaskId          0x4               vxWorks.tmp
wvBufId             0x4               vxWorks.tmp
_func_symFindSymbol
                    0x4               vxWorks.tmp
end_addr            0x4               vxWorks.tmp
bad_exception type_info node
                    0xc               vxWorks.tmp
_func_printErr      0x4               vxWorks.tmp
pFppTaskIdPrevious  0x4               vxWorks.tmp
exception type_info node
                    0x8               vxWorks.tmp
pmaplist            0x4               vxWorks.tmp
roundRobinSlice     0x4               vxWorks.tmp
_func_ipsecInput    0x4               vxWorks.tmp
dater               0x4               vxWorks.tmp
_func_evtLogT1      0x4               vxWorks.tmp
tcp_now             0x4               vxWorks.tmp
localToGlobalOffset
                    0x4               vxWorks.tmp
_func_taskDeleteHookAdd
                    0x4               vxWorks.tmp
netTaskId           0x4               vxWorks.tmp
nfsAutoClose        0x4               vxWorks.tmp
rlogOutTaskId       0x4               vxWorks.tmp
__user_type_info type_info node
                    0xc               vxWorks.tmp
out_out             0x40              vxWorks.tmp
_func_netLsByName   0x4               vxWorks.tmp
vxTicks             0x4               vxWorks.tmp
flocalBuf           0x20              vxWorks.tmp
bp2                 0x4               vxWorks.tmp
count               0x4               vxWorks.tmp
silent_test         0x4               vxWorks.tmp
dbgPrintDsp         0x4               vxWorks.tmp
yystate             0x4               vxWorks.tmp
altivecDisplayHookRtn
                    0x4               vxWorks.tmp
_func_fppTaskRegsShow
                    0x4               vxWorks.tmp
_func_altivecTaskRegsGet
                    0x4               vxWorks.tmp
sdramSize           0x4               vxWorks.tmp
_func_symFindByValue
                    0x4               vxWorks.tmp
excExcepHook        0x4               vxWorks.tmp
yydebug             0x4               vxWorks.tmp
yyps                0x4               vxWorks.tmp
s2                  0x4               vxWorks.tmp
smObjPoolMinusOne   0x4               vxWorks.tmp
__ptmd_type_info type_info node
                    0xc               vxWorks.tmp
standAloneSymTbl    0x4               vxWorks.tmp
minr                0x4               vxWorks.tmp
outBuffer           0x64              vxWorks.tmp
mem_array_ents      0x4               vxWorks.tmp
buf                 0x4               vxWorks.tmp
tests_to_do         0x28              vxWorks.tmp
ipforward_rt        0x14              vxWorks.tmp
_func_selWakeupListTerm
                    0x4               vxWorks.tmp
portmapdId          0x4               vxWorks.tmp
msgQSmNumMsgsRtn    0x4               vxWorks.tmp
eventEvtRtn         0x4               vxWorks.tmp
smMemPartFindMaxRtn
                    0x4               vxWorks.tmp
dbgPrintAltivec     0x4               vxWorks.tmp
vxIntStackEnd       0x4               vxWorks.tmp
_func_memalign      0x4               vxWorks.tmp
feidevices          0x28              vxWorks.tmp
yypv                0x4               vxWorks.tmp
ipDrvCtrl           0x188             vxWorks.tmp
rootMemNBytes       0x4               vxWorks.tmp
_func_evtLogM0      0x4               vxWorks.tmp
semSmShowRtn        0x4               vxWorks.tmp
_func_sigprocmask   0x4               vxWorks.tmp
nfsCacheSize        0x4               vxWorks.tmp
cplusDemanglerStyle
                    0x4               vxWorks.tmp
_func_symTypeGet    0x4               vxWorks.tmp
out_wts             0x200             vxWorks.tmp
_pSigQueueFreeHead  0x4               vxWorks.tmp
igmpstat            0x24              vxWorks.tmp
out_error           0x40              vxWorks.tmp
_func_altivecTaskRegsShow
                    0x4               vxWorks.tmp
tcp_saveti          0x28              vxWorks.tmp
tcpcb               0x4               vxWorks.tmp
arp_intimer         0x4               vxWorks.tmp
_func_remCurIdSet   0x4               vxWorks.tmp
rtstat              0xa               vxWorks.tmp
loginVerifyRtn      0x4               vxWorks.tmp
taskCreateTable     0x44              vxWorks.tmp
frcModNumBase       0x4               vxWorks.tmp
__si_type_info type_info node
                    0xc               vxWorks.tmp
global_align        0x4               vxWorks.tmp
readyQHead          0x10              vxWorks.tmp
panicSuspend        0x4               vxWorks.tmp
wdbExternSystemRegs
                    0x9c              vxWorks.tmp
bpList              0x8               vxWorks.tmp
sysStartType        0x4               vxWorks.tmp
__wdbEventListIsEmpty
                    0x4               vxWorks.tmp
sysBootHost         0xa0              vxWorks.tmp
pInPkt              0x4               vxWorks.tmp
_func_dspMregsHook  0x4               vxWorks.tmp
maxFiles            0x4               vxWorks.tmp
_func_excJobAdd     0x4               vxWorks.tmp
_ipCfgFlags         0x4               vxWorks.tmp
yylval              0x10              vxWorks.tmp
_func_spyTask       0x4               vxWorks.tmp
_null_auth          0xc               vxWorks.tmp
smMemPartReallocRtn
                    0x4               vxWorks.tmp
global_custrun      0x4               vxWorks.tmp
tcp_iss             0x4               vxWorks.tmp
pMibRtn             0x4               vxWorks.tmp
_func_wvNetAddressFilterTest
                    0x4               vxWorks.tmp
taskSwapReference   0x44              vxWorks.tmp
wvUpPathId          0x4               vxWorks.tmp
msgQSmSendRtn       0x4               vxWorks.tmp
global_assignstruct
                    0x18              vxWorks.tmp
cenr                0x4               vxWorks.tmp
_func_fastUdpPortTest
                    0x4               vxWorks.tmp
_func_selWakeupAll  0x4               vxWorks.tmp
_wdbTaskBpTrace     0x4               vxWorks.tmp
usrflashBuf         0x10000           vxWorks.tmp
maxDrivers          0x4               vxWorks.tmp
flashBufNV          0x2100            vxWorks.tmp
max_keylen          0x4               vxWorks.tmp
yy_yyv              0x960             vxWorks.tmp
excTaskId           0x4               vxWorks.tmp
ipq                 0x1c              vxWorks.tmp
wvObjIsEnabled      0x4               vxWorks.tmp
pRootMemStart       0x4               vxWorks.tmp
global_nnetstruct   0x18              vxWorks.tmp
bp1                 0x4               vxWorks.tmp
fdTable             0x4               vxWorks.tmp
global_ideastruct   0x18              vxWorks.tmp
statSymTbl          0x4               vxWorks.tmp
roundRobinOn        0x4               vxWorks.tmp
readyQBMap          0x824             vxWorks.tmp
domains             0x4               vxWorks.tmp
__class_type_info type_info node
                    0xc               vxWorks.tmp
global_fourierstruct
                    0x18              vxWorks.tmp
_func_sigTimeoutRecalc
                    0x4               vxWorks.tmp
icmpstat            0xb8              vxWorks.tmp
kernelIsIdle        0x4               vxWorks.tmp
vxEventPendQ        0x10              vxWorks.tmp
iosDvList           0x8               vxWorks.tmp
dcacheCtrl          0x800             vxWorks.tmp
__builtin_type_info type_info node
                    0xc               vxWorks.tmp
_func_symFindByValueAndType
                    0x4               vxWorks.tmp
semSmInfoRtn        0x4               vxWorks.tmp
yychar              0x4               vxWorks.tmp
udbinfo             0x10              vxWorks.tmp
membytes            0x4               vxWorks.tmp
ftiming             0x4               vxWorks.tmp
msgQDistReceiveRtn  0x4               vxWorks.tmp
_func_evtLogOIntLock
                    0x4               vxWorks.tmp
_func_taskRegsShowRtn
                    0x4               vxWorks.tmp
out_wt_change       0x200             vxWorks.tmp

Memory Configuration

Name             Origin             Length             Attributes
*default*        0x00000000         0xffffffff

Linker script and memory map

Address of section .text set to 0x10000
LOAD dataSegPad.o
LOAD vxWorks.tmp
LOAD ctdt.o

.text           0x00010000   0x1572d0
                0x00010000                wrs_kernel_text_start=.
                0x00010000                _wrs_kernel_text_start=.
 *(.text)
 .text          0x00010000   0x123358 vxWorks.tmp
                0x00103ee4                print64Mult
                0x000dc814                sigPendInit
                0x00083ce0                mcastHashTblInsert
                0x000ee2b8                dllEach
                0x00011e00                sysHwInit2
                0x0004428c                frcTestBaudRate
                0x00132978                longjmp
                0x000755a8                _restf15
                0x000f1220                rBuffUpload
                0x00054a9c                frcIdmaTestInit0
                0x000a9320                ifShow
                0x0007e5c8                arpresolve
                0x00098d10                bsdGetsockopt
                0x00018cc4                gtPci0MapMemoryBank2
                0x00041478                morefds
                0x0006cf48                unsigned int type_info function
                0x001315f4                _sigCtxRtnValSet
                0x000c7db8                putchar
                0x000a345c                muxPollDevDel
                0x000f0834                rBuffRead
                0x00021664                cunitInit
                0x001221b8                msgQInit
                0x0011f330                wdbDbgTrace
                0x00044ccc                frcTestAltivec
                0x000752f0                __sub64
                0x0007350c                _savefpr_30_l
                0x000a90b8                netTask
                0x000cca90                fpTypeGet
                0x00075848                _savegprx_17_l
                0x000ad678                nfsDirReadOne
                0x00010cc0                sysSerialHwInit
                0x000757b8                _savefprx_31_l
                0x000cd934                clock_gettime
                0x0005a418                xmalloc
                0x00057ce4                usrNetProtoInit
                0x000de9fc                taskHookShowInit
                0x00075874                _savegprx_28_l
                0x000758b4                _savevr25
                0x0008ca4c                rt_maskedcopy
                0x000b0858                routeCmd
                0x00124988                semCCoreInit
                0x0006da8c                altivecRegsToCtx
                0x00075634                _savef31
                0x00094b3c                _insque
                0x000cd364                classInstConnect
                0x000735dc                _restgpr_21_l
                0x000a220c                muxLinkHeaderCreate
                0x0012b57c                windSuspend
                0x00012c1c                readreg
                0x000734b4                _restfpr_31_l
                0x00064a60                __throw_type_match
                0x00056654                myfill
                0x00125bc8                semMLibInit
                0x000c7f0c                putw
                0x0005a658                cplusMatchMangled
                0x00011364                frcPrintVariant
                0x000cadbc                strcpy
                0x00075664                _restfprs_24_l
                0x000ef534                qPriListCreate
                0x000cb5a0                asctime
                0x000a2b8c                muxDevStopAll
                0x00040118                use_int
                0x000ee1b0                dllInsert
                0x0012a054                taskIdListSort
                0x00022598                mpscChanStopTxRx
                0x00077280                __ashldi3
                0x000cf350                fioFormatV
                0x000124e8                gtRegReadBlock
                0x0006fea8                intVecBaseSet
                0x00075088                __rem64
                0x00132b40                qJobTerminate
                0x00040274                get_results
                0x000ebed0                xattrib
                0x00131500                sigsetjmp
                0x0003ff14                p64
                0x00103fc4                expm1
                0x00023724                vxSdmaIntConnect
                0x0007bd74                ifreset
                0x000af130                rcmd
                0x00122018                msgQCreate
                0x000af124                remLibInit
                0x0001fc5c                mgiEndLoad
                0x0006c520                long long type_info function
                0x00077918                __ffsdi2
                0x0007a600                __cmpdf2
                0x0001f414                vxEthernetIntConnect
                0x0010eef0                authunix_create
                0x000dce40                symTblDestroy
                0x000eb254                cp
                0x0011ee20                wdbCtxExitNotifyHook
                0x0011ea5c                wdbExcLibInit
                0x000a2e24                muxPollTask
                0x000c5d18                fabs
                0x00127d80                taskDeleteForce
                0x000cd05c                cacheDrvFlush
                0x00129c5c                taskShow
                0x0007241c                log
                0x000af780                iam
                0x000830ec                in_ifscrub
                0x00075b64                __diab_alloc_mutex
                0x0001a5d4                gtMemoryMapDevice2Space
                0x00073708                _utof
                0x00010bf8                sysTimestampFreq
                0x00056748                usrPci2PciDmaStart
                0x000ec484                bcmp
                0x00072780                sqrt
                0x001199ec                wdbRunsExternal
                0x00022774                vxMpscIntConnect
                0x00131530                setjmp
                0x000756cc                _savefprs_21_l
                0x000c4e8c                cosh
                0x00125e30                semMCoreInit
                0x000c4400                tcp_attach
                0x00098c24                bsdSetsockopt
                0x000e4780                moduleSegAdd
                0x000e8b88                lkAddr
                0x000c6534                __sflags
                0x00131560                _sigCtxSave
                0x000c8e2c                tmpfile
                0x0007a670                __eqdf2
                0x000b5124                igmpstatShow
                0x00073530                _restgpr_18
                0x00115924                xdrrec_create
                0x000efcd0                rngNBytes
                0x001124e4                xprt_register
                0x0002b2e4                frcBibDetach
                0x0007734c                __divdi3
                0x00019ea4                gtPci0EnableBrokenAgentDetection
                0x0006a7a0                __class_type_info::dcast(type_info const &, int, void *, type_info const *, void *) const
                0x0012f2f0                tsfsUploadPathLibInit
                0x0012d418                msgQEvLibInit
                0x000148dc                pciBusProbe
                0x00044d3c                frcTestPciScan
                0x000d43cc                ioctl
                0x000db2b0                pause
                0x000d45d4                writev
                0x000c0b80                tcp_pulloutofband
                0x00010afc                sysClkRateGet
                0x00077238                __gcc_intrinsicsInit
                0x000f0058                rBuffCreate
                0x000767e8                endEtherPacketDataGet
                0x00073618                _restgpr_28_l
                0x0010f55c                clnt_genericInclude
                0x00035974                ramTest32bit
                0x0011af1c                wdbCksum
                0x000416fc                fst
                0x000ef088                qPriBMapDelete
                0x00010670                sysOutByte
                0x00041b70                prtMVReg
                0x000cb26c                strtok_r
                0x0007546c                __uge64
                0x0012a580                tickAnnounce
                0x000ee7a8                qFifoDelete
                0x0009a56c                ftpLogin
                0x00077e54                __floatdidf
                0x00028560                frcMACWrite
                0x0007bb68                _savev23
                0x0007bb98                _savev29
                0x00011f7c                sysProcNumSet
                0x000ee65c                lstFind
                0x00085544                ip_drain
                0x000d8470                objFree
                0x000935d0                soqremque
                0x00119890                wdbExternRegsGet
                0x000e43b0                moduleTerminate
                0x0004419c                frcTestBootFlash
                0x000f096c                rBuffReadCommit
                0x0006f878                fppTaskRegsSet
                0x0007571c                _restfprx_21_l
                0x000cebc4                printf
                0x000758f0                _restvr20
                0x000f03e0                rBuffVerify
                0x000cf2fc                vsprintf
                0x0009520c                random
                0x0001a3a4                gtMemoryMapBank2
                0x000365d0                test_checkerboard_comparison
                0x00073550                _restgpr_26
                0x000755c4                _restf22
                0x000755dc                _restf28
                0x0011120c                pmap_getmapsInclude
                0x00021d50                vxCunitIntClear
                0x0008b1cc                rtfree
                0x00075954                __va_arg
                0x000cdefc                utime
                0x000735a4                _savegpr_27
                0x00073470                _restfpr_21_l
                0x000a2abc                muxAddrResFuncDel
                0x00059ae8                __pure_virtual
                0x001144c0                svcudp_enablecache
                0x000991a4                etherMultiAdd
                0x000756d4                _savefprs_23_l
                0x000d3acc                hashTblEach
                0x0011e6ac                wdbTaskBpLibInit
                0x00075720                _restfprx_22_l
                0x00075694                _restfprs_29_l
                0x001219c8                eventRsrcSend
                0x0012f8ac                evtLogM2
                0x000df5c4                tyDevRemove
                0x00073548                _restgpr_24
                0x00075608                _savef20
                0x000ce918                excInit
                0x00073500                _savefpr_27_l
                0x0007eabc                arpintr
                0x000c86fc                __sseek
                0x0011bafc                wdbFuncCallLibInit
                0x0001a814                gtMemorySetProtectRegion
                0x00121f3c                kernelVersion
                0x00119604                wdbTask
                0x00083a80                in_delmulti
                0x000e5efc                shellLogin
                0x000a2fc4                muxTaskPrioritySet
                0x0011a0d4                wdbRpcReplyErr
                0x000aa1dc                netPoolShow
                0x001046b8                b
                0x000ccd58                cacheInvalidate
                0x000eddf0                bootScanNum
                0x0001065c                sysInByte
                0x000450f8                isPMC280TwoOnBoardEth
                0x000d9bb0                rebootHookAdd
                0x00066cc4                exception::what(void) const
                0x0012dc80                wvEvtClassClearAll
                0x000b9140                in_pcballoc
                0x000b1df0                recv
                0x000a09c4                ipLibMultiInit
                0x000ad808                nfsFileAttrGet
                0x0007578c                _savefprx_20_l
                0x000b1958                connect
                0x0009e77c                icmpLibInit
                0x00067c58                __register_frame
                0x0009fffc                ifRouteEnable
                0x0011eff4                wdbFppGet
                0x0001b408                frcGppIntCtrlInit
                0x0007bc04                _restv30
                0x000ef6c4                qPriListRemove
                0x000450f0                isPMC280BootFlashPresent
                0x000c566c                logb
                0x00018358                gtPci0GetMemory2Size
                0x000e715c                reld
                0x00098468                bsdRecvfrom
                0x000cec9c                printErr
                0x000c8f20                ungetc
                0x00119dd4                wdbSuspendSystemHere
                0x00023580                sdmaChanReceive
                0x000a4340                muxTkSend
                0x000aa368                netStackDataPoolShow
                0x0006b76c                type_info::before(type_info const &) const
                0x00112920                svcerr_auth
                0x000ce9d8                excHookAdd
                0x0007bb50                _savev20
                0x0002be70                frcBibDataWrite
                0x0011ce44                wdbSysBpLibInit
                0x0012411c                semBCoreInit
                0x00053f3c                parse8
                0x0012c208                windUndelay
                0x0006c168                __rtti_ptmd
                0x0008984c                rn_delete
                0x00045288                detectUserFlash
                0x0004213c                frcTestSerialInfo
                0x000755b0                _restf17
                0x00019f88                gtPci0GetBusMode
                0x0011b9a8                wdbEventDeq
                0x00045b70                mpsc_regs_dump
                0x00123b3c                reschedule
                0x0009fed0                ifIndexToIfName
                0x000dab38                sigemptyset
                0x000710dc                mathHardInit
                0x00075bdc                __common_long_jmp
                0x0001a4bc                gtMemoryMapDevice0Space
                0x00066d9c                bad_exception type_info function
                0x000818a0                copyFromMbufs
                0x000c1e60                tcpRandHookAdd
                0x0006b458                __class_type_info::~__class_type_info(void)
                0x000ce894                errnoSet
                0x001231e8                msgQShowInit
                0x00075384                __gt64
                0x0007b300                __divsf3
                0x000a068c                inet_netof_string
                0x000b11a0                routeMetricSet
                0x0008862c                rn_search
                0x00027288                frcEEPROMWrite16
                0x00037548                memTest_Basic
                0x000cae70                strerror
                0x000756f0                _savefprs_30_l
                0x0012656c                semMGiveKern
                0x0011f004                wdbFppSet
                0x00099030                bsdGetpeername
                0x00119d54                wdbNotifyHost
                0x001274dc                taskSpawn
                0x0001b0c0                gtDmaUpdateArbiter
                0x0003638c                test_or_comparison
                0x000ab3d0                nfsDevShow
                0x000e5e94                shellPromptSet
                0x00073458                _restfpr_15_l
                0x00013510                pciConfigBdfPack
                0x000dddcc                symTypeGet
                0x000ef814                qPriListInfo
                0x000baa60                in_pcbinshash
                0x0009f3d4                ifMaskGet
                0x000ef214                qPriBMapResort
                0x00043824                frcTestIntLatHard
                0x00105298                so
                0x000de2d0                taskSwitchHookAdd
                0x000ee50c                lstInsert
                0x000e9ba4                ramDrv
                0x000b88d0                igmp_fasttimo
                0x00073524                _restgpr_15
                0x00041720                frcSysTest
                0x000734f4                _savefpr_24_l
                0x000402dc                save_minimum
                0x00010e38                sysSerialChanGet
                0x0009a020                ftpReplyGet
                0x0011e994                wdbDirectCallLibInit
                0x00118130                wdbNptInt
                0x000367dc                test_walkbits_comparison
                0x000e59d8                shellHistory
                0x000cccd8                cacheUnlock
                0x000e993c                spyReport
                0x000ef9c4                rngBufGet
                0x0001a7e4                gtMemoryGetInternalSramBaseAddr
                0x00027118                frcEEPROMWrite8
                0x000107f8                sysL2BackEnable
                0x0006f350                excShowInit
                0x00075c54                tkRcvRtnCall
                0x00106c5c                dbgTaskBpTrace
                0x000c1dac                tcp_setpersist
                0x000ea028                dosFsConfigShow
                0x0003eb60                now
                0x000caac4                memmove
                0x000b4f40                xdr_mountbody
                0x00027400                frcEEPROMRead8
                0x000affb4                rlogOutTask
                0x0012071c                xdr_WDB_TGT_INFO
                0x00018e40                gtPci0MapMemoryBank3
                0x000c8790                stdioInit
                0x000755d8                _restf27
                0x000d8694                pathCondense
                0x000dd1fc                symTblAdd
                0x000861b4                ip_output
                0x00019728                gtPci0MapP2pMem0Space
                0x000974b8                bsdSockLibInit
                0x00132af8                qJobDelete
                0x0003f894                nano
                0x000c8b90                stdioShowInit
                0x00119a0c                wdbRunsTasking
                0x00129450                taskUnsafe
                0x000432d8                frcTestLatInitialization
                0x0007589c                _savevr22
                0x0001b2e4                gtDmaSetEngineAccessProtect
                0x000b1524                rpcClntErrnoSet
                0x0001dd04                ethPortMcAddr
                0x000a0580                inet_makeaddr_b
                0x00066d08                exception type_info function
                0x000d3794                hashTblDelete
                0x0004147c                touch
                0x000542e8                ctohex1
                0x0012e6ac                wvLogHeaderCreate
                0x00075918                _restvr25
                0x000a1dbc                muxMCastAddrAdd
                0x00025bc4                frcFlashReadRst
                0x00057750                usrBootLineInit
                0x00054a18                frcAlignedMalloc
                0x000732b4                mmuPpcSdr1Set
                0x0007b9bc                __fixsfsi
                0x00116d1c                pmap_set
                0x000ac56c                nfsDirUnmount
                0x000d7cb8                memPartShow
                0x000734e8                _savefpr_21_l
                0x0005a1fc                cplusCallCtors
                0x00125c3c                semMCreate
                0x000994fc                ftpCommand
                0x00075828                _restgprx_31_l
                0x0001a7fc                gtMemorySetInternalSramBaseAddr
                0x00132074                wdbDbgArchInit
                0x0006495c                cplusTerminate(void)
                0x00011248                frcGetBank1MemSize
                0x00065da4                __cp_push_exception
                0x0007366c                _savegpr_26_l
                0x000d56b8                iosOpen
                0x00018978                gtPci0MapInternalRegIOSpace
                0x000294fc                ismin
                0x0008016c                ether_sprintf
                0x00119800                wdbExternRegsSet
                0x000e44ec                moduleIdFigure
                0x00036f40                release_mem
                0x0007bb58                _savev21
                0x00073698                _itof
                0x00123104                msgQNumMsgs
                0x000734ac                _restfpr_29_l
                0x000a9144                netJobAdd
                0x000255f4                bootFlashErase
                0x0006c260                __rtti_array
                0x00124900                semCInit
                0x000757d4                _restgprx_18_l
                0x000e5fbc                shellLogout
                0x00081bec                set_if_addr
                0x00115664                xdrmem_create
                0x0007a770                __gtdf2
                0x0010023c                dosFsDevCreate
                0x0012077c                xdr_WDB_PARAM_WRAPPER
                0x0006ffd4                intLockLevelSet
                0x0007354c                _restgpr_25
                0x0001b3a4                gtSramMallocAligned
                0x000c9640                atol
                0x000170b4                sysMachChkExcpInit
                0x000ce81c                __errno
                0x0006aedc                __user_type_info::~__user_type_info(void)
                0x00125260                semFlush
                0x0011a3a4                wdbSvcAdd
                0x0006fff4                intRegsUnlock
                0x000e3684                loadModule
                0x000b49c0                xdr_linkargs
                0x0011202c                xdr_des_block
                0x000e37ec                addSegNames
                0x0006fde4                intUnlock
                0x00127788                taskInit
                0x00010820                sysL2BackDisable
                0x000a2634                endFindByName
                0x00075844                _savegprx_16_l
                0x000234e4                sdmaTxReturnDesc
                0x000756e8                _savefprs_28_l
                0x0011efcc                wdbFppRestore
                0x0003b9c4                rdwr
                0x00111fd4                xdr_opaque_auth
                0x000d5664                iosDelete
                0x0003fe60                usecs_spent
                0x000ed32c                bootBpAnchorExtract
                0x00056b4c                usrMmuInit
                0x0007465c                __DIAB_wr_pk_db
                0x000dd78c                symFindByName
                0x0006ff54                intEnable
                0x000e4924                moduleSegFirst
                0x00073570                _savegpr_14
                0x000ee43c                lstExtract
                0x001169e4                clnt_spcreateerror
                0x0001dba8                ethPortUcAddrSet
                0x0010db34                cbioLock
                0x0006d45c                signed char type_info function
                0x0007586c                _savegprx_26_l
                0x000ae174                nfsAuthUnixShow
                0x0009b830                ftpdDelete
                0x00018088                gtPci0MapMemory2space
                0x000681d4                bad_alloc type_info function
                0x000106dc                __READ_FLASH64
                0x0012fa2c                evtLogOInt
                0x0005a04c                RBString_T::prepend(char)
                0x00070d58                vxHid0Set
                0x0008c77c                rt_fixdelete
                0x000ef6e8                qPriListResort
                0x0012dc4c                wvEvtClassSet
                0x000dde2c                symShow
                0x000b4ea8                xdr_dirpath
                0x0004416c                frcTestVPD
                0x000758d4                _savevr29
                0x001169b0                clnt_perrno
                0x000ce5b4                getenv
                0x000b7098                netClFree
                0x001320d0                wdbDbgTraceModeSet
                0x00126800                semMPendQPut
                0x000c4de8                ceil
                0x00097f04                bsdSend
                0x00058fc0                wdbMbufFree
                0x00125418                semDestroy
                0x00018010                gtPci0MapMemory1space
                0x000ef77c                qPriListAdvance
                0x000d3408                fppShowInit
                0x00075b8c                __diab_lock_mutex
                0x000ae3e0                nfsIdSet
                0x00013174                pciFindClass
                0x000d0b94                fioRead
                0x00014324                pciConfigModifyByte
                0x00019a20                gtPci0MapP2pIoSpace
                0x00029838                frcBibShow
                0x000e7518                netHelp
                0x000ceb9c                fioLibInit
                0x00026454                frcFlashErase
                0x000e529c                moduleCheck
                0x000735c0                _restgpr_14_l
                0x000d9688                ptyDevRemove
                0x0003ee0c                bandwidth_val
                0x00121db4                kernelInit
                0x00075650                _restfprs_19_l
                0x00034a70                MoveMemory
                0x000f42b0                dosChkEntryMark
                0x00014548                pciAutoConfig
                0x00073564                _restgpr_31
                0x0007ab70                __make_dp
                0x000c823c                __srget
                0x000e4108                moduleInit
                0x0001058c                sysGetCpuVer
                0x000c50ec                floor
                0x000ccbf8                cacheLibInit
                0x000ba30c                in_pcbnotify
                0x000a1110                muxShow
                0x000757ec                _restgprx_24_l
                0x000b70dc                netMblkClFree
                0x0012c8d0                windPendQFlush
                0x000b71a8                netClBlkGet
                0x000757f4                _restgprx_26_l
                0x000855c0                ip_dooptions
                0x000d6eb0                memPartInit
                0x00106950                dbgTaskBpBreakpoint
                0x000d54e0                iosFdNew
                0x000c8460                setlinebuf
                0x000734d0                _savefpr_15_l
                0x0012dff0                wvSigInst
                0x00103c04                dosVDirLibInit
                0x000945f4                sbdrop
                0x00099154                bsdShutdown
                0x000c979c                labs
                0x00057c84                usrSlipInit
                0x000edfbc                bufAlloc
                0x000c7980                gets
                0x00042698                frcTestSerial
                0x000888fc                rn_match
                0x001209a8                xdr_WDB_STRING_T
                0x000757c8                _restgprx_15_l
                0x00011e7c                sysOutWord
                0x0007bbcc                _restv23
                0x000739d0                __dtoll
                0x00091dfc                soreceive
                0x0007bac8                __make_fp
                0x0012eccc                wvTaskNamesBufAdd
                0x000e487c                moduleSegGet
                0x00088c48                rn_insert
                0x000a1a54                muxPollReceive
                0x0012d934                fileUploadPathLibInit
                0x000ee804                qFifoGet
                0x00075674                _restfprs_28_l
                0x000ccd98                cacheClear
                0x000181c0                gtPci0GetIOspaceSize
                0x000c9668                bsearch
                0x0007bf48                if_attach
                0x0013021c                cplusLoadFixup
                0x000eee38                qCalibrate
                0x000b7588                netMblkChainDup
                0x0002d578                RoundInternalFPF
                0x000e457c                moduleShow
                0x0005b018                cplus_mangle_opname
                0x000a1ec4                muxUnbind
                0x000ae244                nfsAuthUnixSet
                0x000e8178                version
                0x00074478                sfpFloatNormalize
                0x00056a54                loadSymTbl
                0x0009f210                ifAddrDelete
                0x000d9524                ptyDevCreate
                0x0011b8dc                wdbEventNodeInit
                0x0001a660                gtMemoryMapDevice3Space
                0x000d341c                fppTaskRegsShow
                0x00018120                gtPci0MapMemory3space
                0x0007b080                __subsf3
                0x000df7e4                tyAbortFuncSet
                0x000f0e64                rBuffDestroy
                0x0006eeac                excVecBaseGet
                0x00037ce8                getpagesize_lmbench
                0x0001c0cc                gtCntmrDisable
                0x000ac860                nfsLookUpByName
                0x000d58f8                iosWrite
                0x000a2fa0                muxTaskDelayGet
                0x0003f384                mb
                0x000757dc                _restgprx_20_l
                0x0012f450                evtObjLogFuncBind
                0x00070cec                vxDsisrSet
                0x000bc090                icmp_ctloutput
                0x000d7ba8                memAddToPool
                0x0010db88                cbioUnlock
                0x000d5400                iosFdSet
                0x00010690                GET_THRM1
                0x00059b50                RBString_T::RBString_T(void)
                0x0006be60                __rtti_attr
                0x00127268                taskNameToId
                0x00019c40                gtPci0SetRegionFeatures
                0x000dd124                symAdd
                0x00121134                eventReceive
                0x0003f0c4                bandwidth_n
                0x000eedd0                qGetExpired
                0x000eee98                qEach
                0x00120324                xdr_WDB_MEM_XFER
                0x000416bc                print_bytes
                0x00010b08                sysClkRateSet
                0x000c99f0                qsort
                0x000d51e4                iosNextDevGet
                0x000c26b8                tcp_close
                0x00075d68                endFlagsClr
                0x000d78e4                memPartBlockIsValid
                0x00126980                semInfo
                0x00015e5c                frcPciConfigReadVPD
                0x000e7084                unldByGroup
                0x000577b8                usrBootLineCrack
                0x000c6cfc                fscanf
                0x000b5220                icmpstatShow
                0x0001c310                gtCntmrIsTerminate
                0x000c6324                fgets
                0x000cb94c                __daysSinceEpoch
                0x00022eb0                sdmaChanStart
                0x0008f4d0                pfctlinput
                0x0005a1d4                cplusDtorsLink
                0x00104e80                bdall
                0x00018c00                gtPci0MapMemoryBank1DAC
                0x000732c4                mmuPpcSdr1Get
                0x000756b0                _savefprs_14_l
                0x000ee55c                lstNext
                0x0006fe38                intVecSet
                0x0012cef0                workQAdd0
                0x00040eec                get_enough
                0x00034dcc                TicksToSecs
                0x001328c4                wdbDbgDabrGet
                0x000cb764                __getTime
                0x000ce288                envPrivateCreate
                0x0004012c                use_pointer
                0x0006ca34                char type_info function
                0x0012f6dc                evtLogT1
                0x00073488                _restfpr_27_l
                0x000ba6dc                in_rtchange
                0x00018248                gtPci0GetMemory0Size
                0x000ee4c0                lstFirst
                0x0012da04                fileUploadPathClose
                0x000dd948                symByValueAndTypeFind
                0x00082288                in_control
                0x001204f4                xdr_WDB_RT_INFO
                0x0006b150                __si_type_info::~__si_type_info(void)
                0x0005a398                cplusDemanglerInit
                0x00025b90                correctaddr
                0x00028390                frcRTCWrite
                0x00017bd8                userRsrvMemMallocAligned
                0x0001aadc                gtMemorySetDeviceParam
                0x000730ec                excExit
                0x000c77e0                getc
                0x001009f0                dosFsHdlrInstall
                0x000447ec                frcTestMACAddr
                0x000b1068                rtrequestDelEqui
                0x000eef2c                qPriBMapCreate
                0x00010854                sysL2BackHWFlush
                0x001299a0                taskTcb
                0x000d6c68                memFindMax
                0x000e78e0                repeat
                0x001304a8                _dbgRetAdrsGet
                0x00065c24                unexpected(void)
                0x00075508                __ule64
                0x000e55a4                shell
                0x0001a88c                gtMemoryDisableWindow
                0x0012a6c8                tick64Set
                0x000b15f0                sockLibAdd
                0x00075930                _restvr28
                0x00023af4                vxSdmaIntClear
                0x00075948                _restvr31
                0x000e6240                timexHelp
                0x000efc7c                rngIsFull
                0x000caa7c                memcpy
                0x000e36d8                loadModuleAtSym
                0x000b7368                netClBlkJoin
                0x000bce20                rip_usrreq
                0x000ee8d0                qFifoEach
                0x0007cf64                if_slowtimoRestart
                0x00072f58                cacheArchTextUpdate
                0x00059c04                RBString_T::RBString_T(char const *)
                0x0011dfe4                udpCommIfInit
                0x0008369c                in_broadcast
                0x0001c82c                vxCntmrIntDisable
                0x00044a2c                getPLLCoreMultiplier
                0x000418d0                frcTestTbReset
                0x00073294                mmuPpcSrSet
                0x0007345c                _restfpr_16_l
                0x000755c0                _restf21
                0x000aa3b8                mbufShow
                0x00111318                pmap_getport
                0x0007bbc4                _restv22
                0x000a5130                netDevCreate
                0x00045384                DCD_regs_dump
                0x000c84d0                setvbuf
                0x000755f4                _savef15
                0x00075600                _savef18
                0x000e5470                shellRestart
                0x000e52d8                moduleNameGet
                0x0012e698                wvUploadTaskConfig
                0x000d9c44                selectInit
                0x000ae6d4                ping
                0x0006dad4                altivecInit
                0x00064898                abs(double)
                0x00070dd4                vxTimeBaseGet
                0x00023fec                serialChanStart
                0x00065c40                __cp_exception_info
                0x00075b30                __diab_atomic_restore
                0x00129310                taskSafe
                0x001197dc                wdbExternRegSetObjAdd
                0x000757c4                _restgprx_14_l
                0x000d8c88                pathSplit
                0x0007a970                __floatsidf
                0x0007cf08                if_qflush
                0x00093690                socantrcvmore
                0x000d4a4c                ioGlobalStdGet
                0x0007347c                _restfpr_24_l
                0x000afa0c                rlogind
                0x0011275c                svc_sendreply
                0x000558e8                frcDmaTestStart1
                0x000c7c60                perror
                0x0012d698                semEvLibInit
                0x00010c4c                sysTimestampLock
                0x000d852c                pathParse
                0x0007a870                __ltdf2
                0x0006ff94                intDisable
                0x0006e004                swab
                0x00041a78                getOption
                0x001316b4                vxTaskEntry
                0x00105f18                dbgPrintCall
                0x000b449c                xdr_sattrargs
                0x00075840                _savegprx_15_l
                0x000d3d24                creat
                0x0006ec98                excVecSet
                0x000d8824                pathBuild
                0x00025fd0                operation_fail
                0x00070da0                vxFpscrGet
                0x000fbcd4                dosFsFmtLibInit
                0x0002bda0                bibReadIntf
                0x000df7fc                tyBackspaceSet
                0x0007bbec                _restv27
                0x000ec4f8                bswap
                0x001317fc                taskMsrSet
                0x000b43f4                xdr_nfspath
                0x000d3bc4                hashFuncIterScale
                0x0001042c                _initialize_dbg_uart
                0x000c7f60                puts
                0x00012c5c                sysHardReset
                0x00073574                _savegpr_15
                0x000cdab4                clock_settime
                0x000ea504                copy
                0x000d3cb8                intRestrict
                0x000aa3e0                netShowInit
                0x000e8050                ts
                0x00011630                frcPrintBoardInfo
                0x000ce828                errnoGet
                0x000a0878                inet_ntoa_b
                0x000d6940                memPartFindMax
                0x0011f0ec                wdbDbgBpGet
                0x001317dc                taskArgsGet
                0x00011520                frcMv64360SiliconVersion
                0x00091098                soaccept
                0x000dd920                symByValueFind
                0x00010000                _sysInit
                0x000c48b0                islower
                0x000ee290                dllCount
                0x0001995c                gtPci0MapP2pMem1SpaceDAC
                0x000ea064                dosFsVolOptionsSet
                0x000765fc                endEtherAddressForm
                0x000649c0                __dummy
                0x000d6b84                memOptionsSet
                0x000ccea4                cacheDmaFree
                0x0010c290                yyparse
                0x000eb224                llr
                0x000ee1a8                dllTerminate
                0x00065bfc                set_terminate(void (*)(void))
                0x000eece0                qPut
                0x000c4928                tolower
                0x00073650                _savegpr_19_l
                0x0002519c                bootFlashProgram1byte
                0x0004007c                last
                0x0004362c                frcTestIntLatSoft
                0x000bc84c                rip_output
                0x00054774                mem_perf
                0x000cdd70                rewinddir
                0x0011ae6c                wdbMemTest
                0x00056524                usrDmaInit
                0x0006f7ac                fppArchInit
                0x000efaf8                rngBufPut
                0x000caa00                system
                0x0006aa10                type_info::operator!=(type_info const &) const
                0x000c5fcc                feof
                0x001223d0                msgQDelete
                0x0012b79c                windPrioritySet
                0x000c33d4                tcp_canceltimers
                0x0008a7ec                route_init
                0x0007cbf0                link_rtrequest
                0x000b521c                icmpShowInit
                0x0006d8d8                altivecArchTaskCreateInit
                0x000f1190                wvRBuffMgrPrioritySet
                0x0004444c                atox
                0x0009f23c                ifAddrGet
                0x000198a4                gtPci0MapP2pMem1Space
                0x0009b0c4                ftpTransientConfigGet
                0x0012f960                evtLogM3
                0x00010c04                sysTimestamp
                0x00041dc0                testmem_perf
                0x00053ad8                frcEEPROMTestRead
                0x000d810c                memPartInfoGet
                0x000756e4                _savefprs_27_l
                0x001131d4                svcraw_create
                0x000d7bd8                malloc
                0x0006822c                bad_alloc::what(void) const
                0x001300cc                evtLogT1_noTS
                0x000d405c                remove
                0x000d4b2c                isatty
                0x00131604                _sigCtxSetup
                0x00075b88                __diab_free_mutex
                0x000bb1b4                icmp_input
                0x00065f3c                __uncatch_exception
                0x0009f4d8                ifFlagSet
                0x0001b340                gtSramInit
                0x00098f24                bsdGetsockname
                0x00075728                _restfprx_24_l
                0x0009f924                ifRouteDelete
                0x00058f48                wdbMbufAlloc
                0x0013246c                wdbDbgRegsClear
                0x00073464                _restfpr_18_l
                0x001137a0                svctcp_create
                0x0002b334                frcBibRead
                0x00070ebc                vxMemArchProbe
                0x0008776c                ip_ctloutput
                0x000eead8                qInit
                0x00074da4                __div64
                0x000747f8                __asr64
                0x000443f0                frcTestIsMonarch
                0x00016c90                gtIntDisable
                0x001328d4                wdbDbgDarGet
                0x001271d4                taskRegsSet
                0x0001cbf4                frcDmaIntConnect
                0x000f0a14                rBuffFlush
                0x00128a6c                taskRestart
                0x00066e1c                bad_exception::bad_exception(void)
                0x00045100                getPMC280BoardInfo
                0x00073664                _savegpr_24_l
                0x00075868                _savegprx_25_l
                0x000c4b1c                ldexp
                0x0011de74                wdbVioChannelUnregister
                0x000cdf70                envLibInit
                0x000d3c88                hashKeyStrCmp
                0x000f13c4                rBuffShowInit
                0x0007b878                __lesf2
                0x000cd92c                clock_setres
                0x000ce834                errnoOfTaskGet
                0x00010d88                sysSerialHwInit2
                0x000b6edc                netPoolKheapInit
                0x00041d14                frcTestIDMAScrubChk
                0x00036904                test_bitspread_comparison
                0x000e603c                shellIsRemoteConnectedGet
                0x000af660                remCurIdGet
                0x000ee340                lstAdd
                0x000231d4                sdmaChanStopTxRx
                0x001228f4                msgQSend
                0x000253a0                bootFlashGetSectorOff
                0x000295ac                issec
                0x00077bd0                __fixunsdfsi
                0x000928cc                soshutdown
                0x000acf84                nfsThingCreate
                0x0012c734                windReadyQPut
                0x00059a88                __pure_virtual_called
                0x00088434                ip_mloopback
                0x0003614c                test_verify_success
                0x0005a4b0                cplusDemanglerStyleSet
                0x000cc600                __getDstInfo
                0x000e5f94                shellLoginInstall
                0x000b1d00                recvfrom
                0x00054728                frcTestSwitch
                0x000e9ad8                spyStop
                0x00090fa8                soabort
                0x00074aac                __rem32
                0x000ef578                qPriListInit
                0x00114eac                xdr_bytes
                0x00112840                svcerr_decode
                0x00011f88                sysCpuCheck
                0x00097d2c                bsdSendto
                0x000ef780                qPriListGetExpired
                0x000cde8c                statfs
                0x0002c874                frcBootRegFileBurn
                0x0007588c                _savevr20
                0x000757cc                _restgprx_16_l
                0x0007bbe4                _restv26
                0x00073658                _savegpr_21_l
                0x0012a10c                taskRegsShow
                0x0001c140                gtCntmrRead
                0x00126ab8                semShow
                0x0011de28                wdbVioLibInit
                0x0001b89c                frcGppIntDisable
                0x0007ccd8                if_down
                0x001160ac                xdrrec_endofrecord
                0x000ca7d0                strtoul
                0x00127148                taskBpHookSet
                0x000ab144                nfsMount
                0x00132b68                qJobPut
                0x0009df6c                hostTblInit
                0x00081fac                inet_netmatch
                0x000df184                ttyDrv
                0x000820b4                in_localaddr
                0x000cd8b4                clock_getres
                0x000735e4                _restgpr_23_l
                0x00106f70                ledRead
                0x0011a1e0                wdbRpcNotifyHost
                0x0006ffe0                intRegsLock
                0x000b4958                xdr_renameargs
                0x00065bec                __default_unexpected(void)
                0x0006c82c                short type_info function
                0x000757b0                _savefprx_29_l
                0x00075864                _savegprx_24_l
                0x00093200                soisdisconnecting
                0x000cd2e0                classShowConnect
                0x00125eb0                semMGive
                0x000a4400                muxTkPollReceive
                0x0006da50                altivecProbe
                0x0006c41c                void type_info function
                0x000b3a34                tftpErrorCreate
                0x0006fdd0                intLock
                0x0008b688                rtredirect
                0x00036d60                extendedTestError
                0x000d5804                iosRead
                0x0012fe80                evtLogTasks
                0x000d5614                iosCreate
                0x000c48d8                ispunct
                0x000dcc60                symTblCreate
                0x00078ba4                __udivmoddi4
                0x000735a8                _savegpr_28
                0x0012b0b0                wdShowInit
                0x0007579c                _savefprx_24_l
                0x000e6e9c                unldByModuleId
                0x000c98fc                wctomb
                0x0012cc54                windPendQRemove
                0x000da49c                selNodeAdd
                0x00074694                __DIAB_wr_pk_fl
                0x000b5e90                udpShowInit
                0x000a4ef0                muxTkBindUpdate
                0x000b4084                xdr_nfsstat
                0x0012b0ac                wdTick
                0x0006dfe8                bfillBytes
                0x00010960                sysL1DcacheEnable
                0x000b4ffc                xdr_groupnode
                0x0010f560                clnt_create
                0x000ea370                rmdir
                0x000761f4                endObjInit
                0x000eeec8                qPriBMapListCreate
                0x0001fbc4                vxEthernetIntEnable
                0x0007c8a8                ifaof_ifpforaddr
                0x000c998c                wcstombs
                0x000ee368                lstConcat
                0x0010d9bc                cbioModeSet
                0x000735a0                _savegpr_26
                0x00036290                test_mul_comparison
                0x0011109c                clntudp_freeres
                0x000b16ac                socket
                0x00019430                gtPci0MapDevice3MemorySpace
                0x00064b58                __get_eh_info
                0x000d9e2c                select
                0x000a8f14                netLibGeneralInit
                0x000d0c34                fioRdString
                0x0007427c                __ftoll
                0x00067e70                __frame_state_for
                0x000f4f24                dosFsChkTree
                0x00053d3c                frcTestRTCWrite
                0x000cdd28                readdir
                0x000a1e6c                muxMCastAddrGet
                0x000c7af4                __smakebuf
                0x00025bb8                __READ_FLASH16
                0x00075628                _savef28
                0x000cde64                fstatfs
                0x00075610                _savef22
                0x0007561c                _savef25
                0x001223ac                msgQTerminate
                0x0012b114                wdShow
                0x00036224                test_sub_comparison
                0x00090964                sofree
                0x000f287c                dcacheDevEnable
                0x0007565c                _restfprs_22_l
                0x00075bc4                __diab_free_semaphore
                0x00018220                gtPci0GetMemory0Base
                0x0001e8d4                ethPortWriteSmiReg
                0x000df808                tyDeleteLineSet
                0x00105ba4                l
                0x000e7b40                checkStack
                0x00080018                _arpCmd
                0x000d8dd0                pipeDevCreate
                0x000106a8                SET_THRM1
                0x00116944                clnt_perror
                0x00073520                _restgpr_14
                0x000c5784                drem
                0x000ddd6c                symNameGet
                0x00019b7c                gtPci0MapCPUspaceDAC
                0x00019f58                gtPci0P2PConfig
                0x0004397c                frcTestIntLatency
                0x001199fc                wdbIsNowExternal
                0x000c48ec                isspace
                0x000c461c                tcp_disconnect
                0x000a13c4                muxBind
                0x000798d4                __unpack_d
                0x00021458                brgStart
                0x000ee4c8                lstGet
                0x0001422c                pciConfigModifyWord
                0x0006a5b0                __rtti_user
                0x00010eb0                frcGetPcbRev
                0x00026150                frcFlashProgram
                0x000c609c                fflush
                0x000543ac                TestIntConnect
                0x000a0aec                rawIpLibInit
                0x000ee83c                qFifoRemove
                0x00046de8                MV64360_regs_dump
                0x00010ae0                sysClkDisable
                0x0011a9c0                wdbCtxLibInit
                0x0010da50                cbioRdyChgdGet
                0x000e6198                timexFunc
                0x00075738                _restfprx_28_l
                0x00114970                xdr_void
                0x00075900                _restvr22
                0x0001579c                pciScan
                0x00011258                frcPrintBank1MemSize
                0x0012cec8                workQInit
                0x00091480                soconnect2
                0x00112eb4                _svcauth_null
                0x000757f0                _restgprx_25_l
                0x00010b4c                sysTimestampEnable
                0x00031f24                DoIDEA
                0x0007bafc                __extendsfdf2
                0x0012f794                evtLogM0
                0x00015c04                frcPciSetActive
                0x00121044                eventTerminate
                0x00073b04                __dtoull
                0x000757a8                _savefprx_27_l
                0x001114b4                xdr_pmap
                0x000dea84                taskDeleteHookShow
                0x001129f8                svcerr_progvers
                0x000124e0                sysVirtToPhys
                0x00055da4                wdValueReg
                0x000f0fe0                wvRBuffMgr
                0x00125724                semGiveDefer
                0x0012dab4                wvEvtLogInit
                0x00079d40                __adddf3
                0x0007b678                __nesf2
                0x000d71e4                memPartAlignedAlloc
                0x00040350                save_median
                0x000af7c0                whoami
                0x000b0c1c                mRouteEntryAdd
                0x001127d0                svcerr_noproc
                0x000b156c                sockLibInit
                0x000a2914                muxAddrResFuncAdd
                0x000a3210                muxPollEnd
                0x0001f0b8                ethPortReceive
                0x00073640                _savegpr_15_l
                0x000e43d4                moduleDelete
                0x000b2ae4                tftpModeSet
                0x000949d4                splimp
                0x00092ae4                sosetopt
                0x000183e0                gtPci0GetMemory3Size
                0x000c0dfc                tcp_mss
                0x0012cf88                workQAdd1
                0x000988a4                bsdRecvmsg
                0x0008ac00                routeDrain
                0x000eed40                qRemove
                0x0012aa48                wdTerminate
                0x00016f64                sysIntCtrlInit
                0x000c9928                mbstowcs
                0x000d7c5c                memShowInit
                0x0008e8e4                udp_output
                0x000ce428                putenv
                0x00034ea0                ramTestPrintDot
                0x00073674                _savegpr_28_l
                0x0009f504                ifFlagGet
                0x000976c0                bsdBind
                0x00018330                gtPci0GetMemory2Base
                0x00022514                mpscChanStopRx
                0x000791d0                __umoddi3
                0x000a6584                netLsByName
                0x000d43ec                lseek
                0x0006aa34                bad_cast type_info function
                0x00075658                _restfprs_21_l
                0x000a168c                muxSend
                0x000d8988                pathCat
                0x00073480                _restfpr_25_l
                0x000ce9e4                excJobAdd
                0x000dab58                sigaddset
                0x0006e6a0                excVecInit
                0x000df0b8                taskVarInfo
                0x00059a10                cplusLibInit
                0x000cd3c8                classMemPartIdSet
                0x0012ff58                evtsched
                0x0010fc10                clnt_simpleInclude
                0x0010d700                cbioBlkRW
                0x0001e4d4                ethClearMibCounters
                0x00093734                sbseldequeue
                0x0006d900                altivecTaskRegsGet
                0x000c8bc4                stdioShow
                0x0005a8cc                set_cplus_marker_for_demangling
                0x0005a4a4                cplusDemanglerSet
                0x001206a4                xdr_WDB_AGENT_INFO
                0x0001886c                gtPci0MapInternalRegSpace
                0x00077300                __clear_cache
                0x0011544c                xdr_vector
                0x0011fb0c                wdbAltivecGet
                0x00037f34                bwMem
                0x000a5154                netDevCreate2
                0x000d5058                iosDevDelete
                0x000ba71c                in_pcblookup
                0x000ef27c                qPriBMapInfo
                0x000f27c4                dcacheDevDisable
                0x0012ea40                wvEvtBufferGet
                0x0001b048                gtDmaIsChannelActive
                0x000ee124                dllCreate
                0x000ec55c                bzero
                0x00017d18                _frcPci0ReadConfigReg
                0x0006c728                int type_info function
                0x00013920                pciConfigInLong
                0x0007364c                _savegpr_18_l
                0x000116e4                sysModel
                0x000733ac                mmuPpcExtraBatEnableMPC74x5
                0x00119f34                wdbRpcRcv
                0x00088c00                rn_newpair
                0x000ae324                nfsAuthUnixGet
                0x000b4758                xdr_readokres
                0x00078668                __udivdi3
                0x0007bb80                _savev26
                0x001190f0                wdbVioDrv
                0x000b74d0                netMblkDup
                0x000b1bb0                send
                0x00037cf0                frcLmbench
                0x0012a728                tick64Get
                0x00132160                wdbDbgHwAddrCheck
                0x00112a70                svc_getreq
                0x000c83f4                setbuffer
                0x001045e4                dbgInit
                0x000e5338                moduleFlagsGet
                0x00125844                semInvalid
                0x0008f8d0                mbinit
                0x000c95b0                abort
                0x0001a868                gtMemoryDisableProtectRegion
                0x000d7c8c                memShow
                0x000189e8                gtPci0MapMemoryBank0
                0x0004161c                frcTestlatMemRead
                0x00059e84                RBString_T::append(RBString_T &)
                0x000ef59c                qPriListDelete
                0x0011252c                xprt_unregister
                0x0003fe20                tvsub
                0x0006a454                __rtti_si
                0x000eca08                bootStructToString
                0x0012c094                windDelay
                0x0012ca88                windPendQPut
                0x00122d30                msgQReceive
                0x000efedc                sllCount
                0x000c8b48                __stderr
                0x00075928                _restvr27
                0x00127584                taskCreat
                0x00127018                taskOptionsSet
                0x000c215c                tcp_respond
                0x000278f0                frcI2CRead
                0x00073654                _savegpr_20_l
                0x0005b184                cplus_demangle
                0x000d5200                iosFdValue
                0x000cb740                gmtime_r
                0x00070cb8                vxMsrSet
                0x000ed15c                bootLeaseExtract
                0x000efde0                sllTerminate
                0x0009658c                ipDetach
                0x000e3da8                loadCommonManage
                0x001241e8                semBGive
                0x00120ffc                eventLibInit
                0x00092fe8                uiomove
                0x00012cdc                pciIsr
                0x000681a0                bad_alloc::~bad_alloc(void)
                0x000c4914                isxdigit
                0x000d5df0                logFdAdd
                0x000dc82c                sigPendDestroy
                0x00121c70                eventStart
                0x0012fd54                evtLogPoint
                0x000ab630                nfsDevInfoGet
                0x000dce1c                symTblTerminate
                0x00057cb4                usrPPPInit
                0x00074440                __lltof
                0x000756c0                _savefprs_18_l
                0x000a4fc4                muxTkUnloadUpdate
                0x00114bf8                xdr_char
                0x00012b08                rdreg
                0x000d6d84                memPartCreate
                0x00116b2c                clnt_pcreateerror
                0x00022218                mpscDbg
                0x000aa4d8                arptabShow
                0x000e5398                shellInit
                0x00130664                _dbgTaskPCGet
                0x0012eb48                wvTaskNamesUpload
                0x00034eec                ramTest8bit
                0x00040b10                t_overhead
                0x00075730                _restfprx_26_l
                0x0011a7bc                wdbConnectLibInit
                0x00074708                __DIAB_wr_sw_db
                0x00065f74                __check_eh_spec
                0x00034b90                ReportError
                0x000281e8                frcRTCRead
                0x000752e4                __add64
                0x00081c90                ether_attach
                0x000cdb5c                clock_show
                0x00059b1c                RBStringIterator_T::nextChar(void)
                0x000dda14                symFindByValue
                0x0007bd1c                ifreset2
                0x000ca4d4                __exp10
                0x000ca56c                strtol
                0x00120b7c                xdr_TGT_INT_T
                0x00133224                qJobInfo
                0x0001064c                sysL2crGet
                0x001195b8                wdbInstallCommIf
                0x0001063c                sysGetL3CR
                0x0006934c                operator new(unsigned int, nothrow_t const &)
                0x000c4768                tcp_usrclosed
                0x0001caf8                frcDmaIntCtrlInit
                0x000c7234                fsetpos
                0x00021ca4                vxCunitIntDisable
                0x00132610                windExit
                0x000734ec                _savefpr_22_l
                0x00075334                __ge64
                0x000254e4                frcBootFlashProgram
                0x000b92a0                in_pcbbind
                0x00024d04                bootEraseOrProgramOk
                0x00073410                mmuPpcADisable
                0x00112ebc                _svcauth_unix
                0x00124de8                semCGiveDefer
                0x00075bd0                __diab_trylock_semaphore
                0x0010dadc                cbioRdyChgdSet
                0x00080558                ether_output
                0x00115564                xdr_double
                0x001317b4                taskArgsSet
                0x00094c4c                _netFree
                0x001063b0                dbgTaskBpHooksInstall
                0x000c9838                mblen
                0x000d756c                memPartAlloc
                0x000733dc                mmuPpcAEnable
                0x00119a1c                wdbIsNowTasking
                0x000e77f4                repeatRun
                0x001253d0                semDelete
                0x000dff2c                tyIRd
                0x00036474                test_seqinc_comparison
                0x000659c0                __rethrow
                0x00094b1c                wakeup
                0x000d5d64                logFdSet
                0x00064b2c                __get_eh_context
                0x001313b8                ffsMsb
                0x000b188c                accept
                0x000a2d78                muxDevStartAll
                0x000efd5c                sllCreate
                0x00121030                eventInit
                0x00106e70                ledOpen
                0x00033c9c                DoLU
                0x000ddd10                symName
                0x000d4e1c                iosDrvRemove
                0x00067d2c                __register_frame_table
                0x000e9824                printLogo
                0x0006aefc                __user_type_info type_info function
                0x0001a058                gtMemoryGetDeviceBaseAddress
                0x0007be5c                ifresetImmediate
                0x00059a3c                cplusLibMinInit
                0x0012c4f0                windWdCancel
                0x0001e7a4                ethernetGetConfigReg
                0x0006c930                bool type_info function
                0x00075f70                endMibIfInit
                0x0007bb88                _savev27
                0x000b1368                rpcTaskInit
                0x00012148                sysMsDelay
                0x000d9dc0                selTaskDeleteHookAdd
                0x000ef274                qPriBMapKey
                0x000419f8                frcTestGettimeUsec
                0x0003ff50                p64sz
                0x0007ad14                __unpack_f
                0x0012d31c                eventRsrcShow
                0x000734fc                _savefpr_26_l
                0x000c611c                __sflush
                0x000d41e0                rename
                0x00023614                sdmaRxReturnBuff
                0x00024660                vxMpscUartTxInt
                0x000c2e38                tcp_rtlookup
                0x001273ac                taskIdListGet
                0x00116fa0                xdr_callmsg
                0x0001a18c                gtMemoryGetDeviceSize
                0x000b0684                routeAdd
                0x000eefb0                qPriBMapInit
                0x0011f0b0                wdbDbgBpListInit
                0x000ce3bc                envPrivateDestroy
                0x00064d38                __sjthrow
                0x000dcdf8                symTblDelete
                0x00093a60                soreserve
                0x00115000                xdr_union
                0x000e4e2c                moduleEach
                0x000755cc                _restf24
                0x0006e4bc                cacheArchDmaMalloc
                0x00015f30                frcPciShow
                0x000cb138                strrchr
                0x000b4b5c                xdr_entry
                0x0011b3c4                wdbMemLibInit
                0x00075630                _savef30
                0x00075938                _restvr29
                0x0009b0a0                ftpLibDebugOptionsSet
                0x000422b4                frcTestStressSerial
                0x000a50ac                netDrv
                0x00075894                _savevr21
                0x000b704c                netClBlkFree
                0x000226c4                vxMpscIntCntlInit
                0x0011f030                wdbFpLibInit
                0x000efd28                rngMoveAhead
                0x0007353c                _restgpr_21
                0x000757d8                _restgprx_19_l
                0x000fa1bc                fat16VolMount
                0x0007bbfc                _restv29
                0x000810b4                ether_addmulti
                0x00034e20                printDramErr
                0x0009fd14                ifunit
                0x000215c4                brgSetCdv
                0x001317d4                taskRtnValueSet
                0x00025b94                __WRITE_FLASH32
                0x00114d70                xdr_enum
                0x00055b04                watchdogTest
                0x0006ac88                bad_typeid type_info function
                0x0012a844                wdCreate
                0x000d6bb0                calloc
                0x0007aa5c                __fixdfsi
                0x0009865c                bsdRecv
                0x00019664                gtPci0MapBootDeviceMemorySpaceDAC
                0x0012a788                wdLibInit
                0x00114cb8                xdr_bool
                0x00056828                sysTimeBaseLGet
                0x00093b80                sbrelease
                0x00034cf8                StartStopwatch
                0x00094854                sbdroprecord
                0x000da968                sigInit
                0x00075318                __ne64
                0x00075654                _restfprs_20_l
                0x00024efc                bootFlashParamWrite
                0x0012964c                taskDelay
                0x000ed11c                bootParamsErrorPrint
                0x000df814                tyEOFSet
                0x0003ed78                get_n
                0x000123d4                sysMmuPteShow
                0x000284b8                frcMACRead
                0x00077ebc                __floatdisf
                0x000a0534                inet_lnaof
                0x00075640                _restfprs_15_l
                0x000fa0dc                fat16ClustValueGet
                0x0006b478                __class_type_info type_info function
                0x00127224                taskName
                0x000ca008                strtod
                0x00074918                __div32
                0x0001648c                gtInitSdramSize
                0x00053254                frcTestDispMemMap
                0x000ef884                qPriListEach
                0x0011521c                xdr_wrapstring
                0x0007d5fc                ifconf
                0x000d4f98                iosDevAdd
                0x0007577c                _savefprx_16_l
                0x00112164                xdr_rejected_reply
                0x000657c0                __throw
                0x000c10a0                tcp_output
                0x000ec5bc                rindex
                0x0001069c                GET_THRM3
                0x00026e44                frcFlashReadIdCommand
                0x000a05e0                inet_makeaddr
                0x000de278                taskCreateHookAdd
                0x00075b94                __diab_trylock_mutex
                0x00072fbc                excEnt
                0x000da678                selWakeupListTerm
                0x0006e370                cacheArchDisableFromMmu
                0x000a3e5c                muxTkReceive
                0x000755ac                _restf16
                0x000361b8                test_xor_comparison
                0x000755b8                _restf19
                0x000d3c70                hashKeyCmp
                0x0002bccc                bibWriteIntf
                0x000efe90                sllPrevious
                0x0006655c                __throw_bad_cast
                0x000d4328                write
                0x0007ce10                if_up
                0x0002cf38                SetupCPUEmFloatArrays
                0x0007563c                _restfprs_14_l
                0x000dee68                taskVarAdd
                0x00012b54                wrreg
                0x000b4f08                xdr_mountlist
                0x001305e0                _dbgTaskPCSet
                0x0010dc5c                cbioRdyChk
                0x000a0640                inet_netof
                0x00011354                frcGetVariant
                0x0006eeb8                excExcHandle
                0x00064aa8                __empty
                0x000ee5e0                lstNStep
                0x00069fc0                operator new [](unsigned int, nothrow_t const &)
                0x00073504                _savefpr_28_l
                0x00075698                _restfprs_30_l
                0x00015710                gtPciGetMaxBusNo
                0x000373f0                memTest_Basic_Ever
                0x000ec240                diskInit
                0x0001cec4                frcDmaIntEnable
                0x0007569c                _restfprs_31_l
                0x000c95f4                atof
                0x00073370                mmuPpcTlbInvalidateAll
                0x00066d68                exception::~exception(void)
                0x000757a4                _savefprx_26_l
                0x0007b6f8                __gtsf2
                0x00078660                __udiv_w_sdiv
                0x000b7964                netTupleGet2
                0x00073644                _savegpr_16_l
                0x00075858                _savegprx_21_l
                0x00024988                gtUartBaudRateChange
                0x0007570c                _restfprx_17_l
                0x0007c9e4                ifa_ifwithroute
                0x00059dcc                RBString_T::extractCString(char *, int)
                0x00114938                xdr_free
                0x000d37dc                hashTblDestroy
                0x000c2994                tcp_notify
                0x00043b40                frcTestDMA
                0x00114fd4                xdr_netobj
                0x00075878                _savegprx_29_l
                0x000cddcc                fstat
                0x000c6734                fprintf
                0x000756f4                _savefprs_31_l
                0x0013048c                _dbgArchInit
                0x00045250                isPMC280Monarch
                0x0007368c                __diab_intrinsics_impfpInit
                0x00091278                soconnect
                0x001195dc                wdbInfoGet
                0x00077f78                __lshrdi3
                0x0012510c                semTake
                0x00075e60                endMultiLstFirst
                0x0012d41c                msgQEvStart
                0x0008bd80                rtrequest
                0x00018440                gtPci0ScanSelfBars
                0x00059488                wvRBuffErrorHandler
                0x0007bc18                ifinit
                0x00034bf0                ErrorExit
                0x00075da8                endFlagsSet
                0x000dba94                kill
                0x00026dc8                frcFlashLock
                0x000cb62c                ctime
                0x0007a8f0                __ledf2
                0x000ad424                nfsFileRead
                0x0006ace0                bad_typeid::bad_typeid(void)
                0x00072dcc                cachePpcEnable
                0x000734f8                _savefpr_25_l
                0x000218fc                vxCunitIntCtrlInit
                0x000a2f80                muxTaskDelaySet
                0x0011258c                svc_register
                0x000a39a0                muxTkBind
                0x001149b8                xdr_long
                0x000f85dc                dosDirOldLibInit
                0x000cab70                strcat
                0x0001b9e4                frcGppCPU1IntDisable
                0x000dd874                symFindByCName
                0x0001a318                gtMemoryMapBank1
                0x000755c8                _restf23
                0x000755e0                _restf29
                0x00011f08                sysMemTop
                0x000735e0                _restgpr_22_l
                0x0001eca0                etherInitTxDescRing
                0x000756b8                _savefprs_16_l
                0x000ecf2c                bootParamsPrompt
                0x000ba28c                in_setpeeraddr
                0x000d8ef0                pipeDevDelete
                0x00029664                isyear
                0x00025ed8                compare_error
                0x000b175c                bind
                0x0011309c                _svcauth_short
                0x00043e24                frcTestDualCPU
                0x00030690                DoBitops
                0x0003ebb0                Now
                0x000d65a8                memPartRealloc
                0x0005905c                usrBreakpointSet
                0x000758ac                _savevr24
                0x00131840                trcStack
                0x001128b0                svcerr_systemerr
                0x000db92c                sigvec
                0x0002b358                frcBibWrite
                0x000ee184                dllDelete
                0x000a030c                inet_addr
                0x0008ace8                rtalloc1
                0x000274d8                frcEEPROMRead16
                0x0005b118                cplus_demangle_name_to_style
                0x000ee3e4                lstCount
                0x00017c44                _frcPci0WriteConfigReg
                0x000d44f8                readv
                0x000929f4                sorflush
                0x000734d8                _savefpr_17_l
                0x000cf27c                vprintf
                0x0012088c                xdr_WDB_REPLY_WRAPPER
                0x000689e0                operator delete(void *, nothrow_t const &)
                0x000b28c8                tftpCopy
                0x000731d8                mmuPpcTlbie
                0x0007572c                _restfprx_25_l
                0x00075e14                endMultiLstCnt
                0x00055dec                frcTestUserFlash
                0x00026838                frcFlashBlockWrite
                0x0006df68                bcopyLongs
                0x0012e070                wvEvent
                0x00011168                frcGetBank0MemSize
                0x0011b688                wdbRegsLibInit
                0x0012d93c                fileUploadPathCreate
                0x000dd2e8                symRemove
                0x000e9a38                spyClkStart
                0x00093878                sb_lock
                0x000648a8                cplusNewHandlerExists(void)
                0x0007bc0c                _restv31
                0x0009fe6c                ifNameToIfIndex
                0x00067d78                __deregister_frame_info
                0x000ee5d8                lstPrevious
                0x000ea04c                dosFsModeChange
                0x00073620                _restgpr_30_l
                0x000ef5c0                qPriListTerminate
                0x00075198                __mul64
                0x00018d7c                gtPci0MapMemoryBank2DAC
                0x00054708                frcTestDisable
                0x00019ce4                gtPci0SetRegionFeaturesDAC
                0x000d9b08                reboot
                0x00015edc                frcPciConfigWriteVPD
                0x0001b10c                gtDmaSetMemorySpace
                0x000d4808                chdir
                0x000db8b8                sigwaitinfo
                0x00065bd0                terminate(void)
                0x00075854                _savegprx_20_l
                0x000a4d40                muxTkDevLoadUpdate
                0x0008320c                in_ifinit
                0x0007698c                endEtherPacketAddrGet
                0x0006b21c                __si_type_info::__si_type_info(char const *, __user_type_info const &)
                0x0007ac20                __pack_f
                0x000105ac                sysSioRead
                0x000b456c                xdr_diropokres
                0x0012d1d0                workQPanic
                0x000e6170                timexInit
                0x0003ed84                lmbench_settime
                0x00116e74                pmap_unset
                0x00073670                _savegpr_27_l
                0x000b7b88                ifIndexTest
                0x00121f78                msgQLibInit
                0x000654dc                __unwinding_cleanup
                0x00075780                _savefprx_17_l
                0x000ba564                in_losing
                0x00059cfc                RBString_T::operator==(RBString_T &) const
                0x000ab278                nfsMountAll
                0x0012e030                wvEventInst
                0x000b4c6c                xdr_readdirres
                0x000c4be0                modf
                0x000431f4                frcTestMPP18ISR_hard
                0x00036ff4                parse_opts
                0x00024b94                bootFlashAutoSelect
                0x0006e144                cacheArchEnable
                0x0006ee64                excVecBaseSet
                0x00085b6c                ip_stripoptions
                0x0010506c                cret
                0x000df4dc                tyDevInit
                0x00013f50                pciConfigOutLong
                0x000b1f48                setsockopt
                0x000c2c6c                tcp_ctlinput
                0x000dc6e4                sigPendKill
                0x00114a90                xdr_short
                0x0007c604                ifa_ifwithdstaddr
                0x000b6e78                netBufLibInit
                0x000c6e1c                fseek
                0x0006aa08                type_info::name(void) const
                0x000b7008                netMblkFree
                0x000ad864                nfsFsAttrGet
                0x00034a90                InitMemArray
                0x0006e9d4                excRelocIntConnect
                0x000e4d90                moduleFindByGroup
                0x000ea050                dosFsReadyChange
                0x000da9f4                sigqueueInit
                0x000e7e2c                i
                0x000734b0                _restfpr_30_l
                0x0006a9a4                type_info type_info function
                0x0001c4d4                vxCntmrIntConnect
                0x000d4ce8                iosDrvInstall
                0x0007bba0                _savev30
                0x0006b798                __throw_type_match_rtti
                0x00075af4                __diab_atomic_enter
                0x000182d0                gtPci0GetMemory1Size
                0x00064890                abs(float)
                0x00120bd4                xdr_ARRAY
                0x0008a270                rn_walktree
                0x000b7b04                ifIndexAlloc
                0x00112acc                svc_getreqset
                0x000e0e78                elfRelocRelaEntryRd
                0x000566d0                usrMem2MemDmaStart
                0x00074848                __lsr64
                0x000dfdac                tyITx
                0x000731b4                excEPSet
                0x000ec344                ioHelp
                0x0006df20                bcopyBytes
                0x00012528                gtRegWriteBlock
                0x000a2a34                muxAddrResFuncGet
                0x0009f2ec                ifDstAddrGet
                0x000756b4                _savefprs_15_l
                0x001232a4                msgQInfoGet
                0x0006fb0c                intExit
                0x0013172c                taskRegsInit
                0x000108f4                sysL2BackInit
                0x00095088                setstate
                0x00119e58                wdbSystemSuspend
                0x000b0ea4                mRouteDelete
                0x00018198                gtPci0GetIOspaceBase
                0x00065c10                set_unexpected(void (*)(void))
                0x0001d9b0                ethPortStart
                0x00070e80                vmpxx
                0x0001e7d0                ethPortReadSmiReg
                0x000734e0                _savefpr_19_l
                0x0008201c                in_netof
                0x000d82c4                objShow
                0x000c5190                fmod
                0x000ef68c                qPriListGet
                0x000cd520                classShowInit
                0x000d6364                memPartOptionsSet
                0x00059244                wvOn
                0x000b4504                xdr_diropargs
                0x00072b38                cos
                0x000de328                taskSwapHookAdd
                0x000ef8f4                rngCreate
                0x000ddd9c                symValueGet
                0x00074774                __DIAB_wr_sw_ld
                0x0006df40                bcopyWords
                0x000d570c                iosClose
                0x000ee6cc                lstFree
                0x000d8b9c                pathLastNamePtr
                0x000ee1ec                dllAdd
                0x000557e8                frcDmaCompleteAppIntHandler1
                0x00075704                _restfprx_15_l
                0x0011ac78                wdbCtxResume
                0x0007359c                _savegpr_25
                0x000ab4f8                nfsUnmount
                0x000e6560                timexPost
                0x000c5bd8                tanh
                0x000caa08                memchr
                0x000643ac                decode_identifier_styled
                0x0007c6b4                ifa_ifwithnet
                0x000af6b4                remCurIdSet
                0x00034a10                FreeMemory
                0x0001e734                ethernetSetConfigReg
                0x00081ef8                netTypeDelete
                0x0006436c                decode_identifier
                0x000e80bc                tr
                0x000e89b4                ld
                0x0010d8d0                cbioIoctl
                0x00120b20                xdr_UINT32
                0x000ea054                dosFsVolOptionsGet
                0x00127374                taskIsSuspended
                0x0003d9c0                loads_i
                0x000dd058                symFree
                0x00030b6c                DoEmFloat
                0x000772c0                __ashrdi3
                0x000c8ab8                __stdin
                0x000aa390                netStackSysPoolShow
                0x000d837c                objAllocExtra
                0x0006bcf4                __is_pointer(void *)
                0x000734d4                _savefpr_16_l
                0x0007caf8                ifafree
                0x000dd03c                symInit
                0x000eb1c4                ll
                0x000ebb00                xdelete
                0x000568e4                usrAltivecInit
                0x000e99e4                spy
                0x000756dc                _savefprs_25_l
                0x00056bf4                usrNetInit
                0x000182a8                gtPci0GetMemory1Base
                0x0007575c                _restfprx_30_l
                0x000734e4                _savefpr_20_l
                0x0009e434                hostGetByName
                0x000edf50                bufPoolInit
                0x0012d100                workQDoWork
                0x000b4e34                xdr_fhstatus
                0x001120a4                xdr_accepted_reply
                0x0003c2f8                fcp
                0x00034aa0                AddMemArray
                0x000b1548                rpcErrnoGet
                0x000546dc                frcTestConnect
                0x00075824                _restgprx_30_l
                0x000c8808                stdioFpCreate
                0x000efda4                sllInit
                0x000d6310                memInit
                0x0009f55c                ifMetricGet
                0x00040094                bytes
                0x001328bc                wdbDbgIabrSet
                0x00070cb0                vxMsrGet
                0x000239a4                vxSdmaIntEnable
                0x000e7234                unldTextSegmentCheck
                0x0012d238                eventTaskShow
                0x000b55a8                tcpstatShow
                0x000a43a8                muxTkPollSend
                0x000ac77c                nfsHelp
                0x00112968                svcerr_weakauth
                0x000733c4                mmuPpcExtendedBlockEnableMPC74x5
                0x00075ef0                endDevName
                0x0007358c                _savegpr_21
                0x0010f4ac                xdr_authunix_parms
                0x00014134                pciConfigModifyLong
                0x000756bc                _savefprs_17_l
                0x00113958                svcfd_create
                0x00075700                _restfprx_14_l
                0x000e5ed8                shellLock
                0x0002c84c                frcCheckSum
                0x000cbb6c                mktime
                0x000f13f4                rBuffShow
                0x0001b940                frcGppCPU1IntEnable
                0x000cb99c                __julday
                0x000ced74                printExc
                0x0007d854                ifpromisc
                0x000b8a90                igmp_slowtimo
                0x00017b38                userRsrvMemInit
                0x00027e94                frcEEPROMDummyWrite16
                0x00010ec0                frcPrintPcbRev
                0x0012f3e0                tsfsUploadPathClose
                0x001064a4                dbgTaskStep
                0x0008f1cc                addDomain
                0x00106410                dbgTaskCont
                0x000121f0                sysNvRamGet
                0x00075eac                endMultiLstNext
                0x000c6034                ferror
                0x000cb1dc                strstr
                0x00073874                __DIAB_rd_sw_ld
                0x0005a4c0                cplusDemangle
                0x00070bac                mmuPpcBatInitMPC74x5
                0x00075880                _savegprx_31_l
                0x000e3f78                moduleLibInit
                0x00044390                frcTestAllTests
                0x000757e4                _restgprx_22_l
                0x00078618                __ucmpdi2
                0x001130a4                svc_rawInclude
                0x0010d658                cbioLibInit
                0x000c2990                tcp_drain
                0x0003ece0                Delta
                0x0008feb4                m_pullup
                0x00072988                sin
                0x0009596c                ipTkError
                0x000fca8c                dosFsVolIsFat12
                0x000c9fd4                rand
                0x000e6174                timexClear
                0x0005a0fc                RBString_T::prepend(char const *, int)
                0x000eff04                sllEach
                0x00120ba8                xdr_TGT_ADDR_T
                0x000b08ec                routeEntryFill
                0x0009f400                ifFlagChange
                0x0007379c                __DIAB_rd_pk_fl
                0x000907e4                solisten
                0x0012a660                tickSet
                0x0006a6a8                __user_type_info::dcast(type_info const &, int, void *, type_info const *, void *) const
                0x000bca88                rip_ctloutput
                0x00132798                windLoadContext
                0x0012dc90                wvObjInstModeSet
                0x00043f88                frcTestBIB
                0x00036c88                test_moving_inv32
                0x000acb60                nfsFileRemove
                0x000ec124                diskFormat
                0x00071314                atan2
                0x00072fac                cacheArchPipeFlush
                0x0006aa8c                bad_cast::bad_cast(void)
                0x000dac50                signal
                0x00023340                sdmaChanSend
                0x000362fc                test_div_comparison
                0x000c2eb4                tcp_updatemtu
                0x000d4284                read
                0x00127338                taskIsReady
                0x000a2730                muxTxRestart
                0x000e5ec4                shellOrigStdSet
                0x000adffc                nfsAuthUnixPrompt
                0x0003f780                context
                0x00070cd4                vxSrr0Get
                0x0007b8f8                __floatsisf
                0x000c2e20                tcp_quench
                0x00036e98                print_summary
                0x00070ce4                vxDarSet
                0x000b464c                xdr_readlinkres
                0x000b4ce4                xdr_statfsokres
                0x00099540                ftpCommandEnhanced
                0x000d4ac4                ioTaskStdGet
                0x000e49c4                moduleSegNext
                0x00073558                _restgpr_28
                0x0012fadc                evtLogO
                0x00036f44                get_mem
                0x0012db84                wvEvtLogStop
                0x00029390                isdate
                0x00041c30                frcTestChkECC
                0x000241cc                vxMpscUartDevInit
                0x000ed27c                bootNetmaskExtract
                0x000da628                selWakeupListInit
                0x0010052c                dosFsShow
                0x000eb510                mv
                0x0001b374                gtSramMalloc
                0x000b7440                netMblkToBufCopy
                0x00114c58                xdr_u_char
                0x00119fdc                wdbRpcReply
                0x0012e9a8                wvLogHeaderUpload
                0x000710d0                vxPowerModeGet
                0x000b1c5c                sendmsg
                0x000e9a90                spyClkStop
                0x000b0604                rlogChildTask
                0x000ef7f0                qPriListKey
                0x000caca8                strcoll
                0x0005a2ac                _cplusDemangle
                0x00110b64                clntudp_create
                0x00045360                frcDispBoardInfo
                0x000c4900                isupper
                0x000cd830                clockLibInit
                0x000756d8                _savefprs_24_l
                0x00099714                ftpXfer
                0x000756ec                _savefprs_29_l
                0x0012ad44                wdStart
                0x000cb038                strncmp
                0x0007bbd4                _restv24
                0x0009ef08                ipHeaderCreate
                0x000dd3a0                symTblRemove
                0x000755f8                _savef16
                0x00127cac                taskActivate
                0x00055a28                frcTestWatchDogAppStart
                0x0001b088                gtDmaEngineDisable
                0x0002c278                ctohex
                0x0001c24c                gtCntmrSetMode
                0x00024c68                bootFlashGetProtect
                0x000df7f0                tyAbortSet
                0x0012c7d4                windReadyQRemove
                0x000de5d0                taskSwapHookDelete
                0x00088dbc                rn_addmask
                0x00019dc4                gtPci0DisableAccessRegion
                0x000166f4                gtIntConnect
                0x00059608                usrRoot
                0x000df200                ttyDevCreate
                0x000d4a30                ioGlobalStdSet
                0x0008f40c                net_sysctl
                0x0009e6bc                sethostname
                0x0001d618                frcWatchdogLoad
                0x000deef4                taskVarDelete
                0x00037060                memtest_extended
                0x0012018c                xdr_WDB_EVTPT_ADD_DESC
                0x00103c4c                print64
                0x00073668                _savegpr_25_l
                0x000754bc                __ugt64
                0x000ab08c                nfsDrv
                0x00043a4c                frcTestDispReg
                0x000b7e10                igmp_input
                0x00071a50                pow
                0x000ebd3c                attrib
                0x0007581c                _restgprx_28_l
                0x000f0944                rBuffReadReserve
                0x000a1aac                muxIoctl
                0x000cb084                strncpy
                0x000d403c                unlink
                0x000c535c                sinh
                0x0006fdfc                intConnect
                0x0007439c                __ftoull
                0x0007b5f8                __eqsf2
                0x00132424                wdbDbgRegsSet
                0x000c7340                __sfvwrite
                0x000e8b3c                devs
                0x000c3054                tcp_fasttimo
                0x00073764                __DIAB_rd_pk_db
                0x00073534                _restgpr_19
                0x0009a698                ftpDataConnInitPassiveMode
                0x000b1ac0                sendto
                0x000c0988                tcp_dooptions
                0x000725c0                log10
                0x000a0fdc                muxDevStart
                0x000dfa84                tyWrite
                0x0009e34c                hostTblSearchByName
                0x00011bf4                sysBspRev
                0x000785f8                __negdi2
                0x000cd22c                classInit
                0x00114a24                xdr_u_long
                0x00073538                _restgpr_20
                0x000b46c4                xdr_readargs
                0x0009a060                ftpReplyGetEnhanced
                0x000d5f5c                logTask
                0x000e8e50                substrcmp
                0x00010f94                frcPrintBomRev
                0x000ef9b4                rngFlush
                0x00093110                soisconnected
                0x00075ba0                __diab_alloc_semaphore
                0x000d6fa4                memPartAddToPool
                0x0006e02c                cacheArchLibInit
                0x0006818c                set_new_handler(void (*)(void))
                0x00104f70                c
                0x000443c0                frcTestSummary
                0x0002866c                EEPROMDetect
                0x000cd550                classShow
                0x00011c00                flashBootSectorInit
                0x00129a70                taskShowInit
                0x00075660                _restfprs_23_l
                0x001121f8                xdr_replymsg
                0x000cd2b0                classDestroy
                0x001245bc                semBGiveDefer
                0x0011decc                wdbVioChannelRegister
                0x00037bd0                tbReset_lmbench
                0x00065c8c                __start_cp_handler
                0x000e5098                moduleInfoGet
                0x00025bac                __WRITE_FLASH16
                0x000d6c08                realloc
                0x0001a7b4                gtMemoryGetInternalRegistersSpace
                0x00059b8c                RBString_T::RBString_T(RBString_T &)
                0x00075420                __lt64
                0x00075ce8                endTxSemTake
                0x00010aa0                sysClkEnable
                0x00129a10                taskStackAllot
                0x00075d2c                endTxSemGive
                0x000195ac                gtPci0MapBootDeviceMemorySpace
                0x000a8f94                netLibInit
                0x000b4a28                xdr_symlinkargs
                0x00119b94                wdbSuspendSystem
                0x0007584c                _savegprx_18_l
                0x00087664                ip_optcopy
                0x000d12bc                scanField
                0x000e76bc                periodRun
                0x0006d358                unsigned char type_info function
                0x0001e50c                ethReadMibCounter
                0x000dcd2c                symTblInit
                0x00094b70                panic
                0x0001936c                gtPci0MapDevice2MemorySpaceDAC
                0x00075794                _savefprx_22_l
                0x000450b4                isPMC280UsrFlashPresent
                0x00075144                __urem64
                0x0007a4ac                __fpcmp_parts_d
                0x00076344                endObjFlagSet
                0x00076388                end8023AddressForm
                0x0011ff84                xdr_WDB_CALL_RETURN_INFO
                0x00075908                _restvr23
                0x0012aa6c                wdDestroy
                0x001202ac                xdr_WDB_MEM_REGION
                0x00124c18                semCTake
                0x000c1e94                tcp_init
                0x00064880                abs(long)
                0x00131598                _sigCtxLoad
                0x000a0218                igmpLibInit
                0x0012da94                wvLibInit2
                0x0009f268                ifBroadcastSet
                0x0001a91c                gtMemorySetPciRemapValue
                0x00070d1c                vxPowerDown
                0x00083738                in_addmulti
                0x0010424c                iosDrvShow
                0x0001b4ec                frcGppIntConnect
                0x0011f8c0                wdbUserEvtLibInit
                0x000dddfc                symShowInit
                0x0006f7bc                fppArchTaskCreateInit
                0x000ee32c                lstInit
                0x000dd0bc                symSAdd
                0x0010d850                cbioBlkCopy
                0x00094bf4                _netMalloc
                0x000779b0                __fixsfdi
                0x000c208c                tcp_template
                0x00076c88                loattach
                0x000804c4                _db_show_arptab
                0x000ee7cc                qFifoPut
                0x000267c4                frcFlashRead
                0x00075778                _savefprx_15_l
                0x0006dd6c                bcopy
                0x000e9410                changeReg
                0x000eecd8                qFirst
                0x00034904                AllocateMemory
                0x000cb244                strtok
                0x000742a8                _f_ftoull
                0x00075758                _restfprx_29_l
                0x0007ab10                __negdf2
                0x000efe0c                sllPutAtTail
                0x0001aa18                gtMemoryGetDeviceParam
                0x0008fb54                mHdrClGet
                0x000ee3ec                lstDelete
                0x00017ba8                userRsrvMemMalloc
                0x000bda08                tcp_reass
                0x0009efc0                ipHeaderVerify
                0x000a4ed0                muxTkUnbindUpdate
                0x000dab48                sigfillset
                0x001257b4                semFlushDefer
                0x0001c3f8                vxCntmrIntCtrlInit
                0x0003fcbc                ptime
                0x00070d78                vxFpscrSet
                0x000caa3c                memcmp
                0x00028194                isIntFlagSet
                0x00075798                _savefprx_23_l
                0x000b17fc                listen
                0x000758cc                _savevr28
                0x0011298c                svcerr_noprog
                0x00073ea0                sfpDoubleNormalize2
                0x0005ab7c                cplus_demangle_opname
                0x001290a0                taskLock
                0x00074998                __udiv32
                0x00065d30                __cplus_type_matcher
                0x00055864                frcDmaTestStart0
                0x00093b14                sbreserve
                0x00103e80                print64Fine
                0x0011e110                udpRcv
                0x000748a4                __diab_intrinsics_tornInit
                0x00113f94                svcudp_bufcreate
                0x001253f4                semTerminate
                0x000735d4                _restgpr_19_l
                0x00114d90                xdr_opaque
                0x00075be0                endRcvRtnCall
                0x000b986c                in_pcbladdr
                0x0011a154                wdbRpcResendReply
                0x0009e188                hostDelete
                0x000c5f44                fdopen
                0x000d626c                memLibInit
                0x00073680                _savegpr_31_l
                0x00026078                print_status
                0x000648a0                abs(long double)
                0x0005a450                xrealloc
                0x000938d0                sbwakeup
                0x00072c90                altivecRestore
                0x00032748                DoHuffman
                0x000d0d20                sscanf
                0x00025ba0                __READ_FLASH32
                0x00012124                sysDelay
                0x000f547c                dosChkDsk
                0x000d5b6c                logInit
                0x00010598                sysGetCpuRev
                0x00036e00                print_test_name
                0x000b4c00                xdr_dirlist
                0x000ce75c                envShow
                0x00070df4                vxDecSet
                0x000c0d00                tcp_xmit_timer
                0x000c4860                isalpha
                0x0007bbf4                _restv28
                0x00012568                memoryRead
                0x00075788                _savefprx_19_l
                0x000ea020                dosFsConfigGet
                0x0007a25c                __divdf3
                0x001260a8                semMTake
                0x00105e0c                tt
                0x0007ba68                __negsf2
                0x000cafe0                strncat
                0x000a4c64                muxTkBibInit
                0x00028988                setI2cReady
                0x001328b4                wdbDbgIabrGet
                0x000e9bac                ramDevCreate
                0x0006ffd8                intLockLevelGet
                0x000757f8                _restgprx_27_l
                0x00022490                mpscChanStopTx
                0x0011f41c                wdbEvtptLibInit
                0x00124094                semBInit
                0x000a9c78                inetstatShow
                0x00072b4c                altivecSave
                0x000aa628                routeShow
                0x0006d150                unsigned long long type_info function
                0x0002b774                frcBibDrvShow
                0x0001a778                gtMemoryMapInternalRegistersSpace
                0x000257cc                frcBootFlashFile
                0x00093bc8                sbappend
                0x0012d03c                workQAdd2
                0x00073bb4                __lltod
                0x000ea3b0                copyStreams
                0x000d942c                ptyDrv
                0x000b3388                tftpQuit
                0x000dacd0                sigaction
                0x000eef08                qPriBMapListDelete
                0x0001f284                ethPortSetTxCoal
                0x0002944c                ishour
                0x000fbff8                dosFsChkDsk
                0x00081878                bcopy_to_mbufs
                0x000f9f10                fat16ClustValueSet
                0x00024b08                sysRamDrvConfig
                0x000755e4                _restf30
                0x0011227c                xdr_callhdr
                0x00080f7c                ether_ifattach
                0x00079e3c                __muldf3
                0x000e4054                moduleCreate
                0x000e4a2c                moduleSegEach
                0x0009496c                splnet2
                0x000cd114                cacheDrvPhysToVirt
                0x00013720                pciConfigInWord
                0x000de3b0                taskSwapHookAttach
                0x00036de0                memboundary_check
                0x0012a294                taskStatusString
                0x0005913c                windviewConfig
                0x000746d0                __DIAB_wr_pk_ld
                0x000758e4                _savevr31
                0x000c8630                __sread
                0x000734f0                _savefpr_23_l
                0x000b7aa0                ifIndexLibShutdown
                0x00010654                sysGetSDR1
                0x000c6994                fread
                0x0006a268                type_info::~type_info(void)
                0x000a2018                muxDevUnload
                0x00073588                _savegpr_20
                0x0008413c                ipintr
                0x000b4424                xdr_attrstat
                0x000d32c4                fppInit
                0x00021f54                mpscChanStart
                0x000ee214                dllRemove
                0x00128884                taskResume
                0x00083eb0                ip_init
                0x000db9b0                sigreturn
                0x0012b674                windResume
                0x00056830                usrKernelInit
                0x000a06e4                inet_network
                0x00127dd8                taskDestroy
                0x0001b7f8                frcGppIntEnable
                0x0012992c                taskIdVerify
                0x00094904                splnet
                0x00129920                taskIdSelf
                0x000a0d84                muxDevLoad
                0x0007c538                ifa_ifwithaddr
                0x00119714                wdbExternInit
                0x0006d8a8                altivecArchInit
                0x000110a8                frcPrintUserFlashSize
                0x00013d10                pciConfigOutWord
                0x000b416c                xdr_fattr
                0x00073474                _restfpr_22_l
                0x0012da40                fileUploadPathWrite
                0x0002fcf0                DoStringSort
                0x000a38d4                muxTkCookieGet
                0x0003bca0                fwr
                0x00075620                _savef26
                0x0007562c                _savef29
                0x00043958                lat_h
                0x00018ef8                gtPci0MapMemoryBank3DAC
                0x00072efc                cacheArchInvalidate
                0x00075614                _savef23
                0x000124e4                sysPhysToVirt
                0x001332c4                qJobEach
                0x000a4ac0                muxTkBibShow
                0x000363f8                test_and_comparison
                0x000366e4                test_blockseq_comparison
                0x000a0914                inet_aton
                0x0003c714                latMemRead
                0x00075784                _savefprx_18_l
                0x000b7240                netMblkClGet
                0x000b410c                xdr_nfstime
                0x00010534                sysMemProbeSup
                0x00070bf4                mmuPpcBatInitMPC7x5
                0x00054f84                frcDmaTestTaskEntry0
                0x00070dc0                vxTimeBaseSet
                0x000b45d4                xdr_diropres
                0x00070d68                vxHid0Get
                0x0001d000                frcDmaIntDisable
                0x000ee328                lstLibInit
                0x00124fa0                semGive
                0x00100174                dosFsLastAccessDateEnable
                0x000275b0                frcI2cReset
                0x00034de4                TicksToFracSecs
                0x000d47e0                ioDefPathGet
                0x0007c4d8                ifIndexToIfp
                0x001315fc                _sigCtxStackEnd
                0x000b2338                tcpLibInit
                0x0007b588                __cmpsf2
                0x000ec580                index
                0x000756e0                _savefprs_26_l
                0x001328cc                wdbDbgDabrSet
                0x0009b5ec                ftpdInit
                0x0011fabc                wdbAltivecSave
                0x00034c40                gettimeofday
                0x0006ac54                bad_cast::~bad_cast(void)
                0x000ba20c                in_setsockaddr
                0x00097764                bsdListen
                0x000755a4                _restf14
                0x0001af80                gtDmaStart
                0x000758dc                _savevr30
                0x00070ccc                vxDsisrGet
                0x0012a3fc                taskOptionsString
                0x00070c3c                mmuPpcBatInit750fx
                0x000853ec                ip_slowtimo
                0x000f3d6c                dcacheShow
                0x000c6684                fopen
                0x0007566c                _restfprs_26_l
                0x0007355c                _restgpr_29
                0x00129058                taskPriorityGet
                0x000b40b0                xdr_ftype
                0x00120dd0                xdr_CHECKSUM
                0x000ccc18                cacheEnable
                0x00070cf4                vxSrr0Set
                0x000cb5f0                asctime_r
                0x000cebb0                fioFltInstall
                0x00073580                _savegpr_18
                0x0010dfbc                cbioWrapBlkDev
                0x00075710                _restfprx_18_l
                0x00093c38                sbappendrecord
                0x000cba4c                localtime
                0x00075668                _restfprs_25_l
                0x00098168                bsdSendmsg
                0x00109748                lexActions
                0x000cab24                memset
                0x00075718                _restfprx_20_l
                0x000ea2dc                pwd
                0x0011cfb8                wdbBpInstall
                0x0006a6f8                __si_type_info::dcast(type_info const &, int, void *, type_info const *, void *) const
                0x00077244                __gcc_bcmp
                0x00073484                _restfpr_26_l
                0x000efcac                rngFreeBytes
                0x000de2fc                taskSwitchHookDelete
                0x00019ac4                gtPci0MapCPUspace
                0x00057ebc                wdbConfig
                0x0009150c                sodisconnect
                0x000aafd0                mRouteShow
                0x000eec84                qTerminate
                0x000b001c                rlogInTask
                0x000755e8                _restf31
                0x000d59ec                iosIoctl
                0x000dda3c                symFindByValueAndType
                0x000d3a08                hashTblRemove
                0x0002523c                frcBootFlashVerify
                0x00065d10                __eh_free
                0x0003bb84                cpy
                0x00081b94                do_protocol_with_type
                0x000105c8                sysSioWrite
                0x00023a4c                vxSdmaIntDisable
                0x00065e60                __cp_pop_exception
                0x000cea84                excTask
                0x000979f0                bsdConnect
                0x001305a0                _dbgFuncCallCheck
                0x00036e5c                memtest_usage
                0x00012d44                sysBusToLocalAdrs
                0x00043e54                frcTestI2C_EEPROM
                0x0010e120                cbioDevCreate
                0x0008fd40                m_adj
                0x000c725c                ftell
                0x0006cd40                double type_info function
                0x000aa4f8                routestatShow
                0x000ef0ac                qPriBMapPut
                0x000dea2c                taskSwitchHookShow
                0x0002e114                abs_randwc
                0x000c90ac                __swbuf
                0x000c9ff8                srand
                0x0012dc6c                wvEvtClassClear
                0x000e9f7c                dosFsDevInitOptionsSet
                0x000cb310                strxfrm
                0x00075860                _savegprx_23_l
                0x0007587c                _savegprx_30_l
                0x0010d7a0                cbioBytesRW
                0x0001e76c                ethernetResetConfigReg
                0x00065114                __get_eh_table_language
                0x0012c5e4                windPendQGet
                0x00021974                vxCunitIntConnect
                0x0007b7f8                __ltsf2
                0x0008c7d8                rt_setgate
                0x000a253c                muxPacketDataGet
                0x00081a78                build_cluster
                0x00104248                iosShowInit
                0x0006a29c                type_info::operator==(type_info const &) const
                0x00104ad8                bh
                0x00070c80                vxTas
                0x0010f6bc                clnt_rawInclude
                0x000d4a70                ioTaskStdSet
                0x0009dfc0                hostAdd
                0x000756d0                _savefprs_22_l
                0x0002e14c                randnum
                0x00074134                __ulltod
                0x000a1970                muxPollSend
                0x000ee740                qFifoCreate
                0x0009b124                ftpTransientFatalInstall
                0x0011dca8                wdbE
                0x00125af4                semQFlushDefer
                0x000c5dc0                clearerr
                0x0001a548                gtMemoryMapDevice1Space
                0x000d8d54                pipeDrv
                0x0007380c                __DIAB_rd_sw_db
                0x0007346c                _restfpr_20_l
                0x000b43c4                xdr_filename
                0x0012e4a4                wvUploadStart
                0x000b0300                rlogin
                0x0003ec24                delta
                0x0007361c                _restgpr_29_l
                0x00094a3c                splx
                0x0008fd1c                m_cat
                0x00073454                _restfpr_14_l
                0x000c8750                __sclose
                0x000192b4                gtPci0MapDevice2MemorySpace
                0x0008caec                rtinit
                0x000b711c                netMblkClChainFree
                0x000b09e8                mRouteAdd
                0x00094eb0                initstate
                0x000ccd18                cacheFlush
                0x001258ac                semIntRestrict
                0x000c5e24                fclose
                0x000b2574                tftpXfer
                0x000b12a0                rpcInit
                0x00019fe8                gtMemoryGetBankBaseAddress
                0x000757d0                _restgprx_17_l
                0x000ade80                nfsClientClose
                0x000c78b0                getchar
                0x0007aba8                __truncdfsf2
                0x00042fe0                frcTestEthernet
                0x00073444                __common_intrinsicsInit
                0x0006a9f0                type_info::type_info(char const *)
                0x00099350                etherMultiDel
                0x001150d4                xdr_string
                0x000735c4                _restgpr_15_l
                0x00107f98                ledControl
                0x000734cc                _savefpr_14_l
                0x000a08c0                inet_ntoa
                0x000fb910                dosFsVolFormat
                0x000d4754                ioDefPathSet
                0x000b4adc                xdr_readdirargs
                0x00129168                taskUnlock
                0x00103ec0                print64Row
                0x000161d0                gtInit
                0x00095b2c                ipAttach
                0x000c5474                scalb
                0x00094a74                ksleep
                0x000cca38                time
                0x000ac6b8                nfsExportRead
                0x000cdc84                opendir
                0x000166c8                gtIntCtrlInit
                0x000106c8                __WRITE_FLASH64
                0x00112328                accepted
                0x00029784                rtccall
                0x000eb1f4                lsr
                0x0007bb70                _savev24
                0x000ba158                in_pcbdetach
                0x000194e8                gtPci0MapDevice3MemorySpaceDAC
                0x00016614                gtInitWindows
                0x000b0788                routeDelete
                0x00104d24                bd
                0x000ea390                rm
                0x0012047c                xdr_WDB_REG_WRITE_DESC
                0x000c489c                isgraph
                0x00085c00                ip_forward
                0x000b33e0                tftpSend
                0x00018b48                gtPci0MapMemoryBank1
                0x00054d10                frcIdmaTestInit1
                0x00057ad8                usrNetIfConfig
                0x000db51c                sigtimedwait
                0x0004203c                frcTestMemPerf
                0x000c1e80                tcpRandHookDelete
                0x0008c4f8                routeSwap
                0x0005a248                cplusCallDtors
                0x000c62a8                fgetpos
                0x00130298                cplusUnloadFixup
                0x0001d710                frcWatchdogDisable
                0x0005576c                frcDmaCompleteAppIntHandler0
                0x000cd14c                classLibInit
                0x000c484c                isalnum
                0x00034e1c                sysUserLEDSet
                0x0007357c                _savegpr_17
                0x000c8d9c                tmpnam
                0x0006edd4                excVecGet
                0x00022e2c                sdmaChanInit
                0x000c48c4                isprint
                0x000732a8                mmuPpcSrGet
                0x000cb424                __strxfrm
                0x000e642c                timexN
                0x000567a0                usrReadGPR
                0x00075870                _savegprx_27_l
                0x00072068                exp
                0x0007560c                _savef21
                0x00132f70                qJobGet
                0x00072f34                cacheArchFlush
                0x00077c24                __fixunssfdi
                0x0006e858                vecOffRelocMatchRev
                0x00114998                xdr_u_int
                0x00115f74                xdrrec_skiprecord
                0x000c7cf0                putc
                0x000e62b0                timex
                0x000e6e58                unld
                0x000e73d8                help
                0x000a8d54                netDrvFileDoesNotExist
                0x0008faa0                mBufClGet
                0x000a23ac                muxAddressForm
                0x00075708                _restfprx_16_l
                0x000e8618                d
                0x0011a1b4                wdbRpcNotifyConnect
                0x00010ba8                sysTimestampDisable
                0x00094058                sbappendcontrol
                0x000e5a0c                execute
                0x00111530                xdr_pmaplist
                0x00011eb4                sysInWord
                0x0008fc1c                m_getclr
                0x000a179c                muxReceive
                0x00123e6c                semBLibInit
                0x000ab5a8                nfsDevListGet
                0x0002e1d0                dblprint
                0x000755f0                _savef14
                0x00064f18                __sjpopnthrow
                0x0007b104                __mulsf3
                0x000dd894                symFindByNameAndType
                0x000106f0                frccachePpcEnable
                0x000c9764                div_r
                0x000c574c                finite
                0x000eee68                qInfo
                0x000f1874                dcacheDevCreate
                0x000af5c8                rresvport
                0x000f3964                dcacheDevMemResize
                0x00070e88                vxGhsFlagSet
                0x0011aa8c                wdbCtxCreate
                0x0011fae4                wdbAltivecRestore
                0x000cabe0                strcmp
                0x0002315c                sdmaChanStopTx
                0x00024094                serialChanSetBaudRate
                0x00132924                wdbDbgHwBpStub
                0x000b54c0                tcpShowInit
                0x000b2254                shutdown
                0x00127440                taskLibInit
                0x0009f2c0                ifDstAddrSet
                0x000f0f00                rBuffSetFd
                0x000f0444                rBuffWrite
                0x0001b23c                gtDmaSetMemorySpaceAttr
                0x000757e8                _restgprx_23_l
                0x0011343c                svc_simpleInclude
                0x0010fc14                callrpc
                0x001123f8                _seterr_reply
                0x00028c30                settime
                0x000d3668                hashTblCreate
                0x0008a778                rtable_init
                0x000ac738                nfsExportFree
                0x00111210                pmap_getmaps
                0x001322c4                wdbDbgHwBpFind
                0x000a36c0                muxIterateByName
                0x00056818                sysTimeBaseLPut
                0x00073394                mmuPpcExtraBatEnableMPC7x5
                0x000c5a24                tan
                0x0006b524                __class_type_info::__class_type_info(char const *, __class_type_info::base_info const *, unsigned int)
                0x00073508                _savefpr_29_l
                0x0007585c                _savegprx_22_l
                0x000936f0                sbselqueue
                0x0001a6ec                gtMemoryMapDeviceBootSpace
                0x000d8510                objCoreTerminate
                0x00070d14                vxEieio
                0x000c9800                ldiv_r
                0x000172bc                sysMachChkExcpHand
                0x0012f41c                tsfsUploadPathWrite
                0x00071084                vxPowerModeSet
                0x00120a20                xdr_WDB_OPQ_DATA_T
                0x0010dd18                cbioShow
                0x000732cc                mmuPpcExtraBatInit
                0x000efcf0                rngPutAhead
                0x000a456c                muxTkPollReceive2
                0x00073460                _restfpr_17_l
                0x00069d18                __builtin_vec_new
                0x0008a0c0                rn_walksubtree
                0x000731f0                mmuPpcBatInit
                0x000eb850                xcopy
                0x00075820                _restgprx_29_l
                0x00012598                showMap
                0x00012d30                sysGetBusSpd
                0x0007c858                ifa_ifwithaf
                0x000e7658                bootChange
                0x000449a4                frcTestDispFreq
                0x000977c4                bsdAccept
                0x000bd70c                soo_select
                0x000dba34                sigblock
                0x000c5608                copysign
                0x000dbc8c                sigqueue
                0x000d4828                getcwd
                0x0001f000                ethTxReturnDesc
                0x00015644                sysPciConfigInsertLong
                0x00127154                taskRegsGet
                0x0006cb38                wchar_t type_info function
                0x000b5120                igmpShowInit
                0x000735c8                _restgpr_16_l
                0x00123f28                semBCreate
                0x000779f8                __fixunsdfdi
                0x0007a6f0                __nedf2
                0x000b4e04                xdr_fhandle
                0x0008f2e0                pffindtype
                0x0011f224                wdbDbgBpRemoveAll
                0x0011fda0                xdr_WDB_CTX_STEP_DESC
                0x0007bb78                _savev25
                0x00127d54                taskDelete
                0x00073594                _savegpr_23
                0x000735b4                _savegpr_31
                0x00011e90                sysOutLong
                0x000e0690                vmBaseLibInit
                0x0001ac64                gtDmaTransfer
                0x000d5e74                logFdDelete
                0x0001463c                pciAutoConfigNonMonarch
                0x00067e4c                __deregister_frame
                0x0006e8c4                excRelocConnect
                0x0006bf78                __rtti_func
                0x000738a8                _d_dtoll
                0x0006dc88                altivecShowInit
                0x00017e40                gtPci0OverBridgeWriteConfigReg
                0x000735e8                _restgpr_24_l
                0x000de2a4                taskCreateHookDelete
                0x001165cc                authnone_create
                0x00070dfc                vxDecGet
                0x0002e0c8                randwc
                0x000ec61c                bootStringToStruct
                0x0007f65c                arptfree
                0x00080530                db_show_arptab
                0x00011b80                sysAltivecProbe
                0x000650ac                __eh_rtime_match
                0x000e98fc                logout
                0x00044294                frcTestRTC
                0x000ef7c8                qPriListCalibrate
                0x0012da74                wvLibInit
                0x000755d4                _restf26
                0x0001fb2c                vxEthernetIntDisable
                0x000ccdd8                cachePipeFlush
                0x000efe3c                sllGet
                0x000c88bc                stdioFpDestroy
                0x000c91a0                __swsetup
                0x000b6f38                netPoolDelete
                0x000266fc                frcFlashGetInfo
                0x0006f8f0                fppRegsToCtx
                0x0012af2c                wdCancel
                0x00071100                atan
                0x000def94                taskVarGet
                0x000c6214                fgetc
                0x000418f8                frcTestgettimeofday
                0x00034b8c                CreateFile
                0x00075774                _savefprx_14_l
                0x0009e710                gethostname
                0x000b7c08                igmp_init
                0x000d650c                memalign
                0x000cf198                sprintf
                0x0001f198                ethRxReturnBuff
                0x00070cc4                vxDarGet
                0x00025c98                frcFlashAutoSelect
                0x00042798                frcTestSubsysVendID
                0x00119624                wdbTaskInit
                0x000c5004                exp__E
                0x000a01d8                ifRouteCleanup
                0x0010fe18                clnttcp_create
                0x00073bf0                sfpDoubleNormalize
                0x000eeda0                qAdvance
                0x0012c34c                windWdStart
                0x0012f814                evtLogM1
                0x00073b30                _d_lltod
                0x000d37b8                hashTblTerminate
                0x00077968                __fixdfdi
                0x000cae50                strerror_r
                0x000ef130                qPriBMapGet
                0x000cb6b8                difftime
                0x00131464                fppRestore
                0x000216ac                cunitSetAccessControl
                0x00077304                __cmpdi2
                0x00012378                sysMmuMapAdd
                0x0011a2ec                wdbSvcLibInit
                0x00042998                frcTestConfigEthPorts
                0x00083db8                mcastHashTblLookup
                0x000c95ec                atexit
                0x00085a94                ip_rtaddr
                0x00024048                serialChanStop
                0x00027c34                frcEEPROMDummyWrite
                0x0003f26c                kb
                0x000ee258                dllGet
                0x00129838                taskUndelay
                0x0012d850                semEvStop
                0x000cade4                strcspn
                0x00073660                _savegpr_23_l
                0x0007b778                __gesf2
                0x000e6608                timexPre
                0x0011b8f4                wdbEventPost
                0x0001ac34                gtDmaCommand
                0x0011efa4                wdbFppSave
                0x00132938                _setjmpSetup
                0x0001d5e4                frcWatchdogInit
                0x00011f4c                sysToMonitor
                0x000d46a8                ioFullFileNameGet
                0x000ea6a4                chkdsk
                0x00127100                taskOptionsGet
                0x00016994                gtIntDisconnect
                0x000c4cac                asin
                0x0002cd28                frcVPDRead
                0x0007bb60                _savev22
                0x000c4970                setlocale
                0x000d1bc4                scanCharSet
                0x00058014                wdbExternEnterHook
                0x000ead54                dirList
                0x000594cc                usrInit
                0x0002f850                DoNumSort
                0x000b219c                getpeername
                0x00121c18                eventClear
                0x000b0c40                mRouteEntryDelete
                0x000ae684                pingLibInit
                0x0006d9a8                altivecTaskRegsSet
                0x000c8294                scanf
                0x0002cae0                frcVPDWrite
                0x000ad28c                nfsFileWrite
                0x000cd09c                cacheDrvInvalidate
                0x00075734                _restfprx_27_l
                0x000ab120                nfsDrvNumGet
                0x000735ac                _savegpr_29
                0x000cb660                ctime_r
                0x00015700                gtPciCpuDevNum
                0x000213dc                brgInit
                0x000755b4                _restf18
                0x000b483c                xdr_writeargs
                0x000eec38                qDelete
                0x000b42fc                xdr_sattr
                0x000105f0                sysRdCpuReg
                0x00024570                vxMpscUartRxInt
                0x00073468                _restfpr_19_l
                0x000fbee0                dosFsVolUnmount
                0x00132a2c                qJobCreate
                0x000735d0                _restgpr_18_l
                0x0012d69c                semEvStart
                0x00017ea8                gtPci0OverBridgeReadConfigReg
                0x000e9e64                dosFsDevInit
                0x000e5fa8                shellLogoutInstall
                0x00059410                wvOff
                0x0006bd58                __rtti_ptr
                0x000f3c24                dcacheUpd
                0x000c37fc                tcp_usrreq
                0x0008ece0                udp_usrreq
                0x000de4cc                taskSwapHookDetach
                0x00106f14                ledClose
                0x00132364                wdbDbgHwBpHandle
                0x000e7980                sp
                0x000ea1d0                cd
                0x000e9748                printErrno
                0x001247a4                semCCreate
                0x00105198                s
                0x00094db0                srandom
                0x000e991c                h
                0x00056928                netLoadSymTbl
                0x0006cc3c                long double type_info function
                0x000e9f84                dosFsMkfs
                0x001302e0                cplusXtorSet
                0x00011510                frcGetExtSramSize
                0x0001c184                gtCntmrEnable
                0x000402a4                save_results
                0x000735ec                _restgpr_25_l
                0x00010740                sysL2BackGlobalInv
                0x000d6c3c                cfree
                0x000ee564                lstNth
                0x000c40c4                tcp_ctloutput
                0x0003b7ec                rd
                0x000eed10                qGet
                0x000668f0                __throw_bad_typeid
                0x000f0ab4                rBuffReset
                0x000da698                selWakeupListLen
                0x0003bebc                frd
                0x00012b9c                memRead
                0x001243e8                semBTake
                0x0009f044                ifAddrAdd
                0x00026b68                frcFlashBlockErase
                0x0004573c                mpsc_cause_regs_dump
                0x00066d54                exception::exception(void)
                0x0011a708                wdbSvcDsaSvcRemove
                0x00081874                check_trailer
                0x00116438                xdr_reference
                0x00126230                semMGiveForce
                0x00023dbc                serialChanInit
                0x000566f8                usrPci2MemDmaStart
                0x000b4d8c                xdr_statfsres
                0x0010dbcc                cbioParamsGet
                0x000755d0                _restf25
                0x0012691c                semShowInit
                0x000df820                tyMonitorTrapSet
                0x0012a994                wdInit
                0x000c97ac                ldiv
                0x00113440                registerrpc
                0x000dac00                sigismember
                0x000e9df8                dosFsInit
                0x000b0a80                mPrivRouteEntryAdd
                0x0013134c                dsmInst
                0x00042dec                frcTestEthModeSet
                0x000b7a54                ifIndexLibInit
                0x0007583c                _savegprx_14_l
                0x0006dcc0                altivecTaskRegsShow
                0x0001c3a0                gtCntmrSetTCTclocks
                0x0001a430                gtMemoryMapBank3
                0x0001ee1c                ethPortSend
                0x0006af7c                __user_type_info::__user_type_info(char const *)
                0x0008213c                in_canforward
                0x001328dc                wdbDbgDataAccessStub
                0x00043278                frcTestMPP18ISR_soft
                0x001043e0                iosFdShow
                0x0007473c                __DIAB_wr_sw_fl
                0x000d6538                valloc
                0x00081ddc                netTypeAdd
                0x00025320                frcbootFlashReadRst
                0x000649bc                cplusArraysInit
                0x00073478                _restfpr_23_l
                0x000757ac                _savefprx_28_l
                0x0003fdd0                tvdelta
                0x0006ce44                float type_info function
                0x00075558                __ult64
                0x0008ba70                rtioctl
                0x000c682c                fputc
                0x000743c8                _f_lltof
                0x000735f0                _restgpr_26_l
                0x000d4988                ioDefDevGet
                0x0006e444                cacheErrnoSet
                0x00037394                get_word
                0x0001c76c                vxCntmrIntEnable
                0x000745d0                _f_ulltof
                0x0011600c                xdrrec_eof
                0x00070d04                vxFirstBit
                0x0003d8dc                step
                0x00045334                detectRAMsize
                0x00034ae0                RemoveMemArray
                0x000a2704                muxDevExists
                0x0012b2bc                windSpawn
                0x00073510                _savefpr_31_l
                0x00075714                _restfprx_19_l
                0x0009aec8                ftpDataConnGet
                0x00132a90                qJobInit
                0x000468c0                SDMA_RXBD_regs_dump
                0x000b728c                netTupleGet
                0x000ac5fc                nfsMntDump
                0x00116728                clnt_sperror
                0x0006f1a4                excIntHandle
                0x000886a8                rn_refines
                0x0010df38                cbioDevVerify
                0x00128674                taskSuspend
                0x000e7754                period
                0x000e4eec                moduleIdListGet
                0x000de670                taskDeleteHookAdd
                0x00030e1c                DoFourier
                0x000906c8                sobind
                0x000b2a10                tftpInit
                0x00017f9c                gtPci0MapMemory0space
                0x00073554                _restgpr_27
                0x000dd47c                symFindSymbol
                0x0012dcf4                wvObjInst
                0x000537d4                frcEEPROMTestWrite
                0x00070e24                vxMemProbeSup
                0x000a3078                muxPollStart
                0x000b328c                tftpInfoShow
                0x0006b170                __si_type_info type_info function
                0x000821a4                in_socktrim
                0x00070d0c                vxPvrGet
                0x0008ac88                rtalloc
                0x0002925c                ismon
                0x000efe58                sllRemove
                0x000757a0                _savefprx_25_l
                0x0008a4ac                rn_destroyhead
                0x000b509c                xdr_exportnode
                0x000e3c7c                loadCommonMatch
                0x000599f0                usrClock
                0x000b200c                getsockopt
                0x000cba90                localtime_r
                0x0001d6dc                frcWatchdogEnable
                0x00119914                wdbModeSet
                0x00019f28                gtPci0DisableBrokenAgentDetection
                0x00056720                usrMem2PciDmaStart
                0x000ee554                lstLast
                0x000aa438                arpShow
                0x000d5c70                logMsg
                0x000b6e80                netPoolInit
                0x000e7f08                show
                0x00010644                sysL2crPut
                0x00075644                _restfprs_16_l
                0x000f0bbc                rBuffNBytes
                0x00026d4c                frcFlashUnlock
                0x0006e5ec                cacheArchDmaFree
                0x00076d84                looutput
                0x00083c70                in_iaonnetof
                0x0011fc48                xdr_WDB_CTX_CREATE_DESC
                0x0012731c                taskIdDefault
                0x00093280                soisdisconnected
                0x0003fa9c                micromb
                0x0011f2a4                wdbDbgBpRemove
                0x000735cc                _restgpr_17_l
                0x000757b4                _savefprx_30_l
                0x00118250                wdbTsfsDrv
                0x000a8cd8                netDrvDebugLevelSet
                0x0001058c                sysGetPrid
                0x0002ca00                frcVPDInit
                0x000cbe40                strftime
                0x00055aa8                frcTestWatchDogAppStop
                0x000e1728                loadElfInit
                0x000697b8                __builtin_vec_delete
                0x000d61a8                logShow
                0x00025f34                operation_complete
                0x000c4964                localeconv
                0x000b5064                xdr_exports
                0x000efde8                sllPutAtHead
                0x00075760                _restfprx_31_l
                0x00090bb4                soclose
                0x00044f28                frcTestEthPHYTestMode
                0x00011668                frcCPUClockGet
                0x0012b3a4                windDelete
                0x0012b770                windPriNormalSet
                0x00119c78                wdbResumeSystem
                0x00012f18                pciFindDevice
                0x000408f4                l_overhead
                0x0006e268                cacheArchDisable
                0x0001a28c                gtMemoryMapBank0
                0x000a2818                muxError
                0x000cddf4                stat
                0x00121f48                kernelTimeSlice
                0x000e96f8                pc
                0x00012e50                pciConfigLibInit
                0x000eff80                rBuffLibInit
                0x00073540                _restgpr_22
                0x000567dc                usrWriteGPR
                0x000758c4                _savevr27
                0x0002a4f4                frcBibDataShow
                0x00073598                _savegpr_24
                0x00111838                reg_service
                0x0003f99c                micro
                0x000c4888                isdigit
                0x0009f530                ifMetricSet
                0x0001d678                frcWatchdogService
                0x000efdbc                sllDelete
                0x001234c8                msgQShow
                0x000aaeb8                hostShow
                0x0009354c                soqinsque
                0x000115a0                frcPrintMv64360Version
                0x0008d00c                udp_input
                0x000191f0                gtPci0MapDevice1MemorySpaceDAC
                0x0005596c                watchDogApp
                0x00088664                rn_search_m
                0x00120034                xdr_WDB_EVT_DATA
                0x000755bc                _restf20
                0x000c771c                fwrite
                0x0007bbbc                _restv21
                0x000f593c                dosChkLibInit
                0x0012ea4c                wvTaskNamesPreserve
                0x00010e78                frcBoardIdInit
                0x000a8ef4                netDrvFileDoesNotExistInstall
                0x00104584                dbgHelp
                0x0003b928                wr
                0x001123b4                rejected
                0x000106b8                SET_THRM3
                0x00068584                operator new [](unsigned int, void *)
                0x00093a04                sowakeup
                0x00029134                isday
                0x00070e9c                vxImmrDevGet
                0x00037748                getParams
                0x0009fc40                ifAllRoutesDelete
                0x000c8b00                __stdout
                0x00125d98                semMInit
                0x0003ea94                timing
                0x000289e8                gettime
                0x00044cac                testRdReg
                0x00040140                insertinit
                0x000b48f0                xdr_createargs
                0x000b8e40                in_cksum
                0x000e39a4                loadSegmentsAllocate
                0x0011a254                wdbRpcGetArgs
                0x00017d90                frcPci0ReadConfigReg
                0x000de6fc                taskDeleteHookDelete
                0x000dea58                taskSwapHookShow
                0x000ef5c8                qPriListPut
                0x00017c3c                __eabi
                0x00034c14                tbReset
                0x00092dac                sogetopt
                0x000ddb28                symEach
                0x00011efc                sysPhysMemTop
                0x00010a14                sysClkConnect
                0x0008f1f4                domaininit
                0x000af818                bindresvport
                0x0001c1e4                gtCntmrLoad
                0x000d3878                hashTblPut
                0x000f3888                dcacheDevTune
                0x0009a9f4                ftpDataConnInit
                0x000a91f4                netErrnoSet
                0x0011270c                svc_find
                0x00064d08                __get_dynamic_handler_chain
                0x00074170                _f_ftoll
                0x00021f48                mpscChanInit
                0x000531ac                frcTestDispAllPCI0Reg
                0x000d5280                iosFdDevFind
                0x000de254                taskHookInit
                0x00070e04                vxDecReload
                0x00074e64                __udiv64
                0x0002e250                nbench
                0x000b0de8                mPrivRouteEntryDelete
                0x000af914                rlogInit
                0x000d49dc                ioDefDirGet
                0x00016bd0                gtIntEnable
                0x000b1a04                connectWithTimeout
                0x000dfbac                tyRead
                0x000c8194                rewind
                0x00104360                iosDevShow
                0x0010a55c                yystart
                0x00012d48                sysUsDelay
                0x000e4af0                moduleCreateHookAdd
                0x000c6af8                freopen
                0x0006f938                intEnt
                0x0006e8a0                excConnect
                0x00057be0                usrBpInit
                0x000e9990                spyTask
                0x00054078                parse16
                0x00010680                vxHid1Set
                0x00065c68                __cp_eh_info
                0x00097480                ipMuxCookieGet
                0x000ee784                qFifoInit
                0x0007bba8                _savev31
                0x000fbce8                dosSetVolCaseSens
                0x0003fe90                timespent
                0x00057928                usrNetIfAttach
                0x000d21a8                floatInit
                0x00019e14                gtPci0ArbiterDisable
                0x000ce8a4                errnoOfTaskSet
                0x000cd198                classCreate
                0x000df020                taskVarSet
                0x0012f5b4                evtLogT0
                0x00074b20                __urem32
                0x00094434                sbflush
                0x000cf0c0                fdprintf
                0x0003f49c                latency
                0x000e4b94                moduleCreateHookDelete
                0x0011b880                wdbEventLibInit
                0x000a3054                muxTaskPriorityGet
                0x0001a8c4                gtMemoryEnableWindow
                0x000ec524                uswab
                0x000b10a0                routeAgeSet
                0x000b4ed8                xdr_mountname
                0x00073624                _restgpr_31_l
                0x00124f08                semLibInit
                0x00010988                sysL1DcacheDisable
                0x001154f8                xdr_float
                0x000739fc                _d_dtoull
                0x00091648                sosend
                0x00014414                pciSpecialCycle
                0x0006f914                fppCtxToRegs
                0x0008a4e0                rn_init
                0x00073584                _savegpr_19
                0x0006f8e8                fppProbe
                0x00059b70                RBString_T::clear(void)
                0x00075920                _restvr26
                0x000ac5b8                nfsMntUnmountAll
                0x00026fd8                flashAutoDetect
                0x0009a314                ftpHookup
                0x000b5ea4                udpstatShow
                0x00120404                xdr_WDB_REG_READ_DESC
                0x000454f8                PCI_DCD_regs_dump
                0x00075de4                endFlagsGet
                0x000b77cc                netMblkOffsetToBufCopy
                0x000b555c                tcpDebugShow
                0x00088780                rn_lookup
                0x000c8684                __swrite
                0x00112674                svc_unregister
                0x0006df90                bfill
                0x000a0108                ifRouteDisable
                0x00094b54                _remque
                0x0012e610                wvUploadStop
                0x000ccc58                cacheDisable
                0x00017f28                gtPci0MapIOspace
                0x00037bf8                gettimeofday_lmbench
                0x0007bbb4                _restv20
                0x000737d4                __DIAB_rd_pk_ld
                0x0007d140                ifioctl
                0x000ecd98                bootParamsShow
                0x000eb194                ls
                0x001328a0                wdbDbgTraceStub
                0x0004596c                brg_regs_dump
                0x00127ccc                exit
                0x000903c4                socreate
                0x000bc1a8                rip_init
                0x00022f40                sdmaDbg
                0x00064a24                __default_terminate
                0x000188ec                gtPci0MapInternalRegSpaceDAC
                0x0008010c                arpEntryDelete
                0x000ac4ac                nfsDirMount
                0x0012d5b4                msgQEvStop
                0x00019074                gtPci0MapDevice0MemorySpaceDAC
                0x000755fc                _savef17
                0x0011fb1c                wdbAltivecSet
                0x000cd454                classInstrument
                0x00093308                sonewconn1
                0x00132118                wdbDbgTraceModeClear
                0x00073678                _savegpr_29_l
                0x000cc8e8                __getZoneInfo
                0x00022a88                vxMpscIntDisable
                0x0012f284                wvTmrRegister
                0x0009f3a8                ifMaskSet
                0x001321c8                wdbDbgHwBpSet
                0x00011178                frcPrintBank0MemSize
                0x00075670                _restfprs_27_l
                0x0011fb48                wdbAltivecLibInit
                0x00075b9c                __diab_unlock_mutex
                0x000582ac                wdbSp
                0x001203a4                xdr_WDB_MEM_SCAN_DESC
                0x000330b8                DoNNET
                0x0011ed50                wdbCtxExitLibInit
                0x001195ac                wdbInstallRtIf
                0x000ba880                in_pcblookuphash
                0x000ef378                qPriBMapEach
                0x0007000c                mmuPpcLibInit
                0x000275c8                frcI2CWrite
                0x000993f8                etherMultiGet
                0x001305d8                _dbgInfoPCGet
                0x000683d8                operator new(unsigned int, void *)
                0x000dabac                sigdelset
                0x000c8388                setbuf
                0x000cce64                cacheDmaMalloc
                0x000bab64                icmp_init
                0x00011098                frcGetUserFlashSize
                0x0006a2e8                __rtti_class
                0x00070e90                vxImmrIsbGet
                0x000ec4c4                binvert
                0x000b40dc                xdr_nfs_fh
                0x0006d04c                unsigned long type_info function
                0x00075724                _restfprx_23_l
                0x000e4cc4                moduleFindByNameAndPath
                0x0006c070                __rtti_ptmf
                0x0012024c                xdr_WDB_EVTPT_DEL_DESC
                0x000a1e14                muxMCastAddrDel
                0x000e6030                shellIsRemoteConnectedSet
                0x000fa524                dosFsFatInit
                0x00116b94                get_myaddress
                0x000814fc                ether_delmulti
                0x00083580                in_ifaddr_remove
                0x000ac7ec                nfsExportShow
                0x00011f70                sysProcNumGet
                0x0007bbdc                _restv25
                0x000364d8                test_solidbits_comparison
                0x0011652c                xdr_pointer
                0x000e36b0                loadModuleAt
                0x00036b84                test_stuck_address
                0x000e0ef0                elfRelocRelEntryRd
                0x00083ca4                mcastHashInit
                0x00066c84                uncaught_exception(void)
                0x0007365c                _savegpr_22_l
                0x0001c038                gtCntmrStart
                0x0003eaa0                start
                0x0011a318                wdbSvcHookAdd
                0x00073578                _savegpr_16
                0x00022b10                vxMpscIntClear
                0x0012ba38                windSemDelete
                0x000b2fb4                tftpGet
                0x000a10b8                muxDevStop
                0x000414f4                frcTestbwMem
                0x00112e30                _authenticate
                0x0006f808                fppTaskRegsGet
                0x0007348c                _restfpr_28_l
                0x000214d8                brgDbg
                0x001048b4                e
                0x000c9618                atoi
                0x000ee02c                bufFree
                0x0011f8c4                wdbUserEvtPost
                0x000c4874                iscntrl
                0x000e0864                vmBaseGlobalMapInit
                0x0007c270                if_dettach
                0x00075604                _savef19
                0x000b715c                netMblkGet
                0x0003ed6c                save_n
                0x00075850                _savegprx_19_l
                0x000d8bd8                pathLastName
                0x0013034c                cplusCtors
                0x00093de0                sbappendaddr
                0x0003fbf8                milli
                0x00094c78                hashinit
                0x000559f8                watchDogIsr
                0x00068730                __builtin_delete
                0x000c64b0                fileno
                0x00059f58                RBString_T::append(char const *, int)
                0x0008829c                ip_getmoptions
                0x000ee0cc                checksum
                0x00011ecc                sysInLong
                0x0007607c                mib2Init
                0x00077fb8                __moddi3
                0x00017c94                frcPci0WriteConfigReg
                0x0012fc28                evtLogString
                0x0005805c                wdbExternExitHook
                0x0001a8fc                gtMemoryGetMemWindowStatus
                0x0001d744                ethPortInit
                0x000dece0                taskVarInit
                0x000ef62c                qPriListPutFromTail
                0x0006e7ec                vecOffRelocMatch
                0x00077dfc                __fixunssfsi
                0x0007e2e8                arpwhohas
                0x000c3194                tcp_slowtimo
                0x000c2458                tcp_newtcpcb
                0x000758bc                _savevr26
                0x00075790                _savefprx_21_l
                0x000d6cbc                memPartLibInit
                0x000e3788                loadModuleGet
                0x00010634                sysGetL2CR
                0x00023680                vxSdmaIntCtrlInit
                0x001173ac                wdbEndPktDevInit
                0x0009e4cc                hostTblSearchByAddr
                0x0007b474                __fpcmp_parts_f
                0x0003c7a0                loads
                0x0012dc60                wvEvtClassGet
                0x000ea008                dosFsMkfsOptionsSet
                0x0006fedc                intVecBaseGet
                0x000289b8                setI2cBusy
                0x00070cfc                vxSrr1Set
                0x0009f294                ifBroadcastGet
                0x00072e10                cachePpcDisable
                0x000821dc                in_lnaof
                0x001001b8                dosFsLibInit
                0x0011a87c                wdbTargetIsConnected
                0x00064a34                __terminate
                0x000d35ec                hashLibInit
                0x0007564c                _restfprs_18_l
                0x00068c90                __builtin_new
                0x000cb6fc                gmtime
                0x000cb170                strspn
                0x000e8364                m
                0x00078548                __muldi3
                0x00073840                __DIAB_rd_sw_fl
                0x000d3bf8                hashFuncModulo
                0x00111634                portmapd
                0x00028720                frcRTCDummyWrite
                0x000dd7b4                symByCNameFind
                0x0009e5a0                hostGetByAddr
                0x000735b0                _savegpr_30
                0x0006ff18                intLevelSet
                0x00010bec                sysTimestampPeriod
                0x000225f4                mpscChanSetCdv
                0x00018a84                gtPci0MapMemoryBank0DAC
                0x000e8b5c                lkup
                0x0006510c                __get_eh_table_version
                0x00013adc                pciConfigOutByte
                0x000b22ec                sockFdtosockFunc
                0x000fbd74                dosFsVolDescGet
                0x000d4b68                iosInit
                0x0009756c                bsdSocket
                0x000cafc4                strlen
                0x0009af2c                ftpLs
                0x000183b8                gtPci0GetMemory3Base
                0x000752fc                __eq64
                0x000d3d4c                open
                0x000a0c78                muxLibInit
                0x000757e0                _restgprx_21_l
                0x000dafcc                sigpending
                0x0007ddb8                arp_rtrequest
                0x000197e0                gtPci0MapP2pMem0SpaceDAC
                0x0008cf04                udp_init
                0x000ea018                dosFsConfigInit
                0x0001f230                ethPortSetRxCoal
                0x000740d8                _d_ulltod
                0x000c4944                toupper
                0x0011524c                xdr_array
                0x00075bd8                __diab_unlock_semaphore
                0x00093658                socantsendmore
                0x000b4aac                xdr_nfscookie
                0x000cd0dc                cacheDrvVirtToPhys
                0x000e8f18                mRegs
                0x000a9ec0                ipstatShow
                0x0007a7f0                __gedf2
                0x00080dd4                ether_input
                0x000d3d00                intContext
                0x000e9b20                spyHelp
                0x0007dd7c                ipEtherResolvRtn
                0x0011f610                wdbCtxStartLibInit
                0x0007f86c                arpioctl
                0x000cf2b8                vfdprintf
                0x000d3c14                hashFuncMultiply
                0x00076120                mib2ErrorAdd
                0x000ee16c                dllInit
                0x000281bc                clearIntFlag
                0x0007cfa0                if_slowtimo
                0x00057864                checkInetAddrField
                0x000523a8                pcicfg0_regs_dump
                0x0003eaf8                stop
                0x00073560                _restgpr_30
                0x000da3d0                selWakeupAll
                0x0012bbc8                windTickAnnounce
                0x000133c0                pciDevConfig
                0x0012f658                evtLogT0_noInt
                0x000e7ea4                ti
                0x0011824c                wdbNptShutdown
                0x000377e4                frcMemTest
                0x000cb624                clock
                0x0005a094                RBString_T::prepend(RBString_T &)
                0x0012daf8                wvEvtLogStart
                0x000756c4                _savefprs_19_l
                0x000230e0                sdmaChanStopRx
                0x001246e8                semCLibInit
                0x000c7aa4                getw
                0x000747a8                __lsl64
                0x00132870                windIntStackSet
                0x00036a6c                test_bitflip_comparison
                0x000b2818                tftpTask
                0x00054670                testIsr
                0x0006d254                unsigned short type_info function
                0x00025064                bootFlashParamsProgram
                0x000753d0                __le64
                0x000c4814                __assert
                0x0006c624                long type_info function
                0x0011c44c                wdbGopherLibInit
                0x0002af90                frcBibAttach
                0x000a25a8                muxPacketAddrGet
                0x000c9710                div
                0x00046b54                SDMA_TXBD_regs_dump
                0x000c95dc                abs
                0x00057d50                usrStartupScript
                0x000cabac                strchr
                0x000a09a0                ipLibInit
                0x000c8030                __srefill
                0x001313c4                fppSave
                0x00035464                ramTest16bit
                0x0009e86c                icmpMaskGet
                0x00024308                vxMpscUartDevReset
                0x0011f4b8                wdbEvtptClassConnect
                0x00070cdc                vxSrr1Get
                0x000930fc                soisconnecting
                0x000c68f4                fputs
                0x000acd48                nfsRename
                0x0001d6ac                frcWatchdogNMILoad
                0x000734dc                _savefpr_18_l
                0x00073590                _savegpr_22
                0x00087c94                ip_pcbopts
                0x000da6bc                selWakeupType
                0x000eed70                qResort
                0x000a3324                muxPollDevAdd
                0x000e810c                td
                0x00059b08                RBStringIterator_T::RBStringIterator_T(RBString_T const &)
                0x000b71f4                netClusterGet
                0x00076b84                endPollStatsInit
                0x00011500                frcGetFlashOrg
                0x00129ad4                taskInfoGet
                0x00070d70                vxHid1Get
                0x00010b44                sysTimestampConnect
                0x000b9e20                in_pcbconnect
                0x000b2bdc                tftpPeerSet
                0x000758a4                _savevr23
                0x00075624                _savef27
                0x00059c8c                RBString_T::operator=(RBString_T &)
                0x000cdd7c                closedir
                0x0009919c                bsdZbufSockRtn
                0x000c4d54                acos
                0x000d5300                iosFdFree
                0x000ba060                in_pcbdisconnect
                0x00075618                _savef24
                0x0002d02c                DoEmFloatIteration
                0x001304a0                _dbgInstSizeGet
                0x00041c00                frcTestWhoAmI
                0x00089378                rn_addroute
                0x00059fe8                RBString_T::append(char)
                0x00073528                _restgpr_16
                0x00124a24                semCGive
                0x000801d4                db_print_sa
                0x00075648                _restfprs_17_l
                0x00045654                PCI_REMAP_regs_dump
                0x000f1774                rBuffInfoGet
                0x00012d3c                intDisconnect
                0x00013528                pciConfigInByte
                0x0001f2fc                vxEthernetIntCntlInit
                0x000ccee8                cacheFuncsSet
                0x0011a4cc                wdbSvcDispatch
                0x00121608                eventSend
                0x00112050                xdr_deskey
                0x0001eb04                etherInitRxDescRing
                0x000553b8                frcDmaTestTaskEntry1
                0x0001f2d0                ethBCopy
                0x0005b0d4                cplus_demangle_set_style
                0x00075f20                endObjectUnload
                0x000e0bf4                vmBaseStateSet
                0x00079db8                __subdf3
                0x000b47c4                xdr_readres
                0x0012f5a8                evtBufferBind
                0x00114160                svcudp_create
                0x00022a00                vxMpscIntEnable
                0x000a3800                muxTkDrvCheck
                0x000b1ea4                recvmsg
                0x000ee860                qFifoInfo
                0x0007367c                _savegpr_30_l
                0x00112d90                svc_run
                0x0006e9b0                excIntConnect
                0x00037adc                frcTestMemTest
                0x000948d4                splSemInit
                0x000dea00                taskCreateHookShow
                0x00025418                frcBootFlashSectorErase
                0x000cce14                cacheTextUpdate
                0x000d3d18                intCount
                0x000efc64                rngIsEmpty
                0x0011f1bc                wdbDbgBpFind
                0x0007363c                _savegpr_14_l
                0x000ea06c                dosFsDateTimeInstall
                0x00019138                gtPci0MapDevice1MemorySpace
                0x000ef16c                qPriBMapRemove
                0x0006dab0                altivecCtxToRegs
                0x000df82c                tyIoctl
                0x001259a0                semQFlush
                0x00094260                sbcompress
                0x0012f474                evtLogFuncBind
                0x000b73f4                netClPoolIdGet
                0x001154f4                xdr_floatInclude
                0x00075910                _restvr24
                0x000da344                selWakeup
                0x00056770                usrDmaDone
                0x00067ca4                __register_frame_info_table
                0x00073544                _restgpr_23
                0x00075940                _restvr30
                0x0008a360                rn_inithead
                0x0011ad88                wdbMemCoreLibInit
                0x000b2d0c                tftpPut
                0x00021bf8                vxCunitIntEnable
                0x00040178                insertsort
                0x00015718                gtPciIntrToVecNum
                0x000c2538                tcp_drop
                0x0011f38c                wdbDbgBreakpoint
                0x0002c3cc                frcPCIDataWrite
                0x0006aea8                bad_typeid::~bad_typeid(void)
                0x00019e40                gtPci0ParkingDisable
                0x0008fc60                m_prepend
                0x000d48a8                getwd
                0x000735d8                _restgpr_20_l
                0x00083d64                mcastHashTblDelete
                0x000bd8dc                soo_unselect
                0x000baabc                in_pcbrehash
                0x00110844                clntudp_bufcreate
                0x00075bc8                __diab_lock_semaphore
                0x000e4c0c                moduleFindByName
                0x0001e598                ethernetPhyReset
                0x000ea330                mkdir
                0x0002f7f8                doubleTest
                0x000c33f4                tcp_timers
                0x000d50b0                iosDevFind
                0x00067bd0                __register_frame_info
                0x000dba00                sigsetmask
                0x000883cc                ip_freemoptions
                0x00092fe4                sohasoutofband
                0x0010f7ec                clntraw_create
                0x000e7040                unldByNameAndPath
                0x0006fe6c                intVecGet
                0x0001700c                sysIntEnable
                0x00066fe4                bad_exception::~bad_exception(void)
                0x000d84fc                objCoreInit
                0x000db8dc                sigwait
                0x000eee00                qKey
                0x000bde90                tcp_input
                0x000d8448                objAlloc
                0x000d3920                hashTblFind
                0x0007352c                _restgpr_17
                0x0010d940                cbioModeGet
                0x0009f1e4                ifAddrSet
                0x00085360                iptime
                0x000bc2ac                rip_input
                0x00127dac                taskTerminate
                0x000ccc98                cacheLock
                0x0008e760                udp_ctlinput
                0x000e66b0                timexShow
                0x000d415c                close
                0x000c49dc                frexp
                0x0008521c                ip_freef
                0x0007b008                __addsf3
                0x000ee948                qCreate
                0x001258f8                semQInit
                0x0012f2f8                tsfsUploadPathCreate
                0x0011fbe8                xdr_WDB_CTX
                0x0001228c                sysNvRamSet
                0x0001a254                gtMemoryGetDeviceWidth
                0x00011c60                sysHwInit
                0x00065ce4                __eh_alloc
                0x0004507c                isPMC280DualCPU
                0x00069a68                operator delete [](void *, nothrow_t const &)
                0x0007dd44                ipToEtherMCastMap
                0x00025a08                frcBootFlashFileV
                0x0003ef08                bandwidth
                0x000d0e24                fioScanV
                0x000e7a8c                taskIdFigure
                0x00034d54                StopStopwatch
                0x000a0bb0                rawLibInit
                0x000758f8                _restvr21
                0x00024db0                bootFlashParamRead
                0x000900e4                m_devget
                0x00042834                frcTestEthLinkDetails
                0x000c9898                mbtowc
                0x0006c358                __dynamic_cast
                0x000c8a60                stdioFp
                0x00074624                __ulltof
                0x00043df4                frcTestMV64360Semaphore
                0x00074898                __diab_intrinsics_implInit
                0x000796cc                __pack_d
                0x0012ccec                windPendQTerminate
                0x000b73b4                netMblkClJoin
                0x000d36fc                hashTblInit
                0x000bd4a4                soo_ioctl
                0x0013068c                _dbgBrkDisplayHard
                0x000e59c8                shellScriptAbort
                0x000c928c                vfprintf
                0x00019de8                gtPci0ArbiterEnable
                0x000d75e8                memPartFree
                0x00119ea4                wdbRpcXportInit
                0x000735f4                _restgpr_27_l
                0x00081f84                netTypeInit
                0x000cb0e4                strpbrk
                0x00097b80                bsdConnectWithTimeout
                0x00073648                _savegpr_17_l
                0x00093790                sbwait
                0x000313c4                DoAssign
                0x00114978                xdr_int
                0x000da568                selNodeDelete
                0x00053ec8                frcTestRTCRead
                0x00064908                cplusCallNewHandler(void)
                0x000db014                sigsuspend
                0x0005a18c                cplusCtorsLink
                0x000b0fac                rtrequestAddEqui
                0x000dba68                raise
                0x0001a0d8                gtMemoryGetBankSize
                0x000b06ac                routeNetAdd
                0x0012aa24                wdDelete
                0x00093d00                sbinsertoob
                0x00018fbc                gtPci0MapDevice0MemorySpace
                0x000d48f0                ioDefPathCat
                0x00116978                clnt_sperrno
                0x000d7c04                free
                0x0009b0ac                ftpTransientConfigSet
                0x001303ec                cplusDtors
                0x000dcf2c                symAlloc
                0x000b3f48                udpLibInit
                0x00120d48                xdrCksum
                0x00114b44                xdr_u_short
                0x0001e634                ethPortReset
                0x000dcb90                symLibInit
                0x000daed0                sigprocmask
                0x000e0de8                vmBasePageSizeGet
                0x000ef96c                rngDelete
                0x000756c8                _savefprs_20_l
                0x0011fed4                xdr_WDB_EVT_INFO
                0x0008f350                pffindproto
                0x00071048                vxMemProbe
                0x0012a6bc                tickGet
                0x000b20e4                getsockname
                0x000a35d0                muxPollDevStat
                0x00128e04                taskPrioritySet
                0x0007bb90                _savev28
                0x000b4fc4                xdr_groups
 *(.text.*)
 *(.stub)
 *(.gnu.warning)
 *(.gnu.linkonce.t*)
 *(.init)
 *(.fini)
 *(.glue_7t)
 *(.glue_7)
 *(.rdata)
 *(.mips16.fn.*)
 *(.mips16.call.*)
 *(.reginfo)
 *(.rodata)
 *fill*         0x00133358        0x8
 .rodata        0x00133360    0x33f70 vxWorks.tmp
                0x0014ed30                __class_type_info virtual table
                0x0014ec90                bad_alloc virtual table
                0x0014edb0                bad_cast virtual table
                0x0014eb48                bad_exception virtual table
                0x0014e1e0                _sch_istable
                0x0014ec8a                nothrow
                0x0014cdcc                wdbToolName
                0x0014ed90                bad_typeid virtual table
                0x0014ed70                __user_type_info virtual table
                0x0014c5d8                rtMem
                0x0014ed50                __si_type_info virtual table
                0x0014e3e0                _sch_tolower
                0x0014eb68                exception virtual table
                0x0014e4e0                _sch_toupper
                0x0014c5dc                bufferedRtShow
                0x0014edd0                type_info virtual table
                0x0014c588                nfsMaxPath
                0x00156e88                copyright_wind_river
 *(.rodata.*)
 *(.gnu.linkonce.r*)
 *(.rodata1)
 *(.sdata2)
 *(.sbss2)
                0x001672d0                .=ALIGN(0x10)
                0x001672d0                .=ALIGN(0x10)
                0x001672d0                wrs_kernel_text_end=.
                0x001672d0                _wrs_kernel_text_end=.
                0x001672d0                etext=.
                0x001672d0                _etext=.

.data           0x001672d0     0xe8d0
                0x001672d0                wrs_kernel_data_start=.
                0x001672d0                _wrs_kernel_data_start=.
 *(.data)
 .data          0x001672d0     0xe8c0 vxWorks.tmp
                0x00170790                intCnt
                0x001743d4                mutexOptionsTsfsDrv
                0x0016773c                flash_write
                0x0016a6dc                _pSysBatInitFunc
                0x0016a6a0                fpCtlRegName
                0x00173af8                qPriListFromTailClassId
                0x0016a03c                mClBlkConfig
                0x0016a1d4                sysCplusEnable
                0x00170158                pTcpRandHook
                0x0016fea8                pTcpstates
                0x00170800                memPartSemInitRtn
                0x00169670                maxruns
                0x0016f408                ___x_diab_sfpfnorm_o
                0x00170724                cacheLib
                0x00173d20                yyv
                0x00173cf8                __loctime
                0x001706e4                fppTaskRegsDFmt
                0x0016a6b4                _func_intConnectRtn
                0x0016f9f0                rtNewAddrMsgHook
                0x0016f9f4                _pUdpPcbHead
                0x0016f566                ___x_gnu__muldi3_o
                0x001704f4                __costate
                0x0016fde0                nfsTimeoutUSec
                0x00173ba8                dosDirHdlrsList
                0x00173b00                rBuffClassId
                0x001705f4                cacheMmuAvailable
                0x0016fe88                portmapdPriority
                0x0016f6a0                mCastHashTblSize
                0x001696e8                tbStart_lm
                0x0016f407                ___x_diab_sfpflltof_o
                0x0016f489                ___x_diab_sxpadd64_o
                0x0016f9a8                mutexOptionsNetDrv
                0x00170814                mutexOptionsSelectLib
                0x0016f6ac                ip_defttl
                0x00173d28                lexNclasses
                0x001701ac                tcpTraceRtn
                0x00170828                symGroupDefault
                0x00174178                cbioMutexSemOptions
                0x0016f730                udp_ttl
                0x001687d0                global_fstruct
                0x0016f5ee                ___x_gnu__udiv_w_sdiv_o
                0x0016f73c                udp_pcbhashsize
                0x0016f600                llinfo_arp
                0x001701c0                __ctype
                0x0016fee8                tftpTaskPriority
                0x0016f567                ___x_gnu__negdi2_o
                0x0016f638                arpt_keep
                0x00173b24                dcacheUpdTaskOptions
                0x001701c8                __locale
                0x0016f487                ___x_diab_sxprem64_o
                0x001696c4                tests_1arg
                0x0016f54e                ___x_gnu__ashrdi3_o
                0x00168154                bootrom_sramregfile
                0x00170620                fieldSzIncludeSign
                0x0016a1f8                __cplusObjFiles
                0x0016feec                tftpTaskOptions
                0x001680c4                bibMallocRtn
                0x0016f565                ___x_gnu__moddi3_o
                0x0016f411                ___x_diab_sxpasr64_o
                0x0016f40a                ___x_diab_wr_pk_db_o
                0x00167748                FlashCmdS
                0x0016f49c                __rtc_alloc_ptr
                0x001707b0                logTaskOptions
                0x0016f5f0                ___x_gnu__udivmoddi4_o
                0x00175b48                trcScanDepth
                0x0016f3f9                ___x_diab_hfpfutof_o
                0x0016f764                _panicHook
                0x001707f8                memPartBlockErrorRtn
                0x00173b68                fat16Debug
                0x001675dc                preset_val
                0x001697a0                IntLatencyTotal
                0x0016f40d                ___x_diab_wr_sw_db_o
                0x0016a2d8                cachePpcReadOrigin
                0x0017462c                wvEvtBufferFullNotify
                0x0016a6c4                _func_intVecBaseGetRtn
                0x00173b04                wvRBuffMgrId
                0x0016f734                udp_sendspace
                0x0016a0ac                clDescTblNumEnt
                0x0016f640                arpRxmitTicks
                0x00170614                excTaskOptions
                0x00170c38                spTaskOptions
                0x00173be0                dosVDirDebug
                0x0016f48d                ___x_diab_restfprs_o
                0x00170128                _landAttackSafe
                0x0016a174                sysAdaEnable
                0x0016f760                mutexOptionsUnixLib
                0x0016fe70                rlogTaskOptions
                0x00174630                __cplusLoad_o
                0x0016a2c0                ___x_gnu_frame_o
                0x001706e0                fppTaskRegsCFmt
                0x0016f68c                ether_ipmulticast_min
                0x0016754c                frcPciConfigWrite
                0x0016f9dc                _igmpLeaveGrpHook
                0x0016feac                tcpstates
                0x0016f561                ___x_gnu__floatdisf_o
                0x001672d0                evtTimeStamp
                0x0017450c                restartTaskStackSize
                0x0016a2a8                ___x_gnu__eh_o
                0x0016f3f8                ___x_diab_hfpfitof_o
                0x00173b70                dosFsDrvNum
                0x001697d0                testInfo
                0x0016f55c                ___x_gnu__fixunstfdi_o
                0x0016f55e                ___x_gnu__fixunsxfsi_o
                0x00175b40                taskMsrDefault
                0x0016f5f1                ___x_gnu__umoddi3_o
                0x0016f898                ftpdDebug
                0x00170855                tyDeleteLineChar
                0x00170010                inetdomain
                0x0016f9f8                _pTcpPcbHead
                0x0016f6bc                ip_nhops
                0x001707e4                smMemPartAllocRtn
                0x0016f401                ___x_diab_sfpddtoull_o
                0x001707f0                memSysPartId
                0x0016ffd0                _pNetBufCollect
                0x00170c40                ldCommonMatchAll
                0x0016a190                __cplusLibgccObjs
                0x00167560                pciDebug
                0x00167540                pciConfigMech
                0x0016f5ef                ___x_gnu__udivdi3_o
                0x0016f834                bsdSock43ApiFlag
                0x001707a8                logTaskId
                0x00170120                rip_recvspace
                0x0016f491                ___x_diab_restgprx_o
                0x0016f9d4                netLibGenInitialized
                0x0016a2b8                ___x_gnu_exception_o
                0x00170138                tcp_outflags
                0x001675a8                gtInternalRegBaseAddr
                0x0016a2d4                _func_altivecProbeRtn
                0x0016f888                ftplPasvModeDisable
                0x0016a1ec                runtimeVersion
                0x0016f55f                ___x_gnu__fixxfdi_o
                0x00167484                sysCpu
                0x0016f484                ___x_diab_sxpdiv32_o
                0x0016748c                sysExcMsg
                0x0016f9a0                muxMaxBinds
                0x0016a2f8                _pSysL3CacheInvalEnableFunc
                0x0017004c                icmpmaskrepl
                0x0017445c                semTakeTbl
                0x00167558                noofgeidevices
                0x00169e68                stdlibFiles
                0x001707a0                iosFdNewHookRtn
                0x0016f9c8                _protoSwIndex
                0x0016f8a0                ftpdTaskOptions
                0x00170618                excTaskStackSize
                0x0016a598                fpRegName
                0x0016f40c                ___x_diab_wr_pk_ld_o
                0x0016f560                ___x_gnu__floatdidf_o
                0x0016f998                muxBibLock
                0x001680cc                frcBibShowRtn
                0x0016a100                sysClDescTblNumEnt
                0x00167554                nooffeidevices
                0x00168728                paramnames
                0x0016f55d                ___x_gnu__fixunsxfdi_o
                0x001743dc                wdbTsfsDefaultDirPerm
                0x00169d34                assertFiles
                0x001744fc                taskClassId
                0x0016f9d0                _mCastRouteFwdHook
                0x0016fde4                nfsReXmitSec
                0x0016f404                ___x_diab_sfpdulltod_o
                0x0016775c                protectBIB
                0x0016f3ff                ___x_diab_rd_sw_ld_o
                0x0016a6d0                _func_intDisableRtn
                0x00167488                sysBootLine
                0x00169d6c                localeFiles
                0x0016f4ad                ___x_diab_libg_o
                0x00173d1c                yys
                0x00173d10                _func_dbgTargetNotify
                0x0016a844                _func_vxMemProbeHook
                0x00174500                namelessPrefix
                0x00169594                wordcatarray
                0x0016f3fc                ___x_diab_rd_pk_ld_o
                0x00169dcc                stdioFiles
                0x0016f634                arpt_prune
                0x0016a2e8                _pSysL2CacheEnable
                0x0016f754                sowakeupHook
                0x0016a6c0                _func_intVecBaseSetRtn
                0x0016f63c                arpt_down
                0x0016a6d8                mmuPpcDEnabled
                0x00174638                __cplusUsr_o
                0x0016f405                ___x_diab_sfpfftoll_o
                0x0016f558                ___x_gnu__fixunsdfdi_o
                0x0016f54c                ___x_gnu___gcc_bcmp_o
                0x0016f486                ___x_diab_sxpdiv64_o
                0x0016a218                cplusDemanglerMode
                0x0016f6b4                ipStrongEnded
                0x0016fe50                _pingTxTmo
                0x0016fe64                rlogShellName
                0x0016f56c                __shtab
                0x00169d0c                frcTestWdInitConnect
                0x0016a2c9                ___x_gnu_opdel_o
                0x00170938                shellTaskOptions
                0x00168114                bootrom_pciregfile
                0x0016f9ec                rtIfaceMsgHook
                0x00173b74                dosFsDebug
                0x00174634                __cplusLoadObjFiles
                0x0016f8b4                ftpsMaxClients
                0x00167744                flashBlocks
                0x0017463c                _archHelp_msg
                0x00169664                maxMove
                0x001686d8                lx_bindex
                0x00169798                mpp24Initialized
                0x0016a208                __cplusXtors_o
                0x0016f48e                ___x_diab_savefprs_o
                0x00170856                tyEofChar
                0x0016a6bc                _func_intVecGetRtn
                0x00170168                tcp_keepinit
                0x0016f62c                useloopback
                0x00167758                protectMAC
                0x00169ec4                stringFiles
                0x00174404                _func_breakpoint
                0x0016f563                ___x_gnu__floatdixf_o
                0x0016fdd4                mutexOptionsNfsDrv
                0x00167670                am29TopOffset
                0x0016865c                ftestnames
                0x00167740                flash_read
                0x001745e0                wdInstClassId
                0x0016f9e4                _mCastRouteCmdHook
                0x0016f3fe                ___x_diab_rd_sw_fl_o
                0x001744bc                semFlushDeferTbl
                0x00169790                netWorkInitStatus
                0x00167708                id
                0x0016a04c                clDescTbl
                0x0017003c                icmpmask
                0x00169cf8                watchdogFlag
                0x0016f3fd                ___x_diab_rd_sw_db_o
                0x0016f5ec                ___x_gnu__trampoline_o
                0x0017012c                tcprexmtthresh
                0x0017082c                syncSymAddRtn
                0x0016f562                ___x_gnu__floatditf_o
                0x0016f984                _presolvHostLibGetByName
                0x0016f9b8                netTaskPriority
                0x0016979c                ioTemp
                0x00174510                restartTaskOptions
                0x00170130                tcp_last_inpcb
                0x0016fdec                nfsSockBufSize
                0x0016fe90                portmapdStackSize
                0x0016f490                ___x_diab_savefprx_o
                0x00173a38                qFifoClassId
                0x0016a1f4                creationDate
                0x0016f5f2                ___x_gnu_dp_bit_o
                0x0016a2e4                _pSysL2CacheInvFunc
                0x0016f564                ___x_gnu__lshrdi3_o
                0x0016a2ac                __terminate_func
                0x00170858                mutexOptionsTyLib
                0x00170830                syncSymRemoveRtn
                0x0016a2d1                ___x_gnu_tinfo_o
                0x001707b4                logTaskStackSize
                0x0016f555                ___x_gnu__fixdfdi_o
                0x0016f980                hostInitFlag
                0x0016a0c0                sysClDescTbl
                0x0017093c                shellTaskStackSize
                0x0016a220                current_demangling_style
                0x0016f9c0                netTaskStackSize
                0x0016fde8                nfsReXmitUSec
                0x0017078c                hashClassId
                0x0016f494                ___x_diab_va_arg_o
                0x0016f40e                ___x_diab_wr_sw_fl_o
                0x00170940                shellHistSize
                0x0016f556                ___x_gnu__fixsfdi_o
                0x0016a2a5                ___x_gnu_cmathi_o
                0x00170880                mutexOptionsVmBaseLib
                0x0016f4a8                __rta_longjmp
                0x00173880                dosFsCacheSizeDefault
                0x0016a214                __cplusDem_o
                0x0016f838                bsdSockFunc
                0x00169794                mpp18Initialized
                0x0016fe74                rlogTaskStackSize
                0x0016f559                ___x_gnu__fixunsdfsi_o
                0x001705f0                cacheDataEnabled
                0x0016f894                _func_ftpTransientFatal
                0x0016f618                arpintrq
                0x0016fee4                tftpReXmit
                0x00170900                moduleClassId
                0x00173af4                qPriListClassId
                0x0016a01c                udpCfgParams
                0x0016f48b                ___x_diab_restfreg_o
                0x0016f48a                ___x_diab_sxpcmp64_o
                0x0016f551                ___x_gnu__cmpdi2_o
                0x001697c8                intConnectSoft
                0x0016f89c                ftpdTaskPriority
                0x0016a108                usrNetIfTbl
                0x0016fffc                _pNetPoolFuncTbl
                0x00173870                statTblSize
                0x00170160                tcp_keepintvl
                0x0017461c                wvUploadTaskStackSize
                0x0016a2a4                ___x_gnu_cstdlibi_o
                0x0016a6b8                _func_intVecSetRtn
                0x0016f9a4                _func_fileDoesNotExist
                0x0016a2ce                ___x_gnu_opvdelnt_o
                0x0017443c                semGiveTbl
                0x001743d8                binaryOptionsTsfsDrv
                0x0016f758                sb_max
                0x001707d0                mutexOptionsMemLib
                0x0017011c                rip_sendspace
                0x001707a4                iosFdFreeHookRtn
                0x001687f8                funcpointer
                0x0016f99c                muxTkDebug
                0x001745dc                wdClassId
                0x00167738                debug_flash_width
                0x0016fe4c                _pingTxInterval
                0x0016fed8                tftpVerbose
                0x00169d04                wdgCnt
                0x00170154                tcp_pcbhashsize
                0x001697cc                intConnectHard
                0x0016f498                ___x_diab_rtahooks_o
                0x0016fddc                nfsTimeoutSec
                0x00167544                pciMaxBus
                0x00174520                pTaskLastAltivecTcb
                0x00174430                msgQInstClassId
                0x0016f54d                ___x_gnu__ashldi3_o
                0x00167760                protectPCI
                0x001707f4                memDefaultAlignment
                0x001707e8                memPartClassId
                0x0016f40b                ___x_diab_wr_pk_fl_o
                0x0016f6d4                inetctlerrmap
                0x0016a1e4                buffer
                0x00173b10                dcacheUpdTaskStack
                0x001705e4                cacheDmaMallocRtn
                0x0016a1e8                runtimeName
                0x00174514                taskPriRangeCheck
                0x0016f493                ___x_diab_svrs_vpr_o
                0x00174508                restartTaskPriority
                0x0016a2f0                _pSysL2CacheDisable
                0x0017014c                tcp_rttdflt
                0x00174434                semClassId
                0x0016a6d4                mmuPpcIEnabled
                0x00174524                taskInstClassId
                0x0016f5f3                ___x_gnu_fp_bit_o
                0x0016f6a8                proxyBroadcastHook
                0x00170c3c                spTaskStackSize
                0x0016f9c4                netLibInitialized
                0x001685ec                non_monarchregfile
                0x001707ac                logTaskPriority
                0x00170884                mmuPhysAddrShift
                0x0016a2fc                _pSysL3CacheFlushDisableFunc
                0x00168688                bindex
                0x001697b8                tbTempHi
                0x001701b0                tcpReportRtn
                0x00168654                compilername
                0x0016a15c                wdbNumMemRegions
                0x00170610                excTaskPriority
                0x0016f740                _pNetDpool
                0x0016f88c                ftplTransientMaxRetryCount
                0x0016f744                _pNetSysPool
                0x0016a210                linkedCtorsInitialized
                0x00170824                mutexOptionsSymLib
                0x001707fc                memPartAllocErrorRtn
                0x0016a02c                ipCfgParams
                0x0016fee0                tftpTimeout
                0x0016a0b0                sysMclBlkConfig
                0x00169d14                usrExtraModules
                0x001675b0                internalSramTopAddr
                0x0016f738                udp_recvspace
                0x00175b44                trcDefaultArgs
                0x00168650                sysname
                0x00167750                FlashCmdE
                0x001705ec                cacheDataMode
                0x00173b6c                fatClugFac
                0x001675ac                nextFreeBlkPtr
                0x00169738                sysTimestampResetRtn
                0x0016f9e8                rtMissMsgHook
                0x0016fe60                remStdErrSetupTimeout
                0x0016f9d8                _igmpJoinGrpHook
                0x0016a6c8                _func_intLevelSetRtn
                0x00173a78                qPriBMapClassId
                0x0016a20c                cplusXtorStrategy
                0x0017016c                tcp_maxpersistidle
                0x0017087c                currentContext
                0x001707ec                memPartInstClassId
                0x0016a528                fpExcMsgTbl
                0x0016a300                _func_excTrapRtn
                0x00167730                num_flash_dev
                0x0016f9fc                _pTcpPcbPrint
                0x00170758                cacheNullFuncs
                0x001706fc                evtAction
                0x00169590                inpath
                0x00173db0                lexStateTable
                0x0016f4a4                __rtc_blkinfo_ptr
                0x001759b8                _sigfaulttable
                0x0016fe68                rlogTermType
                0x0016fe6c                rlogTaskPriority
                0x0016a840                vxPowMgtEnable
                0x0016f3fa                ___x_diab_rd_pk_db_o
                0x00170820                symTblClassId
                0x00173b08                dcacheUpdTaskId
                0x0016a2d0                ___x_gnu_opvnewnt_o
                0x0016f409                ___x_diab_sfpfulltof_o
                0x0016f55b                ___x_gnu__fixunssfsi_o
                0x001672d4                sysBatDesc
                0x00170148                tcp_mssdflt
                0x001707dc                smMemPartAddToPoolRtn
                0x001706f4                m2If64BitCounters
                0x0016f488                ___x_diab_sxpmul64_o
                0x0016a22c                libiberty_demanglers
                0x00169660                minMove
                0x001706f0                fastUdpInitialized
                0x00170164                tcp_keepcnt
                0x001706f8                _procNumWasSet
                0x00173b64                dosDirOldDebug
                0x0016f614                arpinit_done
                0x00170854                tyBackspaceChar
                0x0016f6b0                ipfragttl
                0x00174620                wvUploadTaskOptions
                0x00169fa8                endDevTbl
                0x00169cfc                watchdogAppId
                0x0016f557                ___x_gnu__fixtfdi_o
                0x001745f4                semEvIsFreeTbl
                0x0016f8b0                ftpdWindowSize
                0x001676bc                am29BotOffset
                0x0017442c                msgQClassId
                0x0016f8a8                ftpdWorkTaskOptions
                0x0016f3fb                ___x_diab_rd_pk_fl_o
                0x0016f718                udpDoCkSumRcv
                0x0016a028                icmpCfgParams
                0x001680d4                bootrom_userflregfile
                0x0016f71c                udp_in
                0x0016f495                ___x_diab_torn_syncatomic_o
                0x00169f20                __AltiVec_runtime
                0x0016f714                udpcksum
                0x001701b8                tcp_sendspace
                0x001680c8                bibFreeRtn
                0x0017084c                symLkupPgSz
                0x0016f497                ___x_diab_torn_syncsem_o
                0x00169f84                timeFiles
                0x001705e8                cacheDmaFreeRtn
                0x00169674                run
                0x00169d74                mathFiles
                0x0017440c                _func_wdbIsNowExternal
                0x0016a2d2                ___x_gnu_tinfo2_o
                0x0016fedc                tftpTrace
                0x00170778                cacheUserFuncs
                0x0016a2cb                ___x_gnu_opnew_o
                0x0016f552                ___x_gnu__divdi3_o
                0x00170c30                syncUnldRtn
                0x0016967c                tests_noarg
                0x001697b0                IntTimeBaseEnd
                0x0016f54f                ___x_gnu__bb_o
                0x00170e70                statTbl
                0x00174174                cbioClassId
                0x0016a2cc                ___x_gnu_opnewnt_o
                0x00174504                restartTaskName
                0x00170768                cacheDmaFuncs
                0x0016f5f4                ___x_gnu_vrsave_o
                0x00169d00                wdgService
                0x0016f5ed                ___x_gnu__ucmpdi2_o
                0x001707bc                logFdFromRlogin
                0x001675f4                bspEndIntConnect
                0x0016fe9c                pSockFdMap
                0x0016f988                _presolvHostLibGetByAddr
                0x00169ff0                tcpCfgParams
                0x00174624                wvUploadMaxAttempts
                0x0016f684                etherbroadcastaddr
                0x0016f9e0                _ipFilterHook
                0x001743f8                wdbGopherLock
                0x0016f72c                udp_last_inpcb
                0x0016a1e0                frc_end_of_vxworks
                0x00169310                out_pats
                0x0016f8a4                ftpdWorkTaskPriority
                0x001707e0                smMemPartFreeRtn
                0x0016a2ec                _pSysL2CacheFlush
                0x0016a104                ipMaxUnits
                0x0017449c                semGiveDeferTbl
                0x0016f550                ___x_gnu__clear_cache_o
                0x00170150                tcp_do_rfc1323
                0x0016f568                ___x_gnu__shtab_o
                0x0016f6b8                ipqmaxlen
                0x00167354                sysPhysMemDesc
                0x0017447c                semFlushTbl
                0x00173bd8                dosFsChkRtn
                0x00169668                tbStart
                0x001701a8                tcp_totbackoff
                0x0016a2cf                ___x_gnu_opvnew_o
                0x0016f40f                ___x_diab_wr_sw_ld_o
                0x0016fe5c                remLastResvPort
                0x0016a178                __includeGnuIntrinsics
                0x0016a2e0                cacheDToEnable
                0x001707b8                mutexOptionsLogLib
                0x0016f4ac                ___x_diab_comljmp_o
                0x00173bdc                dosFsVolFormatRtn
                0x0017079c                iosLibInitialized
                0x00169d08                wdgNMICnt
                0x001708ec                loadRoutine
                0x0017015c                tcp_keepidle
                0x0017441c                activeQHead
                0x001743e8                wdbOneShot
                0x0016fe48                _pingTxLen
                0x0016f9cc                _icmpErrorHook
                0x00174618                wvUploadTaskPriority
                0x0016f412                ___x_diab_sxplsr64_o
                0x00173b60                dosChkMinDate
                0x0016a2c8                ___x_gnu_new_o
                0x001704c0                _Randseed
                0x0016a180                __includeDiabIntrinsics
                0x00174534                taskRegsFmt
                0x001675fc                bspEndIntEnable
                0x00168820                in_pats
                0x0016a2ca                ___x_gnu_opdelnt_o
                0x0016f390                __saverest_o
                0x00170930                shellTaskName
                0x0016a2dc                cacheIToEnable
                0x00174628                wvUploadRetryBackoff
                0x0016fdd8                nfsMaxMsgLen
                0x0016f485                ___x_diab_sxprem32_o
                0x0016966c                totalerrors
                0x0016f553                ___x_gnu__eprintf_o
                0x0016f98c                mutexOptionsHostLib
                0x0016f402                ___x_diab_sfpdlltod_o
                0x001697c0                tbTempLo
                0x0016f403                ___x_diab_sfpdnorm_o
                0x0016f48f                ___x_diab_restfprx_o
                0x00167480                sysBus
                0x00170798                mutexOptionsIosLib
                0x00167600                bspEndIntDisable
                0x00169d38                ctypeFiles
                0x0016a2a6                ___x_gnu___dummy_o
                0x00170794                ioMaxLinkLevels
                0x00169d10                frcTestWdInitDisconnect
                0x0016f97c                hostListSem
                0x00169678                runerrors
                0x001704b8                fpClassId
                0x00170700                vmLibInfo
                0x00167514                reginittab
                0x0016f492                ___x_diab_savegprx_o
                0x001706ec                ftplDebug
                0x0016fe8c                portmapdOptions
                0x001743d0                wdbEndDebug
                0x00170934                shellTaskPriority
                0x0016f704                rtmodified
                0x00175b8c                qJobClassId
                0x0016f9b4                netTaskSemId
                0x001697a8                IntTimeBaseSt
                0x0016a304                excExtendedVectors
                0x0016f496                ___x_diab_torn_syncmutex_o
                0x0016a1f0                vxWorksVersion
                0x0016f630                arp_maxtries
                0x00174518                pTaskLastFpTcb
                0x0016f6c4                input_ipaddr
                0x0016753c                pciLibInitStatus
                0x00174614                fileUpPathDefaultPerm
                0x00170808                pipeMsgQOptions
                0x0016f9bc                netTaskOptions
                0x0016f48c                ___x_diab_savefreg_o
                0x001708f0                syncLoadRtn
                0x0016f55a                ___x_gnu__fixunssfdi_o
                0x0016f406                ___x_diab_sfpfftoull_o
                0x00175a08                taskRegName
                0x00170174                tcp_backoff
                0x001706e8                _dbgDsmInstRtn
                0x0016f694                ether_ipmulticast_max
                0x0016a158                wdbCommMtu
                0x0016f410                ___x_diab_sxplsl64_o
                0x0016a160                pWdbMemRegions
                0x00174438                semInstClassId
                0x0016a21c                cplusDemangleFunc
                0x0016f4a0                __rtc_free_ptr
                0x00168658                compilerversion
                0x001701bc                tcp_recvspace
                0x0016fef0                tftpTaskStackSize
                0x001705f8                classClassId
                0x0016f69c                subnetsarelocal
                0x00170c34                spTaskPriority
                0x00170804                memPartOptionsDefault
                0x0016a6cc                _func_intEnableRtn
                0x00167490                sysProcNum
                0x00167548                frcPciConfigRead
                0x00173d2c                lexClass
                0x00173b78                dosFatHdlrsList
                0x00173d0c                _func_dbgHostNotify
                0x001701fc                __clocale
                0x0016f8ac                ftpdWorkTaskStackSize
                0x0016f644                proxyArpHook
                0x00167550                pciConfigSpcl
                0x0017451c                pTaskLastDspTcb
                0x0016a2cd                ___x_gnu_opvdel_o
                0x00167734                flash_width
                0x0016f884                etherMultiDebug
                0x001675f8                bspEndIntDisconnect
                0x00173b0c                dcacheUpdTaskPriority
                0x0016f400                ___x_diab_sfpddtoll_o
                0x0016f890                ftplTransientRetryInterval
                0x00174408                _func_trace
                0x0016f554                ___x_gnu(float, float, short, double, int, _o)
                0x00168584                monarchregfile
                0x0016a2f4                snoopEnable
                0x00173b5c                dosChkDebug
 .data          0x00175b90        0x8 ctdt.o
                0x00175b94                _dtors
                0x00175b90                _ctors
 *(.data.*)
 *(.gnu.linkonce.d*)
 *(.data1)
 *(.eh_frame)
 *(.gcc_except_table)
 *crtbegin.o(.ctors)
 EXCLUDE_FILE ( *crtend.o)*(.ctors)
 *(SORT(.ctors.*))
 *(.ctors)
 *crtbegin.o(.dtors)
 EXCLUDE_FILE ( *crtend.o)*(.dtors)
 *(SORT(.dtors.*))
 *(.dtors)
                0x0017db90                _gp=(ALIGN(0x10)+0x7ff0)
 *(.got.plt)
 *(.got)
 *(.dynamic)
 *(.got2)
 *(.sdata)
 *(.sdata.*)
 *(.lit8)
 *(.lit4)
 *fill*         0x00175b98        0x8
                0x00175ba0                .=ALIGN(0x10)
                0x00175ba0                .=ALIGN(0x10)
                0x00175ba0                edata=.
                0x00175ba0                _edata=.
                0x00175ba0                wrs_kernel_data_end=.
                0x00175ba0                _wrs_kernel_data_end=.

.bss            0x00175ba0    0x70170
                0x00175ba0                wrs_kernel_bss_start=.
                0x00175ba0                _wrs_kernel_bss_start=.
 *(.sbss)
 *(.scommon)
 *(.dynbss)
 *(.bss)
 .bss           0x00175ba0     0x8250 vxWorks.tmp
                0x0017b088                __cplusStr_o
                0x0017b20c                signed char type_info node
                0x0017b1bc                char type_info node
                0x0017b1dc                float type_info node
                0x0017b1ec                unsigned long type_info node
                0x0017b1f4                unsigned long long type_info node
                0x0017b1b4                bool type_info node
                0x0017b188                __new_handler
                0x0017b1ac                short type_info node
                0x0017b1d4                double type_info node
                0x0017b180                nullObject
                0x0017b158                cplusNewHdlMutex
                0x0017b1a4                int type_info node
                0x0017b1e4                unsigned int type_info node
                0x0017b204                unsigned char type_info node
                0x0017b1fc                unsigned short type_info node
                0x0017b19c                long type_info node
                0x0017b1c4                wchar_t type_info node
                0x0017b15c                __cplusCore_o
                0x0017b194                long long type_info node
                0x0017b18c                void type_info node
                0x0017b1cc                long double type_info node
 *(COMMON)
 COMMON         0x0017ddf0    0x67f20 vxWorks.tmp
                                  0x0 (size before relaxing)
                0x0017ddf0                _func_smObjObjShow
                0x0017ddf4                taskSwitchTable
                0x0017de38                inetsw
                0x0017e178                msgQDistShowRtn
                0x0017e17c                _func_evtLogT1_noTS
                0x0017e180                __func_type_info type_info node
                0x0017e18c                mCastHashInfo
                0x0017e194                ifnet
                0x0017e198                _func_spyStop
                0x0017e19c                rlogindSocket
                0x0017e1a0                workQWriteIx
                0x0017e1a4                bad_alloc type_info node
                0x0017e1b0                _func_excInfoShow
                0x0017e1b4                ip_id
                0x0017e1b8                _func_evtLogReserveTaskName
                0x0017e1bc                dbgLockUnbreakable
                0x0017e1c0                drvTable
                0x0017e1c4                ip_protox
                0x0017e2c4                DCACHE_CTRL
                0x0017e348                global_emfloatstruct
                0x0017e360                zeroin_addr
                0x0017e364                __attr_type_info type_info node
                0x0017e370                _func_trgCheck
                0x0017e374                frcSysBoardId
                0x0017e378                pWvNetEventMap
                0x0017e37c                pAltivecRegSetObj
                0x0017e380                workQReadIx
                0x0017e384                use_result_dummy
                0x0017e388                fppDisplayHookRtn
                0x0017e38c                cbioClass
                0x0017e3c0                ioDefPath
                0x0017e4c0                _func_taskCreateHookAdd
                0x0017e4c4                somaxconn
                0x0017e4c8                _func_dspRegsListHook
                0x0017e4cc                _func_tmrConnect
                0x0017e4d0                max_protohdr
                0x0017e4d4                _func_evtLogTSched
                0x0017e4d8                tcpstat
                0x0017e5a8                vxIntStackBase
                0x0017e5ac                _func_dspTaskRegsShow
                0x0017e5b0                workQIsEmpty
                0x0017e5b4                arp_allocated
                0x0017e5b8                trgEvtClass
                0x0017e5bc                _func_selPtyDelete
                0x0017e5c0                wvDefaultBufOptions
                0x0017e5c4                mmuLibFuncs
                0x0017e5ec                redirOutFd
                0x0017e5f0                taskSwapTable
                0x0017e634                _func_evtLogO
                0x0017e638                pEndPktDev
                0x0017e63c                _func_selWakeupListInit
                0x0017e640                _wdbTaskBpBreakpoint
                0x0017e644                global_ofile_name
                0x0017e680                rttrash
                0x0017e684                _wdbTaskCont
                0x0017e688                semMGiveKernWork
                0x0017e68c                ftpsCurrentClients
                0x0017e690                wvLogHeader
                0x0017e694                trgCnt
                0x0017e698                errno
                0x0017e69c                mmuStateTransArraySize
                0x0017e6a0                pIntf
                0x0017e6a4                _func_ioTaskStdSet
                0x0017e6a8                _func_excIntHook
                0x0017e6ac                _func_selPtyAdd
                0x0017e6b0                tot_out_error
                0x0017e700                kernelState
                0x0017e704                _func_evtLogM1
                0x0017e708                yyerrflag
                0x0017e70c                _func_sigExcKill
                0x0017e710                _func_wvNetPortFilterTest
                0x0017e718                average_error
                0x0017e720                bad_typeid type_info node
                0x0017e72c                pciConfigAddr2
                0x0017e730                _func_bdall
                0x0017e734                lockKey
                0x0017e738                hostList
                0x0017e744                tickQHead
                0x0017e754                rBuffClass
                0x0017e788                global_ofile
                0x0017e78c                __wdbEvtptDeleteAll
                0x0017e790                mid_wt_cum_change
                0x0017f050                _func_symNameGet
                0x0017f054                tcbinfo
                0x0017f064                _func_logMsg
                0x0017f068                mid_error
                0x0017f0a8                tcpOutRsts
                0x0017f0ac                _func_tmrFreq
                0x0017f0b0                excMsgQId
                0x0017f0b8                _clockRealtime
                0x0017f0c8                global_lustruct
                0x0017f0e0                _func_tmrEnable
                0x0017f0e4                wvDefaultRBuffParams
                0x0017f100                LUtempvv
                0x0017f104                flash_index
                0x0017f108                _igmpQuerierTimeUpdateHook
                0x0017f10c                numpats
                0x0017f110                bpFreeList
                0x0017f118                msgQDistNumMsgsRtn
                0x0017f11c                sysFlags
                0x0017f120                _func_excPanicHook
                0x0017f124                _func_spy
                0x0017f128                bad_cast type_info node
                0x0017f138                avg_out_error
                0x0017f188                _func_fastUdpInput
                0x0017f18c                _func_remCurIdGet
                0x0017f190                rlogindId
                0x0017f194                _func_ipsecFilterHook
                0x0017f198                _igmpLeaveAlertHook
                0x0017f19c                consoleName
                0x0017f1b0                smObjTcbFreeFailRtn
                0x0017f1b4                taskBpHook
                0x0017f1b8                sigEvtRtn
                0x0017f1bc                _func_ipsecOutput
                0x0017f1c0                _m2IfTableUpdate
                0x0017f1c4                _func_selTyDelete
                0x0017f1c8                _wdbTaskStep
                0x0017f1cc                _func_pthread_setcanceltype
                0x0017f1d0                _func_evtLogT0
                0x0017f1d4                in_ifaddr
                0x0017f1d8                max_hdr
                0x0017f1dc                smMemPartShowRtn
                0x0017f1e0                _func_sseTaskRegsShow
                0x0017f1e4                busIoMemRanges
                0x0017f324                arpMaxEntries
                0x0017f328                dbgPrintFpp
                0x0017f330                worst_error
                0x0017f338                _func_tmrStampLock
                0x0017f33c                taskDeleteTable
                0x0017f380                rt_tables
                0x0017f3ec                ipstat
                0x0017f44c                _func_valloc
                0x0017f450                global_numsortstruct
                0x0017f468                s1
                0x0017f46c                pciConfigAddr0
                0x0017f470                ledId
                0x0017f478                global_bitopstruct
                0x0017f490                _igmpMessageHook
                0x0017f494                wvDefaultBufSize
                0x0017f498                hourr
                0x0017f49c                dbgUnbreakableOld
                0x0017f4a0                max_linkhdr
                0x0017f4a4                _func_evtLogM3
                0x0017f4a8                loif
                0x0017f53c                _func_fastUdpErrorNotify
                0x0017f540                consoleFd
                0x0017f544                fppCreateHookRtn
                0x0017f548                _func_evtLogPoint
                0x0017f54c                uflashBuf
                0x001bf56c                msgQSmShowRtn
                0x001bf570                _func_symValueGet
                0x001bf574                _func_spyClkStart
                0x001bf578                _func_excBaseHook
                0x001bf57c                _func_tmrPeriod
                0x001bf580                dbgSafeUnbreakable
                0x001bf584                __ptmf_type_info type_info node
                0x001bf590                rlogInTaskId
                0x001bf594                rBuffShowRtn
                0x001bf598                dayr
                0x001bf59c                secr
                0x001bf5a0                _func_altivecProbe
                0x001bf5a4                yynerrs
                0x001bf5a8                pWdbRtIf
                0x001bf5ac                learned
                0x001bf5b0                wdbTaskId
                0x001bf5b4                __array_type_info type_info node
                0x001bf5c0                _func_tmrStamp
                0x001bf5c4                monr
                0x001bf5c8                msgQSmInfoGetRtn
                0x001bf5cc                sysBootParams
                0x001bf880                _func_ftpLs
                0x001bf884                iteration_count
                0x001bf888                sysBootFile
                0x001bf928                tcp_maxidle
                0x001bf92c                wvDefaultBufMax
                0x001bf930                pmPartId
                0x001bf934                mmuPageBlockSize
                0x001bf938                sysPhysMemDescNumEnt
                0x001bf93c                wvInstIsOn
                0x001bf940                yyval
                0x001bf950                mid_wt_change
                0x001c0210                semClass
                0x001c0244                wvUpTaskId
                0x001c0248                semInstClass
                0x001c027c                smObjTaskDeleteFailRtn
                0x001c0280                type_info type_info node
                0x001c0288                _func_evtLogM2
                0x001c028c                pJobPool
                0x001c068c                numpasses
                0x001c0690                tcp_alpha
                0x001c0694                udpstat
                0x001c06bc                rlogChildTaskId
                0x001c06c0                mask_rnhead
                0x001c06c4                _func_evtLogT0_noInt
                0x001c06c8                _func_spyReport
                0x001c06cc                msgQDistInfoGetRtn
                0x001c06d0                _func_selTyAdd
                0x001c06d4                _igmpJoinAlertHook
                0x001c06d8                _func_fclose
                0x001c06dc                sysSymTbl
                0x001c06e0                mem_array
                0x001c0780                evtBufferId
                0x001c0784                yytmp
                0x001c0788                vxAbsTicks
                0x001c0790                in_interfaces
                0x001c0794                ppGlobalEnviron
                0x001c0798                msgQSmReceiveRtn
                0x001c079c                smObjTcbFreeRtn
                0x001c07a0                _m2SetIfLastChange
                0x001c07a8                mid_out
                0x001c07e8                smMemPartOptionsSetRtn
                0x001c07ec                _func_spyClkStop
                0x001c07f0                redirInFd
                0x001c07f8                global_huffstruct
                0x001c0810                yearr
                0x001c0818                mid_wts
                0x001c10d8                global_min_seconds
                0x001c10dc                wildcard
                0x001c10ec                pciConfigAddr1
                0x001c10f0                out_wt_cum_change
                0x001c12f0                pciActive
                0x001c12f4                pAltivecTaskIdPrevious
                0x001c12f8                _wdbTaskBpAdd
                0x001c12fc                geidevices
                0x001c1310                tcp_msl
                0x001c1314                start_addr
                0x001c1318                dbgPrintSimd
                0x001c131c                wvDefaultBufThresh
                0x001c1320                global_allstats
                0x001c1324                yy_yys
                0x001c157c                msgQDistSendRtn
                0x001c1580                _func_tmrDisable
                0x001c1584                shellTaskId
                0x001c1588                rn_mkfreelist
                0x001c158c                __pointer_type_info type_info node
                0x001c1598                global_strsortstruct
                0x001c15b0                wvDefaultBufMin
                0x001c15b4                global_min_ticks
                0x001c15b8                _func_evtLogString
                0x001c15bc                tcp_beta
                0x001c15c0                splSemId
                0x001c15c4                udb
                0x001c15c8                flashBuf
                0x001d15c8                arp_inuse
                0x001d15cc                mmuStateTransArray
                0x001d15d0                write_to_file
                0x001d15d4                altivecCreateHookRtn
                0x001d15d8                memsplit
                0x001d15dc                wvEvtClass
                0x001d15e0                splTid
                0x001d15e4                taskIdCurrent
                0x001d15e8                ipintrq
                0x001d15fc                rootTaskId
                0x001d1600                wvBufId
                0x001d1604                _func_symFindSymbol
                0x001d1608                end_addr
                0x001d160c                bad_exception type_info node
                0x001d1618                _func_printErr
                0x001d161c                pFppTaskIdPrevious
                0x001d1620                exception type_info node
                0x001d1628                pmaplist
                0x001d162c                roundRobinSlice
                0x001d1630                _func_ipsecInput
                0x001d1634                dater
                0x001d1638                _func_evtLogT1
                0x001d163c                tcp_now
                0x001d1640                localToGlobalOffset
                0x001d1644                _func_taskDeleteHookAdd
                0x001d1648                netTaskId
                0x001d164c                nfsAutoClose
                0x001d1650                rlogOutTaskId
                0x001d1654                __user_type_info type_info node
                0x001d1660                out_out
                0x001d16a0                _func_netLsByName
                0x001d16a4                vxTicks
                0x001d16a8                flocalBuf
                0x001d16c8                bp2
                0x001d16cc                count
                0x001d16d0                silent_test
                0x001d16d4                dbgPrintDsp
                0x001d16d8                yystate
                0x001d16dc                altivecDisplayHookRtn
                0x001d16e0                _func_fppTaskRegsShow
                0x001d16e4                _func_altivecTaskRegsGet
                0x001d16e8                sdramSize
                0x001d16ec                _func_symFindByValue
                0x001d16f0                excExcepHook
                0x001d16f4                yydebug
                0x001d16f8                yyps
                0x001d16fc                s2
                0x001d1700                smObjPoolMinusOne
                0x001d1704                __ptmd_type_info type_info node
                0x001d1710                standAloneSymTbl
                0x001d1714                minr
                0x001d1718                outBuffer
                0x001d177c                mem_array_ents
                0x001d1780                buf
                0x001d1784                tests_to_do
                0x001d17ac                ipforward_rt
                0x001d17c0                _func_selWakeupListTerm
                0x001d17c4                portmapdId
                0x001d17c8                msgQSmNumMsgsRtn
                0x001d17cc                eventEvtRtn
                0x001d17d0                smMemPartFindMaxRtn
                0x001d17d4                dbgPrintAltivec
                0x001d17d8                vxIntStackEnd
                0x001d17dc                _func_memalign
                0x001d17e0                feidevices
                0x001d1808                yypv
                0x001d180c                ipDrvCtrl
                0x001d1994                rootMemNBytes
                0x001d1998                _func_evtLogM0
                0x001d199c                semSmShowRtn
                0x001d19a0                _func_sigprocmask
                0x001d19a4                nfsCacheSize
                0x001d19a8                cplusDemanglerStyle
                0x001d19ac                _func_symTypeGet
                0x001d19b0                out_wts
                0x001d1bb0                _pSigQueueFreeHead
                0x001d1bb4                igmpstat
                0x001d1bd8                out_error
                0x001d1c18                _func_altivecTaskRegsShow
                0x001d1c1c                tcp_saveti
                0x001d1c44                tcpcb
                0x001d1c48                arp_intimer
                0x001d1c4c                _func_remCurIdSet
                0x001d1c50                rtstat
                0x001d1c5c                loginVerifyRtn
                0x001d1c60                taskCreateTable
                0x001d1ca4                frcModNumBase
                0x001d1ca8                __si_type_info type_info node
                0x001d1cb4                global_align
                0x001d1cb8                readyQHead
                0x001d1cc8                panicSuspend
                0x001d1ccc                wdbExternSystemRegs
                0x001d1d68                bpList
                0x001d1d70                sysStartType
                0x001d1d74                __wdbEventListIsEmpty
                0x001d1d78                sysBootHost
                0x001d1e18                pInPkt
                0x001d1e1c                _func_dspMregsHook
                0x001d1e20                maxFiles
                0x001d1e24                _func_excJobAdd
                0x001d1e28                _ipCfgFlags
                0x001d1e30                yylval
                0x001d1e40                _func_spyTask
                0x001d1e44                _null_auth
                0x001d1e50                smMemPartReallocRtn
                0x001d1e54                global_custrun
                0x001d1e58                tcp_iss
                0x001d1e5c                pMibRtn
                0x001d1e60                _func_wvNetAddressFilterTest
                0x001d1e64                taskSwapReference
                0x001d1ea8                wvUpPathId
                0x001d1eac                msgQSmSendRtn
                0x001d1eb0                global_assignstruct
                0x001d1ec8                cenr
                0x001d1ecc                _func_fastUdpPortTest
                0x001d1ed0                _func_selWakeupAll
                0x001d1ed4                _wdbTaskBpTrace
                0x001d1ed8                usrflashBuf
                0x001e1ed8                maxDrivers
                0x001e1edc                flashBufNV
                0x001e3fdc                max_keylen
                0x001e3fe0                yy_yyv
                0x001e4940                excTaskId
                0x001e4944                ipq
                0x001e4960                wvObjIsEnabled
                0x001e4964                pRootMemStart
                0x001e4968                global_nnetstruct
                0x001e4980                bp1
                0x001e4984                fdTable
                0x001e4988                global_ideastruct
                0x001e49a0                statSymTbl
                0x001e49a4                roundRobinOn
                0x001e49a8                readyQBMap
                0x001e51cc                domains
                0x001e51d0                __class_type_info type_info node
                0x001e51e0                global_fourierstruct
                0x001e51f8                _func_sigTimeoutRecalc
                0x001e51fc                icmpstat
                0x001e52b4                kernelIsIdle
                0x001e52b8                vxEventPendQ
                0x001e52c8                iosDvList
                0x001e52d0                dcacheCtrl
                0x001e5ad0                __builtin_type_info type_info node
                0x001e5adc                _func_symFindByValueAndType
                0x001e5ae0                semSmInfoRtn
                0x001e5ae4                yychar
                0x001e5ae8                udbinfo
                0x001e5af8                membytes
                0x001e5afc                ftiming
                0x001e5b00                msgQDistReceiveRtn
                0x001e5b04                _func_evtLogOIntLock
                0x001e5b08                _func_taskRegsShowRtn
                0x001e5b10                out_wt_change
                0x001e5d10                .=ALIGN(0x10)
                0x001e5d10                .=ALIGN(0x10)
                0x001e5d10                end=.
                0x001e5d10                _end=.
                0x001e5d10                wrs_kernel_bss_end=.
                0x001e5d10                _wrs_kernel_bss_end=.

/DISCARD/
 *(.note)
 *(.comment)
 *(.pdr)

.stab
 *(.stab)

.stabstr
 *(.stabstr)

.stab.excl
 *(.stab.excl)

.stab.exclstr
 *(.stab.exclstr)

.stab.index
 *(.stab.index)

.stab.indexstr
 *(.stab.indexstr)

.comment
 *(.comment)

.debug
 *(.debug)

.line
 *(.line)

.debug_srcinfo
 *(.debug_srcinfo)

.debug_sfnames
 *(.debug_sfnames)

.debug_aranges
 *(.debug_aranges)

.debug_pubnames
 *(.debug_pubnames)

.debug_info
 *(.debug_info)

.debug_abbrev
 *(.debug_abbrev)

.debug_line
 *(.debug_line)

.debug_frame    0x00000000       0x14
 *(.debug_frame)
 .debug_frame   0x00000000       0x14 vxWorks.tmp
                0x00000000                __cie

.debug_str
 *(.debug_str)

.debug_loc
 *(.debug_loc)

.debug_macinfo
 *(.debug_macinfo)

.debug_weaknames
 *(.debug_weaknames)

.debug_funcnames
 *(.debug_funcnames)

.debug_typenames
 *(.debug_typenames)

.debug_varnames
 *(.debug_varnames)
OUTPUT(vxWorks elf32-powerpc)
