
Allocating common symbols
Common symbol       size              file

_func_smObjObjShow  0x4               tmp.2
taskSwitchTable     0x44              tmp.2
inetsw              0x340             tmp.2
msgQDistShowRtn     0x4               tmp.2
_func_evtLogT1_noTS
                    0x4               tmp.2
__func_type_info type_info node
                    0xc               tmp.2
mCastHashInfo       0x8               tmp.2
ifnet               0x4               tmp.2
_func_spyStop       0x4               tmp.2
rlogindSocket       0x4               tmp.2
workQWriteIx        0x1               tmp.2
bad_alloc type_info node
                    0xc               tmp.2
_func_excInfoShow   0x4               tmp.2
filebuf type_info node
                    0xc               tmp.2
ip_id               0x2               tmp.2
_func_evtLogReserveTaskName
                    0x4               tmp.2
dbgLockUnbreakable  0x4               tmp.2
drvTable            0x4               tmp.2
ip_protox           0x100             tmp.2
DCACHE_CTRL         0x80              tmp.2
global_emfloatstruct
                    0x18              tmp.2
zeroin_addr         0x4               tmp.2
__attr_type_info type_info node
                    0xc               tmp.2
_func_trgCheck      0x4               tmp.2
frcSysBoardId       0x3               tmp.2
pWvNetEventMap      0x4               tmp.2
pAltivecRegSetObj   0x4               tmp.2
workQReadIx         0x1               tmp.2
use_result_dummy    0x4               tmp.2
fppDisplayHookRtn   0x4               tmp.2
cbioClass           0x34              tmp.2
ioDefPath           0x100             tmp.2
_func_taskCreateHookAdd
                    0x4               tmp.2
somaxconn           0x4               tmp.2
_func_dspRegsListHook
                    0x4               tmp.2
_func_tmrConnect    0x4               tmp.2
max_protohdr        0x4               tmp.2
_func_evtLogTSched  0x4               tmp.2
tcpstat             0xd0              tmp.2
vxIntStackBase      0x4               tmp.2
_func_dspTaskRegsShow
                    0x4               tmp.2
workQIsEmpty        0x4               tmp.2
arp_allocated       0x4               tmp.2
trgEvtClass         0x4               tmp.2
_func_selPtyDelete  0x4               tmp.2
wvDefaultBufOptions
                    0x4               tmp.2
mmuLibFuncs         0x28              tmp.2
redirOutFd          0x4               tmp.2
taskSwapTable       0x44              tmp.2
_func_evtLogO       0x4               tmp.2
pEndPktDev          0x4               tmp.2
_func_selWakeupListInit
                    0x4               tmp.2
_wdbTaskBpBreakpoint
                    0x4               tmp.2
global_ofile_name   0x3c              tmp.2
rttrash             0x4               tmp.2
_wdbTaskCont        0x4               tmp.2
semMGiveKernWork    0x4               tmp.2
_IO_ostream_withassign type_info node
                    0x10              tmp.2
ftpsCurrentClients  0x4               tmp.2
wvLogHeader         0x4               tmp.2
trgCnt              0x4               tmp.2
errno               0x4               tmp.2
mmuStateTransArraySize
                    0x4               tmp.2
pIntf               0x4               tmp.2
_func_ioTaskStdSet  0x4               tmp.2
_func_excIntHook    0x4               tmp.2
logic_error type_info node
                    0xc               tmp.2
_func_selPtyAdd     0x4               tmp.2
tot_out_error       0x50              tmp.2
kernelState         0x4               tmp.2
_func_evtLogM1      0x4               tmp.2
_ios_fields type_info node
                    0x8               tmp.2
yyerrflag           0x4               tmp.2
_func_sigExcKill    0x4               tmp.2
_func_wvNetPortFilterTest
                    0x4               tmp.2
average_error       0x8               tmp.2
streambuf type_info node
                    0xc               tmp.2
bad_typeid type_info node
                    0xc               tmp.2
pciConfigAddr2      0x4               tmp.2
_func_bdall         0x4               tmp.2
lockKey             0x4               tmp.2
hostList            0xc               tmp.2
tickQHead           0x10              tmp.2
rBuffClass          0x34              tmp.2
length_error type_info node
                    0xc               tmp.2
global_ofile        0x4               tmp.2
__wdbEvtptDeleteAll
                    0x4               tmp.2
overflow_error type_info node
                    0xc               tmp.2
mid_wt_cum_change   0x8c0             tmp.2
_func_symNameGet    0x4               tmp.2
tcbinfo             0x10              tmp.2
_func_logMsg        0x4               tmp.2
mid_error           0x40              tmp.2
tcpOutRsts          0x4               tmp.2
_func_tmrFreq       0x4               tmp.2
ios type_info node  0xc               tmp.2
excMsgQId           0x4               tmp.2
_clockRealtime      0x10              tmp.2
global_lustruct     0x18              tmp.2
_func_tmrEnable     0x4               tmp.2
wvDefaultRBuffParams
                    0x1c              tmp.2
LUtempvv            0x4               tmp.2
flash_index         0x4               tmp.2
_igmpQuerierTimeUpdateHook
                    0x4               tmp.2
numpats             0x4               tmp.2
bpFreeList          0x8               tmp.2
msgQDistNumMsgsRtn  0x4               tmp.2
sysFlags            0x4               tmp.2
_func_excPanicHook  0x4               tmp.2
_func_spy           0x4               tmp.2
bad_cast type_info node
                    0xc               tmp.2
avg_out_error       0x50              tmp.2
_func_fastUdpInput  0x4               tmp.2
_func_remCurIdGet   0x4               tmp.2
rlogindId           0x4               tmp.2
_func_ipsecFilterHook
                    0x4               tmp.2
_igmpLeaveAlertHook
                    0x4               tmp.2
consoleName         0x14              tmp.2
smObjTcbFreeFailRtn
                    0x4               tmp.2
taskBpHook          0x4               tmp.2
sigEvtRtn           0x4               tmp.2
_func_ipsecOutput   0x4               tmp.2
_m2IfTableUpdate    0x4               tmp.2
_func_selTyDelete   0x4               tmp.2
_wdbTaskStep        0x4               tmp.2
_func_pthread_setcanceltype
                    0x4               tmp.2
_func_evtLogT0      0x4               tmp.2
in_ifaddr           0x4               tmp.2
max_hdr             0x4               tmp.2
smMemPartShowRtn    0x4               tmp.2
_func_sseTaskRegsShow
                    0x4               tmp.2
busIoMemRanges      0x140             tmp.2
arpMaxEntries       0x4               tmp.2
dbgPrintFpp         0x4               tmp.2
worst_error         0x8               tmp.2
_func_tmrStampLock  0x4               tmp.2
taskDeleteTable     0x44              tmp.2
rt_tables           0x6c              tmp.2
ipstat              0x60              tmp.2
_func_valloc        0x4               tmp.2
global_numsortstruct
                    0x18              tmp.2
s1                  0x4               tmp.2
pciConfigAddr0      0x4               tmp.2
ledId               0x4               tmp.2
global_bitopstruct  0x18              tmp.2
istream type_info node
                    0x10              tmp.2
_igmpMessageHook    0x4               tmp.2
wvDefaultBufSize    0x4               tmp.2
hourr               0x4               tmp.2
runtime_error type_info node
                    0xc               tmp.2
dbgUnbreakableOld   0x4               tmp.2
max_linkhdr         0x4               tmp.2
_func_evtLogM3      0x4               tmp.2
loif                0x94              tmp.2
_func_fastUdpErrorNotify
                    0x4               tmp.2
consoleFd           0x4               tmp.2
fppCreateHookRtn    0x4               tmp.2
_func_evtLogPoint   0x4               tmp.2
uflashBuf           0x40020           tmp.2
msgQSmShowRtn       0x4               tmp.2
_func_symValueGet   0x4               tmp.2
_func_spyClkStart   0x4               tmp.2
_func_excBaseHook   0x4               tmp.2
_func_tmrPeriod     0x4               tmp.2
dbgSafeUnbreakable  0x4               tmp.2
__ptmf_type_info type_info node
                    0xc               tmp.2
rlogInTaskId        0x4               tmp.2
rBuffShowRtn        0x4               tmp.2
dayr                0x4               tmp.2
secr                0x4               tmp.2
_func_altivecProbe  0x4               tmp.2
yynerrs             0x4               tmp.2
pWdbRtIf            0x4               tmp.2
learned             0x4               tmp.2
wdbTaskId           0x4               tmp.2
__array_type_info type_info node
                    0xc               tmp.2
_func_tmrStamp      0x4               tmp.2
monr                0x4               tmp.2
msgQSmInfoGetRtn    0x4               tmp.2
sysBootParams       0x2b4             tmp.2
_func_ftpLs         0x4               tmp.2
iteration_count     0x4               tmp.2
sysBootFile         0xa0              tmp.2
tcp_maxidle         0x4               tmp.2
wvDefaultBufMax     0x4               tmp.2
pmPartId            0x4               tmp.2
mmuPageBlockSize    0x4               tmp.2
sysPhysMemDescNumEnt
                    0x4               tmp.2
wvInstIsOn          0x4               tmp.2
_IO_FILE type_info node
                    0x8               tmp.2
yyval               0x10              tmp.2
mid_wt_change       0x8c0             tmp.2
semClass            0x34              tmp.2
wvUpTaskId          0x4               tmp.2
semInstClass        0x34              tmp.2
smObjTaskDeleteFailRtn
                    0x4               tmp.2
type_info type_info node
                    0x8               tmp.2
_func_evtLogM2      0x4               tmp.2
pJobPool            0x400             tmp.2
numpasses           0x4               tmp.2
tcp_alpha           0x4               tmp.2
udpstat             0x28              tmp.2
rlogChildTaskId     0x4               tmp.2
mask_rnhead         0x4               tmp.2
_func_evtLogT0_noInt
                    0x4               tmp.2
_func_spyReport     0x4               tmp.2
msgQDistInfoGetRtn  0x4               tmp.2
_func_selTyAdd      0x4               tmp.2
_igmpJoinAlertHook  0x4               tmp.2
_func_fclose        0x4               tmp.2
sysSymTbl           0x4               tmp.2
mem_array           0xa0              tmp.2
evtBufferId         0x4               tmp.2
yytmp               0x4               tmp.2
vxAbsTicks          0x8               tmp.2
in_interfaces       0x4               tmp.2
ppGlobalEnviron     0x4               tmp.2
msgQSmReceiveRtn    0x4               tmp.2
smObjTcbFreeRtn     0x4               tmp.2
_m2SetIfLastChange  0x4               tmp.2
mid_out             0x40              tmp.2
smMemPartOptionsSetRtn
                    0x4               tmp.2
_func_spyClkStop    0x4               tmp.2
redirInFd           0x4               tmp.2
global_huffstruct   0x18              tmp.2
yearr               0x4               tmp.2
mid_wts             0x8c0             tmp.2
global_min_seconds  0x4               tmp.2
wildcard            0x10              tmp.2
pciConfigAddr1      0x4               tmp.2
out_wt_cum_change   0x200             tmp.2
pciActive           0x4               tmp.2
pAltivecTaskIdPrevious
                    0x4               tmp.2
_wdbTaskBpAdd       0x4               tmp.2
geidevices          0x14              tmp.2
tcp_msl             0x4               tmp.2
start_addr          0x4               tmp.2
dbgPrintSimd        0x4               tmp.2
wvDefaultBufThresh  0x4               tmp.2
global_allstats     0x4               tmp.2
yy_yys              0x258             tmp.2
msgQDistSendRtn     0x4               tmp.2
_func_tmrDisable    0x4               tmp.2
shellTaskId         0x4               tmp.2
rn_mkfreelist       0x4               tmp.2
__pointer_type_info type_info node
                    0xc               tmp.2
ostream type_info node
                    0x10              tmp.2
global_strsortstruct
                    0x18              tmp.2
wvDefaultBufMin     0x4               tmp.2
global_min_ticks    0x4               tmp.2
_func_evtLogString  0x4               tmp.2
tcp_beta            0x4               tmp.2
splSemId            0x4               tmp.2
udb                 0x4               tmp.2
sntpcPort           0x2               tmp.2
flashBuf            0x10000           tmp.2
arp_inuse           0x4               tmp.2
mmuStateTransArray  0x4               tmp.2
write_to_file       0x4               tmp.2
altivecCreateHookRtn
                    0x4               tmp.2
memsplit            0x4               tmp.2
wvEvtClass          0x4               tmp.2
splTid              0x4               tmp.2
taskIdCurrent       0x4               tmp.2
ipintrq             0x14              tmp.2
rootTaskId          0x4               tmp.2
wvBufId             0x4               tmp.2
_func_symFindSymbol
                    0x4               tmp.2
end_addr            0x4               tmp.2
bad_exception type_info node
                    0xc               tmp.2
_func_printErr      0x4               tmp.2
pFppTaskIdPrevious  0x4               tmp.2
exception type_info node
                    0x8               tmp.2
pmaplist            0x4               tmp.2
roundRobinSlice     0x4               tmp.2
_IO_istream_withassign type_info node
                    0x10              tmp.2
_func_ipsecInput    0x4               tmp.2
dater               0x4               tmp.2
_func_evtLogT1      0x4               tmp.2
tcp_now             0x4               tmp.2
localToGlobalOffset
                    0x4               tmp.2
_func_taskDeleteHookAdd
                    0x4               tmp.2
netTaskId           0x4               tmp.2
nfsAutoClose        0x4               tmp.2
rlogOutTaskId       0x4               tmp.2
domain_error type_info node
                    0xc               tmp.2
__user_type_info type_info node
                    0xc               tmp.2
out_out             0x40              tmp.2
_func_netLsByName   0x4               tmp.2
vxTicks             0x4               tmp.2
flocalBuf           0x20              tmp.2
bp2                 0x4               tmp.2
count               0x4               tmp.2
silent_test         0x4               tmp.2
dbgPrintDsp         0x4               tmp.2
yystate             0x4               tmp.2
altivecDisplayHookRtn
                    0x4               tmp.2
_func_fppTaskRegsShow
                    0x4               tmp.2
_func_altivecTaskRegsGet
                    0x4               tmp.2
sdramSize           0x4               tmp.2
_func_symFindByValue
                    0x4               tmp.2
excExcepHook        0x4               tmp.2
yydebug             0x4               tmp.2
yyps                0x4               tmp.2
s2                  0x4               tmp.2
smObjPoolMinusOne   0x4               tmp.2
__ptmd_type_info type_info node
                    0xc               tmp.2
standAloneSymTbl    0x4               tmp.2
minr                0x4               tmp.2
outBuffer           0x64              tmp.2
mem_array_ents      0x4               tmp.2
buf                 0x4               tmp.2
tests_to_do         0x28              tmp.2
ipforward_rt        0x14              tmp.2
_func_selWakeupListTerm
                    0x4               tmp.2
portmapdId          0x4               tmp.2
msgQSmNumMsgsRtn    0x4               tmp.2
eventEvtRtn         0x4               tmp.2
smMemPartFindMaxRtn
                    0x4               tmp.2
dbgPrintAltivec     0x4               tmp.2
vxIntStackEnd       0x4               tmp.2
_func_memalign      0x4               tmp.2
feidevices          0x28              tmp.2
yypv                0x4               tmp.2
ipDrvCtrl           0x188             tmp.2
rootMemNBytes       0x4               tmp.2
_func_evtLogM0      0x4               tmp.2
semSmShowRtn        0x4               tmp.2
_func_sigprocmask   0x4               tmp.2
nfsCacheSize        0x4               tmp.2
cplusDemanglerStyle
                    0x4               tmp.2
_func_symTypeGet    0x4               tmp.2
out_wts             0x200             tmp.2
out_of_range type_info node
                    0xc               tmp.2
_pSigQueueFreeHead  0x4               tmp.2
igmpstat            0x24              tmp.2
out_error           0x40              tmp.2
_func_altivecTaskRegsShow
                    0x4               tmp.2
invalid_argument type_info node
                    0xc               tmp.2
tcp_saveti          0x28              tmp.2
tcpcb               0x4               tmp.2
arp_intimer         0x4               tmp.2
_func_remCurIdSet   0x4               tmp.2
rtstat              0xa               tmp.2
loginVerifyRtn      0x4               tmp.2
taskCreateTable     0x44              tmp.2
frcModNumBase       0x4               tmp.2
__si_type_info type_info node
                    0xc               tmp.2
global_align        0x4               tmp.2
readyQHead          0x10              tmp.2
panicSuspend        0x4               tmp.2
wdbExternSystemRegs
                    0x9c              tmp.2
bpList              0x8               tmp.2
iostream type_info node
                    0x10              tmp.2
sysStartType        0x4               tmp.2
__wdbEventListIsEmpty
                    0x4               tmp.2
sysBootHost         0xa0              tmp.2
pInPkt              0x4               tmp.2
_func_dspMregsHook  0x4               tmp.2
maxFiles            0x4               tmp.2
_func_excJobAdd     0x4               tmp.2
_ipCfgFlags         0x4               tmp.2
yylval              0x10              tmp.2
_func_spyTask       0x4               tmp.2
_null_auth          0xc               tmp.2
smMemPartReallocRtn
                    0x4               tmp.2
global_custrun      0x4               tmp.2
tcp_iss             0x4               tmp.2
pMibRtn             0x4               tmp.2
_func_wvNetAddressFilterTest
                    0x4               tmp.2
range_error type_info node
                    0xc               tmp.2
taskSwapReference   0x44              tmp.2
wvUpPathId          0x4               tmp.2
msgQSmSendRtn       0x4               tmp.2
global_assignstruct
                    0x18              tmp.2
cenr                0x4               tmp.2
_func_fastUdpPortTest
                    0x4               tmp.2
_func_selWakeupAll  0x4               tmp.2
_wdbTaskBpTrace     0x4               tmp.2
usrflashBuf         0x10000           tmp.2
maxDrivers          0x4               tmp.2
flashBufNV          0x2100            tmp.2
max_keylen          0x4               tmp.2
yy_yyv              0x960             tmp.2
excTaskId           0x4               tmp.2
ipq                 0x1c              tmp.2
wvObjIsEnabled      0x4               tmp.2
pRootMemStart       0x4               tmp.2
global_nnetstruct   0x18              tmp.2
bp1                 0x4               tmp.2
underflow_error type_info node
                    0xc               tmp.2
fdTable             0x4               tmp.2
global_ideastruct   0x18              tmp.2
statSymTbl          0x4               tmp.2
roundRobinOn        0x4               tmp.2
readyQBMap          0x824             tmp.2
domains             0x4               tmp.2
__class_type_info type_info node
                    0xc               tmp.2
global_fourierstruct
                    0x18              tmp.2
_func_sigTimeoutRecalc
                    0x4               tmp.2
icmpstat            0xb8              tmp.2
kernelIsIdle        0x4               tmp.2
vxEventPendQ        0x10              tmp.2
iosDvList           0x8               tmp.2
dcacheCtrl          0x800             tmp.2
__builtin_type_info type_info node
                    0xc               tmp.2
_func_symFindByValueAndType
                    0x4               tmp.2
semSmInfoRtn        0x4               tmp.2
yychar              0x4               tmp.2
udbinfo             0x10              tmp.2
membytes            0x4               tmp.2
ftiming             0x4               tmp.2
msgQDistReceiveRtn  0x4               tmp.2
_func_evtLogOIntLock
                    0x4               tmp.2
_func_taskRegsShowRtn
                    0x4               tmp.2
out_wt_change       0x200             tmp.2

Memory Configuration

Name             Origin             Length             Attributes
*default*        0x00000000         0xffffffff

Linker script and memory map

Address of section .text set to 0x10000
LOAD tmp.2
LOAD symTbl.o
LOAD ctdt.o

.text           0x00010000   0x189eb0
                0x00010000                wrs_kernel_text_start=.
                0x00010000                _wrs_kernel_text_start=.
 *(.text)
 .text          0x00010000   0x13e624 tmp.2
                0x00121a9c                print64Mult
                0x000f7ae0                sigPendInit
                0x0009e950                mcastHashTblInsert
                0x0010be70                dllEach
                0x00071750                istream::operator>>(unsigned int &)
                0x00011e00                sysHwInit2
                0x0004428c                frcTestBaudRate
                0x0014dc44                longjmp
                0x00090218                _restf15
                0x0010edd8                rBuffUpload
                0x00054a9c                frcIdmaTestInit0
                0x000c3f90                ifShow
                0x00099238                arpresolve
                0x000b3980                bsdGetsockopt
                0x00018cc4                gtPci0MapMemoryBank2
                0x00041478                morefds
                0x00087bbc                unsigned int type_info function
                0x0014c8c0                _sigCtxRtnValSet
                0x000e3084                putchar
                0x0006dc68                basic_string<char, string_char_traits<char>, __default_alloc_template<true, 0> >::ibegin(void) const
                0x000719dc                istream::operator>>(bool &)
                0x000be0cc                muxPollDevDel
                0x0010e3ec                rBuffRead
                0x00021664                cunitInit
                0x0013d484                msgQInit
                0x0013a5fc                wdbDbgTrace
                0x00044ccc                frcTestAltivec
                0x0008ff60                __sub64
                0x000727f4                ostream::operator<<(unsigned long)
                0x00071858                istream::operator>>(unsigned long &)
                0x0008e17c                _savefpr_30_l
                0x000c3d28                netTask
                0x000e7d5c                fpTypeGet
                0x00076214                _IO_outfloat
                0x000904b8                _savegprx_17_l
                0x000c82e8                nfsDirReadOne
                0x0006c9c4                basic_string<char, string_char_traits<char>, __default_alloc_template<true, 0> >::Rep::release(void)
                0x00010cc0                sysSerialHwInit
                0x0006f7b8                bool operator<<char, string_char_traits<char>, __default_alloc_template<true, 0> >(char const *, basic_string<char, string_char_traits<char>, __default_alloc_template<true, 0> > const &)
                0x00090428                _savefprx_31_l
                0x000e8c00                clock_gettime
                0x0005a268                xmalloc
                0x000751b0                istream::ipfx1(void)
                0x00057ac8                usrNetProtoInit
                0x000f9cc8                taskHookShowInit
                0x0006fd70                ostream & operator<<<char, string_char_traits<char>, __default_alloc_template<true, 0> >(ostream &, basic_string<char, string_char_traits<char>, __default_alloc_template<true, 0> > const &)
                0x000904e4                _savegprx_28_l
                0x00090524                _savevr25
                0x000a76bc                rt_maskedcopy
                0x000cb4c8                routeCmd
                0x0013fc54                semCCoreInit
                0x00088700                altivecRegsToCtx
                0x000902a4                _savef31
                0x000af7ac                _insque
                0x000e8630                classInstConnect
                0x0007de84                _IO_remove_marker
                0x0008e24c                _restgpr_21_l
                0x000bce7c                muxLinkHeaderCreate
                0x00146848                windSuspend
                0x00012c1c                readreg
                0x0008e124                _restfpr_31_l
                0x0007f6d4                __throw_type_match
                0x00056654                myfill
                0x00140e94                semMLibInit
                0x000e31d8                putw
                0x0005a4a8                cplusMatchMangled
                0x000754d0                istream::unget(char)
                0x00011364                frcPrintVariant
                0x000e6088                strcpy
                0x000902d4                _restfprs_24_l
                0x0010d0ec                qPriListCreate
                0x000e686c                asctime
                0x000bd7fc                muxDevStopAll
                0x00040118                use_int
                0x0010bd68                dllInsert
                0x00145320                taskIdListSort
                0x00022598                mpscChanStopTxRx
                0x00091ef0                __ashldi3
                0x000ea61c                fioFormatV
                0x000124e8                gtRegReadBlock
                0x0008ab1c                intVecBaseSet
                0x0008fcf8                __rem64
                0x0014de0c                qJobTerminate
                0x00040274                get_results
                0x0007cf6c                _IO_link_in
                0x00109a88                xattrib
                0x0014c7cc                sigsetjmp
                0x0003ff14                p64
                0x00121b7c                expm1
                0x00023724                vxSdmaIntConnect
                0x000969e4                ifreset
                0x000c9da0                rcmd
                0x0013d2e4                msgQCreate
                0x000c9d94                remLibInit
                0x0001fc5c                mgiEndLoad
                0x00087194                long long type_info function
                0x00092588                __ffsdi2
                0x00095270                __cmpdf2
                0x0001f414                vxEthernetIntConnect
                0x0012a1bc                authunix_create
                0x000f810c                symTblDestroy
                0x00108e0c                cp
                0x0013a0ec                wdbCtxExitNotifyHook
                0x00139d28                wdbExcLibInit
                0x000bda94                muxPollTask
                0x000e0fe4                fabs
                0x0007db44                _IO_sputbackc
                0x0014304c                taskDeleteForce
                0x0007da78                _IO_default_finish
                0x000e8328                cacheDrvFlush
                0x00144f28                taskShow
                0x0008d08c                log
                0x000ca3f0                iam
                0x0009dd5c                in_ifscrub
                0x000907d4                __diab_alloc_mutex
                0x0001a5d4                gtMemoryMapDevice2Space
                0x0008e378                _utof
                0x00010bf8                sysTimestampFreq
                0x0006aa10                __default_alloc_template<true, 0>::_S_freelist_index(unsigned int)
                0x00056748                usrPci2PciDmaStart
                0x0010a03c                bcmp
                0x0008d3f0                sqrt
                0x00134cb8                wdbRunsExternal
                0x00022774                vxMpscIntConnect
                0x0014c7fc                setjmp
                0x0009033c                _savefprs_21_l
                0x000e0158                cosh
                0x001410fc                semMCoreInit
                0x000df6cc                tcp_attach
                0x000775c4                ios::clear(int)
                0x000b3894                bsdSetsockopt
                0x00102338                moduleSegAdd
                0x00106740                lkAddr
                0x000e1800                __sflags
                0x0014c82c                _sigCtxSave
                0x000e40f8                tmpfile
                0x00078dec                _IO_file_finish
                0x000952e0                __eqdf2
                0x000d03f0                igmpstatShow
                0x0008e1a0                _restgpr_18
                0x00130bf0                xdrrec_create
                0x00074f94                istream::read(unsigned char *, int)
                0x0010d888                rngNBytes
                0x000771c8                streambuf::sseekoff(long, ios::seek_dir, int)
                0x0012d7b0                xprt_register
                0x0002b2e4                frcBibDetach
                0x00091fbc                __divdi3
                0x00019ea4                gtPci0EnableBrokenAgentDetection
                0x00085414                __class_type_info::dcast(type_info const &, int, void *, type_info const *, void *) const
                0x0014a5bc                tsfsUploadPathLibInit
                0x001486e4                msgQEvLibInit
                0x000148dc                pciBusProbe
                0x00044d3c                frcTestPciScan
                0x000ef698                ioctl
                0x000f657c                pause
                0x000ef8a0                writev
                0x000dbe4c                tcp_pulloutofband
                0x00010afc                sysClkRateGet
                0x00091ea8                __gcc_intrinsicsInit
                0x0010dc10                rBuffCreate
                0x00091458                endEtherPacketDataGet
                0x0006ddf0                basic_string<char, string_char_traits<char>, __default_alloc_template<true, 0> >::erase(unsigned int, unsigned int)
                0x0008e288                _restgpr_28_l
                0x0012a828                clnt_genericInclude
                0x00035974                ramTest32bit
                0x001361e8                wdbCksum
                0x000416fc                fst
                0x0010cc40                qPriBMapDelete
                0x00010670                sysOutByte
                0x00041b70                prtMVReg
                0x000e6538                strtok_r
                0x000900dc                __uge64
                0x0014584c                tickAnnounce
                0x0010c360                qFifoDelete
                0x000b51dc                ftpLogin
                0x00092ac4                __floatdidf
                0x00028560                frcMACWrite
                0x000967d8                _savev23
                0x00096808                _savev29
                0x00011f7c                sysProcNumSet
                0x0010c214                lstFind
                0x000a01b4                ip_drain
                0x000f373c                objFree
                0x0006f588                bool operator==<char, string_char_traits<char>, __default_alloc_template<true, 0> >(basic_string<char, string_char_traits<char>, __default_alloc_template<true, 0> > const &, basic_string<char, string_char_traits<char>, __default_alloc_template<true, 0> > const &)
                0x000ae240                soqremque
                0x000772f4                streambuf::sys_write(char const *, int)
                0x00134b5c                wdbExternRegsGet
                0x0006a0e0                __default_alloc_template<true, 0>::_S_chunk_alloc(unsigned int, int &)
                0x00101f68                moduleTerminate
                0x00077638                ios::operator void *(void) const
                0x000755fc                istream::operator>>(istream &(*)(istream &))
                0x0004419c                frcTestBootFlash
                0x0010e524                rBuffReadCommit
                0x0008a4ec                fppTaskRegsSet
                0x0009038c                _restfprx_21_l
                0x000e9e90                printf
                0x00090560                _restvr20
                0x0010df98                rBuffVerify
                0x000ea5c8                vsprintf
                0x000afe7c                random
                0x0006c360                basic_string<char, string_char_traits<char>, __default_alloc_template<true, 0> >::find_first_not_of(char const *, unsigned int, unsigned int) const
                0x0006ae64                global destructors keyed to __default_alloc_template<true, 0>::_S_end_free
                0x0001a3a4                gtMemoryMapBank2
                0x000365d0                test_checkerboard_comparison
                0x0008e1c0                _restgpr_26
                0x00090234                _restf22
                0x0009024c                _restf28
                0x0012c4d8                pmap_getmapsInclude
                0x00021d50                vxCunitIntClear
                0x000a5e3c                rtfree
                0x0006c2b4                basic_string<char, string_char_traits<char>, __default_alloc_template<true, 0> >::find_last_of(char const *, unsigned int, unsigned int) const
                0x000905c4                __va_arg
                0x000e91c8                utime
                0x0008e214                _savegpr_27
                0x0008e0e0                _restfpr_21_l
                0x000bd72c                muxAddrResFuncDel
                0x00059938                __pure_virtual
                0x0012f78c                svcudp_enablecache
                0x000b3e14                etherMultiAdd
                0x00070e44                istream::seekg(long)
                0x0007d98c                _IO_default_doallocate
                0x00090344                _savefprs_23_l
                0x000eed98                hashTblEach
                0x00139978                wdbTaskBpLibInit
                0x00074384                ostream::~ostream(void)
                0x00090390                _restfprx_22_l
                0x0006e048                basic_string<char, string_char_traits<char>, __default_alloc_template<true, 0> >::replace(unsigned int, unsigned int, char const *)
                0x00090304                _restfprs_29_l
                0x0013cc94                eventRsrcSend
                0x0014ab78                evtLogM2
                0x000fa890                tyDevRemove
                0x0008e1b8                _restgpr_24
                0x00075784                _IO_istream_withassign::operator=(_IO_istream_withassign &)
                0x00090278                _savef20
                0x000e9be4                excInit
                0x0008e170                _savefpr_27_l
                0x0006c00c                basic_string<char, string_char_traits<char>, __default_alloc_template<true, 0> >::find(char const *, unsigned int, unsigned int) const
                0x0009972c                arpintr
                0x000e39c8                __sseek
                0x00136dc8                wdbFuncCallLibInit
                0x0001a814                gtMemorySetProtectRegion
                0x0013d208                kernelVersion
                0x001348d0                wdbTask
                0x0009e6f0                in_delmulti
                0x00103ab4                shellLogin
                0x000bdc34                muxTaskPrioritySet
                0x001353a0                wdbRpcReplyErr
                0x00073610                ends(ostream &)
                0x000c4e4c                netPoolShow
                0x000fc278                b
                0x000e8024                cacheInvalidate
                0x0010b9a8                bootScanNum
                0x0001065c                sysInByte
                0x000450f8                isPMC280TwoOnBoardEth
                0x000f4e7c                rebootHookAdd
                0x00081938                exception::what(void) const
                0x00148f4c                wvEvtClassClearAll
                0x0007da70                _IO_default_sync
                0x000d440c                in_pcballoc
                0x000cca60                recv
                0x000bb634                ipLibMultiInit
                0x000c8478                nfsFileAttrGet
                0x000903fc                _savefprx_20_l
                0x000cc5c8                connect
                0x000b93ec                icmpLibInit
                0x000828cc                __register_frame
                0x000bac6c                ifRouteEnable
                0x0013a2c0                wdbFppGet
                0x0001b408                frcGppIntCtrlInit
                0x00096874                _restv30
                0x0010d27c                qPriListRemove
                0x000450f0                isPMC280BootFlashPresent
                0x00079474                _IO_file_sync
                0x000e0938                logb
                0x00018358                gtPci0GetMemory2Size
                0x00104d14                reld
                0x000b30d8                bsdRecvfrom
                0x000e9f68                printErr
                0x00077a44                streambuf::allocate(void)
                0x000e41ec                ungetc
                0x001350a0                wdbSuspendSystemHere
                0x00023580                sdmaChanReceive
                0x000befb0                muxTkSend
                0x000c4fd8                netStackDataPoolShow
                0x000863e0                type_info::before(type_info const &) const
                0x0012dbec                svcerr_auth
                0x0006dd74                basic_string<char, string_char_traits<char>, __default_alloc_template<true, 0> >::insert(char *, unsigned int, char)
                0x000e9ca4                excHookAdd
                0x000967c0                _savev20
                0x0002be70                frcBibDataWrite
                0x00138110                wdbSysBpLibInit
                0x0013f3e8                semBCoreInit
                0x000749f0                ostream::operator<<(signed char const *)
                0x00053f3c                parse8
                0x001474d4                windUndelay
                0x00086ddc                __rtti_ptmd
                0x000a44bc                rn_delete
                0x00045288                detectUserFlash
                0x0007775c                streambuf::pptr(void) const
                0x0004213c                frcTestSerialInfo
                0x00090220                _restf17
                0x00019f88                gtPci0GetBusMode
                0x00136c74                wdbEventDeq
                0x00045b70                mpsc_regs_dump
                0x0013ee08                reschedule
                0x000bab40                ifIndexToIfName
                0x0006d63c                basic_string<char, string_char_traits<char>, __default_alloc_template<true, 0> >::Rep::set(unsigned int, char, unsigned int)
                0x000f5e04                sigemptyset
                0x0008bd50                mathHardInit
                0x0007734c                streammarker::~streammarker(void)
                0x0007995c                _IO_file_write
                0x0009084c                __common_long_jmp
                0x0001a4bc                gtMemoryMapDevice0Space
                0x00081a10                bad_exception type_info function
                0x0009c510                copyFromMbufs
                0x000dd12c                tcpRandHookAdd
                0x000860cc                __class_type_info::~__class_type_info(void)
                0x000e9b60                errnoSet
                0x0013e4b4                msgQShowInit
                0x0006d674                basic_string<char, string_char_traits<char>, __default_alloc_template<true, 0> >::assign(unsigned int, char)
                0x0008fff4                __gt64
                0x00095f70                __divsf3
                0x000bb2fc                inet_netof_string
                0x000cbe10                routeMetricSet
                0x000a329c                rn_search
                0x00027288                frcEEPROMWrite16
                0x00037548                memTest_Basic
                0x000e613c                strerror
                0x00090360                _savefprs_30_l
                0x00141838                semMGiveKern
                0x00075420                istream::putback(char)
                0x0013a2d0                wdbFppSet
                0x000b3ca0                bsdGetpeername
                0x00135020                wdbNotifyHost
                0x001427a8                taskSpawn
                0x0001b0c0                gtDmaUpdateArbiter
                0x0003638c                test_or_comparison
                0x0007f54c                global destructors keyed to _IO_stdin_
                0x000c6040                nfsDevShow
                0x00103a4c                shellPromptSet
                0x0006ae90                basic_string<char, string_char_traits<char>, __default_alloc_template<true, 0> >::Rep::clone(void)
                0x0008e0c8                _restfpr_15_l
                0x00013510                pciConfigBdfPack
                0x000f9098                symTypeGet
                0x0006d320                basic_string<char, string_char_traits<char>, __default_alloc_template<true, 0> >::check_realloc(unsigned int) const
                0x0010d3cc                qPriListInfo
                0x000d5d2c                in_pcbinshash
                0x000ba044                ifMaskGet
                0x0010cdcc                qPriBMapResort
                0x00043824                frcTestIntLatHard
                0x000664bc                domain_error::~domain_error(void)
                0x000fce58                so
                0x000f959c                taskSwitchHookAdd
                0x0010c0c4                lstInsert
                0x0010775c                ramDrv
                0x0006dac4                basic_string<char, string_char_traits<char>, __default_alloc_template<true, 0> >::operator+=(char const *)
                0x000d3b9c                igmp_fasttimo
                0x0008e194                _restgpr_15
                0x00041720                frcSysTest
                0x0008e164                _savefpr_24_l
                0x000402dc                save_minimum
                0x00010e38                sysSerialChanGet
                0x000b4c90                ftpReplyGet
                0x00139c60                wdbDirectCallLibInit
                0x001333fc                wdbNptInt
                0x000367dc                test_walkbits_comparison
                0x00103590                shellHistory
                0x000e7fa4                cacheUnlock
                0x0006f6b8                bool operator!=<char, string_char_traits<char>, __default_alloc_template<true, 0> >(char const *, basic_string<char, string_char_traits<char>, __default_alloc_template<true, 0> > const &)
                0x0006f720                bool operator!=<char, string_char_traits<char>, __default_alloc_template<true, 0> >(basic_string<char, string_char_traits<char>, __default_alloc_template<true, 0> > const &, char const *)
                0x001074f4                spyReport
                0x0010d57c                rngBufGet
                0x0001a7e4                gtMemoryGetInternalSramBaseAddr
                0x00027118                frcEEPROMWrite8
                0x000107f8                sysL2BackEnable
                0x00089fc4                excShowInit
                0x000908c4                tkRcvRtnCall
                0x000fe81c                dbgTaskBpTrace
                0x000dd078                tcp_setpersist
                0x00107be0                dosFsConfigShow
                0x0003eb60                now
                0x000e5d90                memmove
                0x0006ea80                basic_string<char, string_char_traits<char>, __default_alloc_template<true, 0> > operator+<char, string_char_traits<char>, __default_alloc_template<true, 0> >(basic_string<char, string_char_traits<char>, __default_alloc_template<true, 0> > const &, basic_string<char, string_char_traits<char>, __default_alloc_template<true, 0> > const &)
                0x000d020c                xdr_mountbody
                0x00027400                frcEEPROMRead8
                0x000cac24                rlogOutTask
                0x0013b9e8                xdr_WDB_TGT_INFO
                0x00018e40                gtPci0MapMemoryBank3
                0x000e3a5c                stdioInit
                0x00090248                _restf27
                0x000f3960                pathCondense
                0x0006f78c                bool operator<<char, string_char_traits<char>, __default_alloc_template<true, 0> >(basic_string<char, string_char_traits<char>, __default_alloc_template<true, 0> > const &, basic_string<char, string_char_traits<char>, __default_alloc_template<true, 0> > const &)
                0x000f84c8                symTblAdd
                0x000a0e24                ip_output
                0x0006e55c                basic_string<char, string_char_traits<char>, __default_alloc_template<true, 0> >::find_first_of(char, unsigned int) const
                0x00019728                gtPci0MapP2pMem0Space
                0x000b2128                bsdSockLibInit
                0x0014ddc4                qJobDelete
                0x0003f894                nano
                0x00075620                iostream type_info function
                0x000e3e5c                stdioShowInit
                0x00134cd8                wdbRunsTasking
                0x0014471c                taskUnsafe
                0x000432d8                frcTestLatInitialization
                0x0009050c                _savevr22
                0x0001b2e4                gtDmaSetEngineAccessProtect
                0x000cc194                rpcClntErrnoSet
                0x0001dd04                ethPortMcAddr
                0x000bb1f0                inet_makeaddr_b
                0x00078b58                filebuf::sys_close(void)
                0x000779dc                streambuf::unbuffered(void)
                0x0007760c                ios::eof(void) const
                0x0007d780                _IO_default_xsgetn
                0x0008197c                exception type_info function
                0x000eea60                hashTblDelete
                0x00077730                streambuf::_vtable(void)
                0x0004147c                touch
                0x000542e8                ctohex1
                0x00149978                wvLogHeaderCreate
                0x00090588                _restvr25
                0x00069d54                __malloc_alloc_template<0>::_S_oom_malloc(unsigned int)
                0x000bca2c                muxMCastAddrAdd
                0x00025bc4                frcFlashReadRst
                0x00057534                usrBootLineInit
                0x00054a18                frcAlignedMalloc
                0x0008df24                mmuPpcSdr1Set
                0x0009662c                __fixsfsi
                0x00131fe8                pmap_set
                0x000c71dc                nfsDirUnmount
                0x000f2f84                memPartShow
                0x0008e158                _savefpr_21_l
                0x0005a04c                cplusCallCtors
                0x00140f08                semMCreate
                0x000b416c                ftpCommand
                0x00074894                ostream::put(unsigned char)
                0x00090498                _restgprx_31_l
                0x0001a7fc                gtMemorySetInternalSramBaseAddr
                0x000775fc                ios::good(void) const
                0x0014d340                wdbDbgArchInit
                0x0007002c                cplusTerminate(void)
                0x00011248                frcGetBank1MemSize
                0x00080a18                __cp_push_exception
                0x0008e2dc                _savegpr_26_l
                0x000f0984                iosOpen
                0x000729b4                ostream::operator<<(unsigned long long)
                0x00018978                gtPci0MapInternalRegIOSpace
                0x0006e310                basic_string<char, string_char_traits<char>, __default_alloc_template<true, 0> >::c_str(void) const
                0x000294fc                ismin
                0x0006e14c                basic_string<char, string_char_traits<char>, __default_alloc_template<true, 0> >::replace(char *, char *, char const *)
                0x0009addc                ether_sprintf
                0x00134acc                wdbExternRegsSet
                0x001020a4                moduleIdFigure
                0x00036f40                release_mem
                0x000967c8                _savev21
                0x0008e308                _itof
                0x0013e3d0                msgQNumMsgs
                0x0008e11c                _restfpr_29_l
                0x000c3db4                netJobAdd
                0x000255f4                bootFlashErase
                0x00086ed4                __rtti_array
                0x0013fbcc                semCInit
                0x00090444                _restgprx_18_l
                0x00077530                ios::flags(void) const
                0x00103b74                shellLogout
                0x00071a70                istream::operator>>(long double &)
                0x0009c85c                set_if_addr
                0x00130930                xdrmem_create
                0x000953e0                __gtdf2
                0x0011ddf4                dosFsDevCreate
                0x0013ba48                xdr_WDB_PARAM_WRAPPER
                0x0008ac48                intLockLevelSet
                0x0008e1bc                _restgpr_25
                0x0001b3a4                gtSramMallocAligned
                0x000e490c                atol
                0x000170b4                sysMachChkExcpInit
                0x000e9ae8                __errno
                0x0006c4d4                basic_string<char, string_char_traits<char>, __default_alloc_template<true, 0> >::find_last_not_of(char, unsigned int) const
                0x00085b50                __user_type_info::~__user_type_info(void)
                0x0014052c                semFlush
                0x00135670                wdbSvcAdd
                0x0008ac68                intRegsUnlock
                0x0010123c                loadModule
                0x000cfc8c                xdr_linkargs
                0x0012d2f8                xdr_des_block
                0x0007338c                ostream::tellp(void)
                0x001013a4                addSegNames
                0x0008aa58                intUnlock
                0x00142a54                taskInit
                0x00010820                sysL2BackDisable
                0x000bd2a4                endFindByName
                0x000904b4                _savegprx_16_l
                0x000234e4                sdmaTxReturnDesc
                0x00090358                _savefprs_28_l
                0x0013a298                wdbFppRestore
                0x0003b9c4                rdwr
                0x0012d2a0                xdr_opaque_auth
                0x000f0930                iosDelete
                0x0003fe60                usecs_spent
                0x0010aee4                bootBpAnchorExtract
                0x0007d754                _IO_sgetn
                0x00056928                usrMmuInit
                0x0008f2cc                __DIAB_wr_pk_db
                0x000f8a58                symFindByName
                0x0008abc8                intEnable
                0x001024dc                moduleSegFirst
                0x0008e1e0                _savegpr_14
                0x0010bff4                lstExtract
                0x00131cb0                clnt_spcreateerror
                0x0001dba8                ethPortUcAddrSet
                0x00128e00                cbioLock
                0x000880d0                signed char type_info function
                0x000904dc                _savegprx_26_l
                0x000c8de4                nfsAuthUnixShow
                0x000b64a0                ftpdDelete
                0x00018088                gtPci0MapMemory2space
                0x00082e48                bad_alloc type_info function
                0x000106dc                __READ_FLASH64
                0x000776c4                ios::Init::Init(void)
                0x0014acf8                evtLogOInt
                0x00059e9c                RBString_T::prepend(char)
                0x0008b9cc                vxHid0Set
                0x00077550                ios::precision(int)
                0x000a73ec                rt_fixdelete
                0x0010d2a0                qPriListResort
                0x00148f18                wvEvtClassSet
                0x000f90f8                symShow
                0x000d0174                xdr_dirpath
                0x0004416c                frcTestVPD
                0x00090544                _savevr29
                0x00131c7c                clnt_perrno
                0x000e9880                getenv
                0x000798f0                _IO_file_seek
                0x000d2364                netClFree
                0x000688f4                range_error type_info function
                0x0014d39c                wdbDbgTraceModeSet
                0x00141acc                semMPendQPut
                0x000e00b4                ceil
                0x000b2b74                bsdSend
                0x00058da4                wdbMbufFree
                0x001406e4                semDestroy
                0x00018010                gtPci0MapMemory1space
                0x0010d334                qPriListAdvance
                0x000ee6d4                fppShowInit
                0x000907fc                __diab_lock_mutex
                0x000c9050                nfsIdSet
                0x00013174                pciFindClass
                0x000ebe60                fioRead
                0x0007365c                endl(ostream &)
                0x00014324                pciConfigModifyByte
                0x00019a20                gtPci0MapP2pIoSpace
                0x00029838                frcBibShow
                0x00071f84                ostream::operator<<(char)
                0x001050d0                netHelp
                0x00077ba8                streambuf::sgetc(void)
                0x000e9e68                fioLibInit
                0x0007270c                ostream::operator<<(long)
                0x00026454                frcFlashErase
                0x00102e54                moduleCheck
                0x0008e230                _restgpr_14_l
                0x000f4954                ptyDevRemove
                0x0003ee0c                bandwidth_val
                0x0013d080                kernelInit
                0x000902c0                _restfprs_19_l
                0x00034a70                MoveMemory
                0x0006d5b0                basic_string<char, string_char_traits<char>, __default_alloc_template<true, 0> >::basic_string(char const *)
                0x00111e68                dosChkEntryMark
                0x0006aa20                __malloc_alloc_template<0>::allocate(unsigned int)
                0x00014548                pciAutoConfig
                0x0008e1d4                _restgpr_31
                0x000957e0                __make_dp
                0x000e3508                __srget
                0x0006c428                basic_string<char, string_char_traits<char>, __default_alloc_template<true, 0> >::find_last_not_of(char const *, unsigned int, unsigned int) const
                0x00101cc0                moduleInit
                0x0001058c                sysGetCpuVer
                0x000e03b8                floor
                0x000e7ec4                cacheLibInit
                0x000d55d8                in_pcbnotify
                0x000bbd80                muxShow
                0x0009045c                _restgprx_24_l
                0x000d23a8                netMblkClFree
                0x00147b9c                windPendQFlush
                0x000d2474                netClBlkGet
                0x00090464                _restgprx_26_l
                0x000a0230                ip_dooptions
                0x000f217c                memPartInit
                0x000fe510                dbgTaskBpBreakpoint
                0x000f07ac                iosFdNew
                0x000e372c                setlinebuf
                0x0008e140                _savefpr_15_l
                0x001492bc                wvSigInst
                0x001217bc                dosVDirLibInit
                0x000af264                sbdrop
                0x000b3dc4                bsdShutdown
                0x00066490                logic_error::what(void) const
                0x000e4a68                labs
                0x00057a68                usrSlipInit
                0x0010bb74                bufAlloc
                0x000e2c4c                gets
                0x00042698                frcTestSerial
                0x000773bc                streammarker::delta(void)
                0x000a356c                rn_match
                0x0013bc74                xdr_WDB_STRING_T
                0x00090438                _restgprx_15_l
                0x00011e7c                sysOutWord
                0x0009683c                _restv23
                0x0007494c                ostream::write(signed char const *, int)
                0x0008e640                __dtoll
                0x000aca6c                soreceive
                0x00096738                __make_fp
                0x0007de04                _IO_init_marker
                0x00149f98                wvTaskNamesBufAdd
                0x00102434                moduleSegGet
                0x000a38b8                rn_insert
                0x000bc6c4                muxPollReceive
                0x00148c00                fileUploadPathLibInit
                0x00068fb0                overflow_error::overflow_error(basic_string<char, string_char_traits<char>, __default_alloc_template<true, 0> > const &)
                0x000784b4                filebuf::filebuf(int, char *, int)
                0x0010c3bc                qFifoGet
                0x000902e4                _restfprs_28_l
                0x000e8064                cacheClear
                0x000181c0                gtPci0GetIOspaceSize
                0x000e4934                bsearch
                0x00096bb8                if_attach
                0x0014b4e8                cplusLoadFixup
                0x0010c9f0                qCalibrate
                0x000d2854                netMblkChainDup
                0x0002d578                RoundInternalFPF
                0x00102134                moduleShow
                0x0005ae68                cplus_mangle_opname
                0x00077bc8                streambuf::snextc(void)
                0x000bcb34                muxUnbind
                0x000c8eb4                nfsAuthUnixSet
                0x00105d30                version
                0x0008f0e8                sfpFloatNormalize
                0x000b9e80                ifAddrDelete
                0x000f47f0                ptyDevCreate
                0x00136ba8                wdbEventNodeInit
                0x0001a660                gtMemoryMapDevice3Space
                0x000ee6e8                fppTaskRegsShow
                0x00018120                gtPci0MapMemory3space
                0x00095cf0                __subsf3
                0x000faab0                tyAbortFuncSet
                0x0006cc74                basic_string<char, string_char_traits<char>, __default_alloc_template<true, 0> >::data(void) const
                0x0010ea1c                rBuffDestroy
                0x0006c74c                string_char_traits<char>::is_del(char)
                0x00089b20                excVecBaseGet
                0x00037ce8                getpagesize_lmbench
                0x0001c0cc                gtCntmrDisable
                0x000c74d0                nfsLookUpByName
                0x000774a8                ios type_info function
                0x000f0bc4                iosWrite
                0x000bdc10                muxTaskDelayGet
                0x0003f384                mb
                0x0009044c                _restgprx_20_l
                0x0014a71c                evtObjLogFuncBind
                0x0008b960                vxDsisrSet
                0x000d735c                icmp_ctloutput
                0x000f2e74                memAddToPool
                0x00128e54                cbioUnlock
                0x000f06cc                iosFdSet
                0x00010690                GET_THRM1
                0x000599a0                RBString_T::RBString_T(void)
                0x00086ad4                __rtti_attr
                0x00142534                taskNameToId
                0x00073468                ws(istream &)
                0x00019c40                gtPci0SetRegionFeatures
                0x000f83f0                symAdd
                0x0013c400                eventReceive
                0x0003f0c4                bandwidth_n
                0x0006bed0                basic_string<char, string_char_traits<char>, __default_alloc_template<true, 0> >::resize(unsigned int, char)
                0x0010c988                qGetExpired
                0x0010ca50                qEach
                0x0013b5f0                xdr_WDB_MEM_XFER
                0x000416bc                print_bytes
                0x00010b08                sysClkRateSet
                0x000e4cbc                qsort
                0x000f04b0                iosNextDevGet
                0x000dd984                tcp_close
                0x000909d8                endFlagsClr
                0x000f2bb0                memPartBlockIsValid
                0x00141c4c                semInfo
                0x00015e5c                frcPciConfigReadVPD
                0x00104c3c                unldByGroup
                0x0005759c                usrBootLineCrack
                0x000e1fc8                fscanf
                0x000d04ec                icmpstatShow
                0x0001c310                gtCntmrIsTerminate
                0x000e15f0                fgets
                0x0007dd10                _IO_flush_all_linebuffered
                0x000e6c18                __daysSinceEpoch
                0x00022eb0                sdmaChanStart
                0x000aa140                pfctlinput
                0x0005a024                cplusDtorsLink
                0x000fca40                bdall
                0x000777cc                streambuf::xput_char(char)
                0x00077fdc                filebuf::filebuf(void)
                0x00018c00                gtPci0MapMemoryBank1DAC
                0x0008df34                mmuPpcSdr1Get
                0x00090320                _savefprs_14_l
                0x0010c114                lstNext
                0x0008aaac                intVecSet
                0x001481bc                workQAdd0
                0x00040eec                get_enough
                0x00034dcc                TicksToSecs
                0x0014db90                wdbDbgDabrGet
                0x000e6a30                __getTime
                0x000749ac                ostream::operator<<(signed char)
                0x00076e54                streambuf::doallocbuf(void)
                0x000e9554                envPrivateCreate
                0x0004012c                use_pointer
                0x000876a8                char type_info function
                0x0014a9a8                evtLogT1
                0x0006fa1c                bool operator<=<char, string_char_traits<char>, __default_alloc_template<true, 0> >(basic_string<char, string_char_traits<char>, __default_alloc_template<true, 0> > const &, char const *)
                0x0008e0f8                _restfpr_27_l
                0x000d59a8                in_rtchange
                0x000772ec                streambuf::sys_read(char *, int)
                0x00018248                gtPci0GetMemory0Size
                0x0010c078                lstFirst
                0x00148cd0                fileUploadPathClose
                0x000f8c14                symByValueAndTypeFind
                0x0009cef8                in_control
                0x0007d5d8                _IO_default_underflow
                0x0013b7c0                xdr_WDB_RT_INFO
                0x0006d54c                basic_string<char, string_char_traits<char>, __default_alloc_template<true, 0> >::assign(char const *)
                0x00085dc4                __si_type_info::~__si_type_info(void)
                0x0005a1e8                cplusDemanglerInit
                0x00025b90                correctaddr
                0x00028390                frcRTCWrite
                0x0006f9b8                bool operator<=<char, string_char_traits<char>, __default_alloc_template<true, 0> >(char const *, basic_string<char, string_char_traits<char>, __default_alloc_template<true, 0> > const &)
                0x00077ae8                streambuf::sputn(char const *, int)
                0x00078b38                filebuf::sys_stat(void *)
                0x00017bd8                userRsrvMemMallocAligned
                0x0001aadc                gtMemorySetDeviceParam
                0x0008dd5c                excExit
                0x000e2aac                getc
                0x0011e5a8                dosFsHdlrInstall
                0x000447ec                frcTestMACAddr
                0x000cbcd8                rtrequestDelEqui
                0x0010cae4                qPriBMapCreate
                0x00010854                sysL2BackHWFlush
                0x00144c6c                taskTcb
                0x000f1f34                memFindMax
                0x00105498                repeat
                0x0006fb88                istream & operator>><char, string_char_traits<char>, __default_alloc_template<true, 0> >(istream &, basic_string<char, string_char_traits<char>, __default_alloc_template<true, 0> > &)
                0x0014b774                _dbgRetAdrsGet
                0x00065778                logic_error::~logic_error(void)
                0x00080898                unexpected(void)
                0x00090178                __ule64
                0x0010315c                shell
                0x0001a88c                gtMemoryDisableWindow
                0x00145994                tick64Set
                0x000cc260                sockLibAdd
                0x000905a0                _restvr28
                0x00023af4                vxSdmaIntClear
                0x000905b8                _restvr31
                0x00103df8                timexHelp
                0x0010d834                rngIsFull
                0x000e5d48                memcpy
                0x00101290                loadModuleAtSym
                0x000d2634                netClBlkJoin
                0x0006d298                basic_string<char, string_char_traits<char>, __default_alloc_template<true, 0> >::basic_string(basic_string<char, string_char_traits<char>, __default_alloc_template<true, 0> > const &)
                0x0007d638                _IO_default_xsputn
                0x000d80ec                rip_usrreq
                0x0010c488                qFifoEach
                0x00097bd4                if_slowtimoRestart
                0x0008dbc8                cacheArchTextUpdate
                0x00059a54                RBString_T::RBString_T(char const *)
                0x001392b0                udpCommIfInit
                0x0007f520                global constructors keyed to _IO_stdin_
                0x0009e30c                in_broadcast
                0x0001c82c                vxCntmrIntDisable
                0x00044a2c                getPLLCoreMultiplier
                0x000418d0                frcTestTbReset
                0x0008df04                mmuPpcSrSet
                0x0008e0cc                _restfpr_16_l
                0x00077920                streambuf::Bbase(void)
                0x00090230                _restf21
                0x000c5028                mbufShow
                0x0012c5e4                pmap_getport
                0x00096834                _restv22
                0x000bfda0                netDevCreate
                0x00045384                DCD_regs_dump
                0x000e379c                setvbuf
                0x0006cc88                basic_string<char, string_char_traits<char>, __default_alloc_template<true, 0> >::size(void) const
                0x0007108c                istream::operator>>(char *)
                0x00090264                _savef15
                0x00090270                _savef18
                0x00103028                shellRestart
                0x00102e90                moduleNameGet
                0x00149964                wvUploadTaskConfig
                0x000f4f10                selectInit
                0x000c9344                ping
                0x0006cb00                basic_string<char, string_char_traits<char>, __default_alloc_template<true, 0> >::Rep::data(void)
                0x00088748                altivecInit
                0x00069b7c                abs(double)
                0x0008ba48                vxTimeBaseGet
                0x00023fec                serialChanStart
                0x00077690                ios::sync_with_stdio(void)
                0x000808b4                __cp_exception_info
                0x000907a0                __diab_atomic_restore
                0x001445dc                taskSafe
                0x0007d87c                _IO_default_setbuf
                0x00134aa8                wdbExternRegSetObjAdd
                0x0007dbc0                _IO_sungetc
                0x00090434                _restgprx_14_l
                0x000f3f54                pathSplit
                0x000955e0                __floatsidf
                0x00073804                unlock(ostream &)
                0x00097b78                if_qflush
                0x0006dfcc                basic_string<char, string_char_traits<char>, __default_alloc_template<true, 0> >::erase(char *, char *)
                0x000ae300                socantrcvmore
                0x000efd18                ioGlobalStdGet
                0x0008e0ec                _restfpr_24_l
                0x000ca67c                rlogind
                0x00077e08                ios::ios(streambuf *, ostream *)
                0x0012da28                svc_sendreply
                0x000558e8                frcDmaTestStart1
                0x000e2f2c                perror
                0x00148964                semEvLibInit
                0x00010c4c                sysTimestampLock
                0x000f37f8                pathParse
                0x000954e0                __ltdf2
                0x0008ac08                intDisable
                0x00088c78                swab
                0x00041a78                getOption
                0x0014c980                vxTaskEntry
                0x000fdad8                dbgPrintCall
                0x000cf768                xdr_sattrargs
                0x000748e0                ostream::put(signed char)
                0x000904b0                _savegprx_15_l
                0x000eeff0                creat
                0x0008990c                excVecSet
                0x000f3af0                pathBuild
                0x0006e224                basic_string<char, string_char_traits<char>, __default_alloc_template<true, 0> >::at(unsigned int)
                0x00025fd0                operation_fail
                0x0008ba14                vxFpscrGet
                0x00077cd0                filebuf::is_open(void) const
                0x0011988c                dosFsFmtLibInit
                0x0002bda0                bibReadIntf
                0x000faac8                tyBackspaceSet
                0x0009685c                _restv27
                0x0010a0b0                bswap
                0x0014cac8                taskMsrSet
                0x000cf6c0                xdr_nfspath
                0x000eee90                hashFuncIterScale
                0x0001042c                _initialize_dbg_uart
                0x000e322c                puts
                0x00012c5c                sysHardReset
                0x0008e1e4                _savegpr_15
                0x000e8d80                clock_settime
                0x001080bc                copy
                0x000eef84                intRestrict
                0x000c5050                netShowInit
                0x00105c08                ts
                0x00011630                frcPrintBoardInfo
                0x0007d148                __overflow
                0x000e9af4                errnoGet
                0x000bb4e8                inet_ntoa_b
                0x000f1c0c                memPartFindMax
                0x0013a3b8                wdbDbgBpGet
                0x0014caa8                taskArgsGet
                0x00011520                frcMv64360SiliconVersion
                0x000abd08                soaccept
                0x000f8bec                symByValueFind
                0x00010000                _sysInit
                0x000dfb7c                islower
                0x0010be48                dllCount
                0x0001995c                gtPci0MapP2pMem1SpaceDAC
                0x00107c1c                dosFsVolOptionsSet
                0x00077618                ios::fail(void) const
                0x0009126c                endEtherAddressForm
                0x0007f634                __dummy
                0x000f1e50                memOptionsSet
                0x000e8170                cacheDmaFree
                0x0012755c                yyparse
                0x00108ddc                llr
                0x0010bd60                dllTerminate
                0x00080870                set_terminate(void (*)(void))
                0x0010c898                qPut
                0x000dfbf4                tolower
                0x0008e2c0                _savegpr_19_l
                0x0002519c                bootFlashProgram1byte
                0x0006c72c                string_char_traits<char>::lt(char const &, char const &)
                0x000775c0                ios::_throw_failure(void) const
                0x0004007c                last
                0x000755b4                istream::operator>>(ios &(*)(ios &))
                0x0004362c                frcTestIntLatSoft
                0x000d7b18                rip_output
                0x00054774                mem_perf
                0x000750f4                istream::ipfx0(void)
                0x00077d00                filebuf::is_reading(void)
                0x000e903c                rewinddir
                0x00136138                wdbMemTest
                0x00056524                usrDmaInit
                0x0008a420                fppArchInit
                0x0010d6b0                rngBufPut
                0x000e5ccc                system
                0x00085684                type_info::operator!=(type_info const &) const
                0x000e1298                feof
                0x0013d69c                msgQDelete
                0x00146a68                windPrioritySet
                0x000de6a0                tcp_canceltimers
                0x000a545c                route_init
                0x00097860                link_rtrequest
                0x000d04e8                icmpShowInit
                0x00079938                _IO_file_close
                0x0008854c                altivecArchTaskCreateInit
                0x0010ed48                wvRBuffMgrPrioritySet
                0x0004444c                atox
                0x000b9eac                ifAddrGet
                0x0006e658                basic_string<char, string_char_traits<char>, __default_alloc_template<true, 0> >::find_first_not_of(char const *, unsigned int) const
                0x00077280                streambuf::flush_all(void)
                0x000198a4                gtPci0MapP2pMem1Space
                0x0006da8c                basic_string<char, string_char_traits<char>, __default_alloc_template<true, 0> >::operator+=(basic_string<char, string_char_traits<char>, __default_alloc_template<true, 0> > const &)
                0x000b5d34                ftpTransientConfigGet
                0x0014ac2c                evtLogM3
                0x00072a88                ostream::operator<<(double)
                0x00010c04                sysTimestamp
                0x00041dc0                testmem_perf
                0x00053ad8                frcEEPROMTestRead
                0x000f33d8                memPartInfoGet
                0x00090354                _savefprs_27_l
                0x0012e4a0                svcraw_create
                0x000f2ea4                malloc
                0x00082ea0                bad_alloc::what(void) const
                0x0014b398                evtLogT1_noTS
                0x000ef328                remove
                0x0007dfac                _IO_unsave_markers
                0x00078240                filebuf::filebuf(int)
                0x000efdf8                isatty
                0x0014c8d0                _sigCtxSetup
                0x000907f8                __diab_free_mutex
                0x000d6480                icmp_input
                0x00080bb0                __uncatch_exception
                0x000ba148                ifFlagSet
                0x0001b340                gtSramInit
                0x000b3b94                bsdGetsockname
                0x00090398                _restfprx_24_l
                0x000ba594                ifRouteDelete
                0x00058d2c                wdbMbufAlloc
                0x00073790                lock(ostream &)
                0x000cd04c                sntpcTimeGet
                0x0014d738                wdbDbgRegsClear
                0x0008e0d4                _restfpr_18_l
                0x0012ea6c                svctcp_create
                0x0002b334                frcBibRead
                0x0008bb30                vxMemArchProbe
                0x000789b0                filebuf::attach(int)
                0x000a23dc                ip_ctloutput
                0x0010c690                qInit
                0x0008fa14                __div64
                0x0008f468                __asr64
                0x000443f0                frcTestIsMonarch
                0x00016c90                gtIntDisable
                0x0014dba0                wdbDbgDarGet
                0x001424a0                taskRegsSet
                0x0001cbf4                frcDmaIntConnect
                0x0010e5cc                rBuffFlush
                0x00143d38                taskRestart
                0x00081a90                bad_exception::bad_exception(void)
                0x00045100                getPMC280BoardInfo
                0x0008e2d4                _savegpr_24_l
                0x000904d8                _savegprx_25_l
                0x0006c7b8                string_char_traits<char>::copy(char *, char const *, unsigned int)
                0x000dfde8                ldexp
                0x00139140                wdbVioChannelUnregister
                0x000e923c                envLibInit
                0x000eef54                hashKeyStrCmp
                0x0010ef7c                rBuffShowInit
                0x0007014c                iostream::iostream(int)
                0x000964e8                __lesf2
                0x000e8bf8                clock_setres
                0x000e9b00                errnoOfTaskGet
                0x00010d88                sysSerialHwInit2
                0x000d21a8                netPoolKheapInit
                0x00041d14                frcTestIDMAScrubChk
                0x00036904                test_bitspread_comparison
                0x00103bf4                shellIsRemoteConnectedGet
                0x000ca2d0                remCurIdGet
                0x0010bef8                lstAdd
                0x000231d4                sdmaChanStopTxRx
                0x0006e0c4                basic_string<char, string_char_traits<char>, __default_alloc_template<true, 0> >::replace(unsigned int, unsigned int, char)
                0x0013dbc0                msgQSend
                0x000253a0                bootFlashGetSectorOff
                0x00075554                istream::operator>>(signed char *)
                0x000295ac                issec
                0x0007741c                ios::readable(void)
                0x00092840                __fixunsdfsi
                0x000ad53c                soshutdown
                0x000c7bf4                nfsThingCreate
                0x00147a00                windReadyQPut
                0x000598d8                __pure_virtual_called
                0x000a30a4                ip_mloopback
                0x0003614c                test_verify_success
                0x0005a300                cplusDemanglerStyleSet
                0x000752d8                istream::get(void)
                0x000e78cc                __getDstInfo
                0x00103b4c                shellLoginInstall
                0x000cc970                recvfrom
                0x00054728                frcTestSwitch
                0x00107690                spyStop
                0x000abc18                soabort
                0x00076c98                streambuf::sync(void)
                0x0008f71c                __rem32
                0x0010d130                qPriListInit
                0x00130178                xdr_bytes
                0x0012db0c                svcerr_decode
                0x00011f88                sysCpuCheck
                0x0006e1fc                basic_string<char, string_char_traits<char>, __default_alloc_template<true, 0> >::eos(void)
                0x0007496c                ostream::write(void const *, int)
                0x00065da8                logic_error type_info function
                0x000b299c                bsdSendto
                0x00068f04                overflow_error::~overflow_error(void)
                0x0010d338                qPriListGetExpired
                0x00077538                ios::flags(unsigned long)
                0x000e9158                statfs
                0x0002c874                frcBootRegFileBurn
                0x000904fc                _savevr20
                0x0009043c                _restgprx_16_l
                0x00096854                _restv26
                0x0008e2c8                _savegpr_21_l
                0x001453d8                taskRegsShow
                0x0001c140                gtCntmrRead
                0x00141d84                semShow
                0x001390f4                wdbVioLibInit
                0x00078a70                filebuf::seekoff(long, ios::seek_dir, int)
                0x0001b89c                frcGppIntDisable
                0x00097948                if_down
                0x00131378                xdrrec_endofrecord
                0x000e5a9c                strtoul
                0x00142414                taskBpHookSet
                0x000c5db4                nfsMount
                0x0014de34                qJobPut
                0x000b8bdc                hostTblInit
                0x0007e1c8                _IO_ostream_withassign::operator=(ostream &)
                0x000775ec                ios::setstate(int)
                0x0009cc1c                inet_netmatch
                0x000fa450                ttyDrv
                0x0006f884                bool operator><char, string_char_traits<char>, __default_alloc_template<true, 0> >(basic_string<char, string_char_traits<char>, __default_alloc_template<true, 0> > const &, basic_string<char, string_char_traits<char>, __default_alloc_template<true, 0> > const &)
                0x0006d990                basic_string<char, string_char_traits<char>, __default_alloc_template<true, 0> >::append(unsigned int, char)
                0x0009cd24                in_localaddr
                0x000e8b80                clock_getres
                0x0008e254                _restgpr_23_l
                0x0012223c                ledRead
                0x001354ac                wdbRpcNotifyHost
                0x0008ac54                intRegsLock
                0x000cfc24                xdr_renameargs
                0x00080860                __default_unexpected(void)
                0x000874a0                short type_info function
                0x00090420                _savefprx_29_l
                0x000904d4                _savegprx_24_l
                0x000ade70                soisdisconnecting
                0x000e85ac                classShowConnect
                0x0014117c                semMGive
                0x000bf070                muxTkPollReceive
                0x000886c4                altivecProbe
                0x00087090                void type_info function
                0x000ced00                tftpErrorCreate
                0x0008aa44                intLock
                0x000a62f8                rtredirect
                0x00074a10                ostream::operator<<(short)
                0x00036d60                extendedTestError
                0x000f0ad0                iosRead
                0x0014b14c                evtLogTasks
                0x000f08e0                iosCreate
                0x000dfba4                ispunct
                0x000f7f2c                symTblCreate
                0x00093814                __udivmoddi4
                0x0008e218                _savegpr_28
                0x0014637c                wdShowInit
                0x0009040c                _savefprx_24_l
                0x00104a54                unldByModuleId
                0x000e4bc8                wctomb
                0x00147f20                windPendQRemove
                0x000f5768                selNodeAdd
                0x0008f304                __DIAB_wr_pk_fl
                0x000d115c                udpShowInit
                0x000bfb60                muxTkBindUpdate
                0x000cf350                xdr_nfsstat
                0x00146378                wdTick
                0x00088c5c                bfillBytes
                0x00010960                sysL1DcacheEnable
                0x00070f44                istream::operator>>(char &)
                0x000d02c8                xdr_groupnode
                0x0012a82c                clnt_create
                0x0007959c                _IO_file_seekoff
                0x00107f28                rmdir
                0x00090e64                endObjInit
                0x0010ca80                qPriBMapListCreate
                0x0001fbc4                vxEthernetIntEnable
                0x00097518                ifaof_ifpforaddr
                0x00077820                streambuf::gbump(int)
                0x00077270                streambuf::set_column(int)
                0x000e4c58                wcstombs
                0x0010bf20                lstConcat
                0x00128c88                cbioModeSet
                0x0008e210                _savegpr_26
                0x00036290                test_mul_comparison
                0x0012c368                clntudp_freeres
                0x000cc31c                socket
                0x00019430                gtPci0MapDevice3MemorySpace
                0x0007f7cc                __get_eh_info
                0x000f50f8                select
                0x000c3b84                netLibGeneralInit
                0x000ebf00                fioRdString
                0x000646d0                __out_of_range(char const *)
                0x0008eeec                __ftoll
                0x00082ae4                __frame_state_for
                0x00112adc                dosFsChkTree
                0x00053d3c                frcTestRTCWrite
                0x0006c640                basic_string<char, string_char_traits<char>, __default_alloc_template<true, 0> >::compare(char const *, unsigned int, unsigned int) const
                0x000e8ff4                readdir
                0x000bcadc                muxMCastAddrGet
                0x000e2dc0                __smakebuf
                0x00025bb8                __READ_FLASH16
                0x00090298                _savef28
                0x00076cc0                streambuf::setbuf(char *, int)
                0x0006e120                basic_string<char, string_char_traits<char>, __default_alloc_template<true, 0> >::replace(char *, char *, char const *, unsigned int)
                0x000e9130                fstatfs
                0x00090280                _savef22
                0x0009028c                _savef25
                0x0013d678                msgQTerminate
                0x000733e4                ostream::flush(void)
                0x001463e0                wdShow
                0x00036224                test_sub_comparison
                0x000ab5d4                sofree
                0x00110434                dcacheDevEnable
                0x000902cc                _restfprs_22_l
                0x000778dc                streambuf::in_backup(void)
                0x00090834                __diab_free_semaphore
                0x00018220                gtPci0GetMemory0Base
                0x0001e8d4                ethPortWriteSmiReg
                0x000faad4                tyDeleteLineSet
                0x000fd764                l
                0x001056f8                checkStack
                0x0009ac88                _arpCmd
                0x000f409c                pipeDevCreate
                0x000106a8                SET_THRM1
                0x00131c10                clnt_perror
                0x0008e190                _restgpr_14
                0x000e0a50                drem
                0x000f9038                symNameGet
                0x00019b7c                gtPci0MapCPUspaceDAC
                0x00019f58                gtPci0P2PConfig
                0x0004397c                frcTestIntLatency
                0x00134cc8                wdbIsNowExternal
                0x000dfbb8                isspace
                0x000df8e8                tcp_disconnect
                0x000bc034                muxBind
                0x00094544                __unpack_d
                0x0006e7f8                basic_string<char, string_char_traits<char>, __default_alloc_template<true, 0> >::compare(char const *, unsigned int) const
                0x0006db2c                basic_string<char, string_char_traits<char>, __default_alloc_template<true, 0> >::operator+=(char)
                0x00021458                brgStart
                0x0006e204                basic_string<char, string_char_traits<char>, __default_alloc_template<true, 0> >::operator[](unsigned int) const
                0x0010c080                lstGet
                0x0001422c                pciConfigModifyWord
                0x00085224                __rtti_user
                0x0007904c                _IO_file_setbuf
                0x00010eb0                frcGetPcbRev
                0x00026150                frcFlashProgram
                0x000e1368                fflush
                0x000543ac                TestIntConnect
                0x000bb75c                rawIpLibInit
                0x0010c3f4                qFifoRemove
                0x00046de8                MV64360_regs_dump
                0x00010ae0                sysClkDisable
                0x00135c8c                wdbCtxLibInit
                0x0006fa88                bool operator>=<char, string_char_traits<char>, __default_alloc_template<true, 0> >(basic_string<char, string_char_traits<char>, __default_alloc_template<true, 0> > const &, basic_string<char, string_char_traits<char>, __default_alloc_template<true, 0> > const &)
                0x00128d1c                cbioRdyChgdGet
                0x00074ab0                ostream::operator<<(ostream &(*)(ostream &))
                0x00074264                _IO_ostream_withassign::~_IO_ostream_withassign(void)
                0x00103d50                timexFunc
                0x0006cb08                basic_string<char, string_char_traits<char>, __default_alloc_template<true, 0> >::repup(basic_string<char, string_char_traits<char>, __default_alloc_template<true, 0> >::Rep *)
                0x00073fa8                iostream::~iostream(void)
                0x000903a8                _restfprx_28_l
                0x0012fc3c                xdr_void
                0x00077808                streambuf::xsetflags(int, int)
                0x00090570                _restvr22
                0x0001579c                pciScan
                0x00011258                frcPrintBank1MemSize
                0x00148194                workQInit
                0x000ac0f0                soconnect2
                0x0012e180                _svcauth_null
                0x00090460                _restgprx_25_l
                0x00010b4c                sysTimestampEnable
                0x0006774c                out_of_range::~out_of_range(void)
                0x0007793c                streambuf::Bptr(void)
                0x0007e154                _IO_default_write
                0x0006c820                basic_string<char, string_char_traits<char>, __default_alloc_template<true, 0> >::rep(void) const
                0x00031f24                DoIDEA
                0x0009676c                __extendsfdf2
                0x0014aa60                evtLogM0
                0x00015c04                frcPciSetActive
                0x0013c310                eventTerminate
                0x0008e774                __dtoull
                0x00090418                _savefprx_27_l
                0x0012c780                xdr_pmap
                0x0006dc30                basic_string<char, string_char_traits<char>, __default_alloc_template<true, 0> >::insert(unsigned int, unsigned int, char)
                0x000f9d50                taskDeleteHookShow
                0x0012dcc4                svcerr_progvers
                0x000124e0                sysVirtToPhys
                0x00055da4                wdValueReg
                0x0010eb98                wvRBuffMgr
                0x001409f0                semGiveDefer
                0x00148d80                wvEvtLogInit
                0x000949b0                __adddf3
                0x000962e8                __nesf2
                0x000f24b0                memPartAlignedAlloc
                0x00040350                save_median
                0x000ca430                whoami
                0x000cb88c                mRouteEntryAdd
                0x0012da9c                svcerr_noproc
                0x000cc1dc                sockLibInit
                0x000bd584                muxAddrResFuncAdd
                0x000bde80                muxPollEnd
                0x0001f0b8                ethPortReceive
                0x00076bb8                streambuf::overflow(int)
                0x0008e2b0                _savegpr_15_l
                0x00101f8c                moduleDelete
                0x000cddb0                tftpModeSet
                0x000af644                splimp
                0x000ad754                sosetopt
                0x000183e0                gtPci0GetMemory3Size
                0x000dc0c8                tcp_mss
                0x00148254                workQAdd1
                0x000b3514                bsdRecvmsg
                0x000a5870                routeDrain
                0x0010c8f8                qRemove
                0x00145d14                wdTerminate
                0x00016f64                sysIntCtrlInit
                0x00072ffc                ostream::ostream(int, streambuf *, ostream *)
                0x000e4bf4                mbstowcs
                0x0006c744                string_char_traits<char>::eos(void)
                0x000f2f28                memShowInit
                0x000a9554                udp_output
                0x000e96f4                putenv
                0x00034ea0                ramTestPrintDot
                0x0008e2e4                _savegpr_28_l
                0x000ba174                ifFlagGet
                0x000b2330                bsdBind
                0x00018330                gtPci0GetMemory2Base
                0x00022514                mpscChanStopRx
                0x00093e40                __umoddi3
                0x000c11f4                netLsByName
                0x000ef6b8                lseek
                0x00073f08                ios::close(void)
                0x000856a8                bad_cast type_info function
                0x000902c8                _restfprs_21_l
                0x000bc2fc                muxSend
                0x000f3c54                pathCat
                0x0008e0f0                _restfpr_25_l
                0x000e9cb0                excJobAdd
                0x000f5e24                sigaddset
                0x00089314                excVecInit
                0x000fa384                taskVarInfo
                0x00059860                cplusLibInit
                0x000e8694                classMemPartIdSet
                0x0014b224                evtsched
                0x00070904                istream::get(char &)
                0x0012aedc                clnt_simpleInclude
                0x001289cc                cbioBlkRW
                0x0001e4d4                ethClearMibCounters
                0x000ae3a4                sbseldequeue
                0x0006e4f0                basic_string<char, string_char_traits<char>, __default_alloc_template<true, 0> >::find_first_of(char const *, unsigned int) const
                0x00088574                altivecTaskRegsGet
                0x000e3e90                stdioShow
                0x0005a71c                set_cplus_marker_for_demangling
                0x0005a2f4                cplusDemanglerSet
                0x0013b970                xdr_WDB_AGENT_INFO
                0x0001886c                gtPci0MapInternalRegSpace
                0x00091f70                __clear_cache
                0x00130718                xdr_vector
                0x0013add8                wdbAltivecGet
                0x00037f34                bwMem
                0x000bfdc4                netDevCreate2
                0x0006c0b0                basic_string<char, string_char_traits<char>, __default_alloc_template<true, 0> >::find(char, unsigned int) const
                0x000f0324                iosDevDelete
                0x00074b28                istream::~istream(void)
                0x000d59e8                in_pcblookup
                0x0010ce34                qPriBMapInfo
                0x0011037c                dcacheDevDisable
                0x00149d0c                wvEvtBufferGet
                0x0001b048                gtDmaIsChannelActive
                0x000744a8                ostream::ostream(int)
                0x0010bcdc                dllCreate
                0x0010a114                bzero
                0x00017d18                _frcPci0ReadConfigReg
                0x0007784c                streambuf::pbump(int)
                0x0008739c                int type_info function
                0x00013920                pciConfigInLong
                0x0008e2bc                _savegpr_18_l
                0x000116e4                sysModel
                0x0006c89c                basic_string<char, string_char_traits<char>, __default_alloc_template<true, 0> >::Rep::operator delete(void *)
                0x0008e01c                mmuPpcExtraBatEnableMPC74x5
                0x00135200                wdbRpcRcv
                0x000a3870                rn_newpair
                0x000c8f94                nfsAuthUnixGet
                0x0006c550                basic_string<char, string_char_traits<char>, __default_alloc_template<true, 0> >::compare(basic_string<char, string_char_traits<char>, __default_alloc_template<true, 0> > const &, unsigned int, unsigned int) const
                0x000cfa24                xdr_readokres
                0x000932d8                __udivdi3
                0x000967f0                _savev26
                0x001343bc                wdbVioDrv
                0x000d279c                netMblkDup
                0x000cc820                send
                0x00037cf0                frcLmbench
                0x001459f4                tick64Get
                0x0014d42c                wdbDbgHwAddrCheck
                0x0012dd3c                svc_getreq
                0x000e36c0                setbuffer
                0x000fc1a4                dbgInit
                0x00102ef0                moduleFlagsGet
                0x0006eca8                basic_string<char, string_char_traits<char>, __default_alloc_template<true, 0> > operator+<char, string_char_traits<char>, __default_alloc_template<true, 0> >(char const *, basic_string<char, string_char_traits<char>, __default_alloc_template<true, 0> > const &)
                0x00140b10                semInvalid
                0x000aa540                mbinit
                0x000e487c                abort
                0x0001a868                gtMemoryDisableProtectRegion
                0x000f2f58                memShow
                0x000189e8                gtPci0MapMemoryBank0
                0x0004161c                frcTestlatMemRead
                0x00059cd4                RBString_T::append(RBString_T &)
                0x0010d154                qPriListDelete
                0x0012d7f8                xprt_unregister
                0x0003fe20                tvsub
                0x000850c8                __rtti_si
                0x0010a5c0                bootStructToString
                0x00147360                windDelay
                0x00147d54                windPendQPut
                0x0013dffc                msgQReceive
                0x00078a30                filebuf::underflow(void)
                0x00077444                ios::is_open(void)
                0x0010da94                sllCount
                0x000e3e14                __stderr
                0x00090598                _restvr27
                0x00142850                taskCreat
                0x0007730c                streammarker::streammarker(streambuf *)
                0x001422e4                taskOptionsSet
                0x000dd428                tcp_respond
                0x00076db8                streambuf::seekpos(long, int)
                0x000278f0                frcI2CRead
                0x0008e2c4                _savegpr_20_l
                0x0005afd4                cplus_demangle
                0x000f04cc                iosFdValue
                0x000e6a0c                gmtime_r
                0x0008b92c                vxMsrSet
                0x0006e4c8                basic_string<char, string_char_traits<char>, __default_alloc_template<true, 0> >::find_first_of(basic_string<char, string_char_traits<char>, __default_alloc_template<true, 0> > const &, unsigned int) const
                0x0010ad14                bootLeaseExtract
                0x0010d998                sllTerminate
                0x000b11fc                ipDetach
                0x00101960                loadCommonManage
                0x0013f4b4                semBGive
                0x0013c2c8                eventLibInit
                0x000adc58                uiomove
                0x00012cdc                pciIsr
                0x00082e14                bad_alloc::~bad_alloc(void)
                0x000dfbe0                isxdigit
                0x000f10bc                logFdAdd
                0x000f7af8                sigPendDestroy
                0x0013cf3c                eventStart
                0x00068404                runtime_error::what(void) const
                0x00077548                ios::precision(void) const
                0x0014b020                evtLogPoint
                0x000c62a0                nfsDevInfoGet
                0x000f80e8                symTblTerminate
                0x00057a98                usrPPPInit
                0x0008f0b0                __lltof
                0x00090330                _savefprs_18_l
                0x000bfc34                muxTkUnloadUpdate
                0x0012fec4                xdr_char
                0x00012b08                rdreg
                0x000f2050                memPartCreate
                0x00131df8                clnt_pcreateerror
                0x00022218                mpscDbg
                0x000c5148                arptabShow
                0x00102f50                shellInit
                0x0014b930                _dbgTaskPCGet
                0x00149e14                wvTaskNamesUpload
                0x00034eec                ramTest8bit
                0x00074f74                istream::getline(signed char *, int, char)
                0x00040b10                t_overhead
                0x000773fc                streambuf::unsave_markers(void)
                0x000903a0                _restfprx_26_l
                0x00135a88                wdbConnectLibInit
                0x0008f378                __DIAB_wr_sw_db
                0x00080be8                __check_eh_spec
                0x00034b90                ReportError
                0x000281e8                frcRTCRead
                0x000716cc                istream::operator>>(int &)
                0x0008ff54                __add64
                0x0009c900                ether_attach
                0x000e8e28                clock_show
                0x0005996c                RBStringIterator_T::nextChar(void)
                0x000f8ce0                symFindByValue
                0x0009698c                ifreset2
                0x000e57a0                __exp10
                0x000e5838                strtol
                0x00078990                filebuf::open(char const *, char const *)
                0x0013be48                xdr_TGT_INT_T
                0x0014e4f0                qJobInfo
                0x0001064c                sysL2crGet
                0x00134884                wdbInstallCommIf
                0x0001063c                sysGetL3CR
                0x00083fc0                operator new(unsigned int, nothrow_t const &)
                0x000dfa34                tcp_usrclosed
                0x0001caf8                frcDmaIntCtrlInit
                0x000e2500                fsetpos
                0x00021ca4                vxCunitIntDisable
                0x0014d8dc                windExit
                0x0008e15c                _savefpr_22_l
                0x0008ffa4                __ge64
                0x000254e4                frcBootFlashProgram
                0x0006d6a4                basic_string<char, string_char_traits<char>, __default_alloc_template<true, 0> >::basic_string(unsigned int, char)
                0x000d456c                in_pcbbind
                0x00024d04                bootEraseOrProgramOk
                0x0008e080                mmuPpcADisable
                0x0012e188                _svcauth_unix
                0x001400b4                semCGiveDefer
                0x00077a9c                streambuf::allocbuf(void)
                0x00090840                __diab_trylock_semaphore
                0x00066568                domain_error::domain_error(basic_string<char, string_char_traits<char>, __default_alloc_template<true, 0> > const &)
                0x000728bc                ostream::operator<<(long long)
                0x00128da8                cbioRdyChgdSet
                0x0009b1c8                ether_output
                0x00130830                xdr_double
                0x0014ca80                taskArgsSet
                0x000af8bc                _netFree
                0x000fdf70                dbgTaskBpHooksInstall
                0x000e4b04                mblen
                0x000f2838                memPartAlloc
                0x0008e04c                mmuPpcAEnable
                0x00078740                filebuf::~filebuf(void)
                0x00134ce8                wdbIsNowTasking
                0x001053ac                repeatRun
                0x0014069c                semDelete
                0x000fb1f8                tyIRd
                0x00036474                test_seqinc_comparison
                0x00080634                __rethrow
                0x000af78c                wakeup
                0x000f1030                logFdSet
                0x0007f7a0                __get_eh_context
                0x0014c684                ffsMsb
                0x000cc4fc                accept
                0x000bd9e8                muxDevStartAll
                0x0007e14c                _IO_default_read
                0x0010d914                sllCreate
                0x0013c2fc                eventInit
                0x0012213c                ledOpen
                0x00033c9c                DoLU
                0x000f8fdc                symName
                0x00077740                streambuf::gptr(void) const
                0x000f00e8                iosDrvRemove
                0x000829a0                __register_frame_table
                0x001073dc                printLogo
                0x00077564                ios::setf(unsigned long)
                0x00085b70                __user_type_info type_info function
                0x0001a058                gtMemoryGetDeviceBaseAddress
                0x0006e364                basic_string<char, string_char_traits<char>, __default_alloc_template<true, 0> >::find(basic_string<char, string_char_traits<char>, __default_alloc_template<true, 0> > const &, unsigned int) const
                0x00096acc                ifresetImmediate
                0x0005988c                cplusLibMinInit
                0x00074c4c                istream::istream(int)
                0x001477bc                windWdCancel
                0x00078cf8                _IO_file_close_it
                0x0001e7a4                ethernetGetConfigReg
                0x000875a4                bool type_info function
                0x00090be0                endMibIfInit
                0x000967f8                _savev27
                0x000cbfd8                rpcTaskInit
                0x00012148                sysMsDelay
                0x000f508c                selTaskDeleteHookAdd
                0x0010ce2c                qPriBMapKey
                0x000419f8                frcTestGettimeUsec
                0x0003ff50                p64sz
                0x00095984                __unpack_f
                0x0006e360                basic_string<char, string_char_traits<char>, __default_alloc_template<true, 0> >::reserve(unsigned int)
                0x001485e8                eventRsrcShow
                0x0008e16c                _savefpr_26_l
                0x000e13e8                __sflush
                0x000ef4ac                rename
                0x00023614                sdmaRxReturnBuff
                0x000757a4                _IO_ostream_withassign type_info function
                0x0007764c                ios::operator!(void) const
                0x00024660                vxMpscUartTxInt
                0x000de104                tcp_rtlookup
                0x00142678                taskIdListGet
                0x0013226c                xdr_callmsg
                0x0001a18c                gtMemoryGetDeviceSize
                0x000cb2f4                routeAdd
                0x0010cb68                qPriBMapInit
                0x0006e2fc                basic_string<char, string_char_traits<char>, __default_alloc_template<true, 0> >::terminate(void) const
                0x0006db94                basic_string<char, string_char_traits<char>, __default_alloc_template<true, 0> >::insert(unsigned int, char const *, unsigned int)
                0x0013a37c                wdbDbgBpListInit
                0x000e9688                envPrivateDestroy
                0x0007f9ac                __sjthrow
                0x0006e758                basic_string<char, string_char_traits<char>, __default_alloc_template<true, 0> >::substr(unsigned int, unsigned int) const
                0x000f80c4                symTblDelete
                0x000ae6d0                soreserve
                0x001302cc                xdr_union
                0x001029e4                moduleEach
                0x0009023c                _restf24
                0x00089130                cacheArchDmaMalloc
                0x00015f30                frcPciShow
                0x000776b4                ios::unset(state_value)
                0x000e6404                strrchr
                0x000cfe28                xdr_entry
                0x00136690                wdbMemLibInit
                0x000902a0                _savef30
                0x000905a8                _restvr29
                0x000b5d10                ftpLibDebugOptionsSet
                0x000422b4                frcTestStressSerial
                0x000bfd1c                netDrv
                0x00090504                _savevr21
                0x000d2318                netClBlkFree
                0x000226c4                vxMpscIntCntlInit
                0x0013a2fc                wdbFpLibInit
                0x0006f138                basic_string<char, string_char_traits<char>, __default_alloc_template<true, 0> > operator+<char, string_char_traits<char>, __default_alloc_template<true, 0> >(basic_string<char, string_char_traits<char>, __default_alloc_template<true, 0> > const &, char const *)
                0x0010d8e0                rngMoveAhead
                0x0008e1ac                _restgpr_21
                0x00090448                _restgprx_19_l
                0x00117d74                fat16VolMount
                0x0009686c                _restv29
                0x00073448                flush(ostream &)
                0x0009bd24                ether_addmulti
                0x00034e20                printDramErr
                0x000ba984                ifunit
                0x000215c4                brgSetCdv
                0x0014caa0                taskRtnValueSet
                0x00025b94                __WRITE_FLASH32
                0x0013003c                xdr_enum
                0x00055b04                watchdogTest
                0x000858fc                bad_typeid type_info function
                0x00145b10                wdCreate
                0x000f1e7c                calloc
                0x000956cc                __fixdfsi
                0x000b32cc                bsdRecv
                0x00019664                gtPci0MapBootDeviceMemorySpaceDAC
                0x00145a54                wdLibInit
                0x0012ff84                xdr_bool
                0x00056828                sysTimeBaseLGet
                0x000ae7f0                sbrelease
                0x00079914                _IO_file_stat
                0x00034cf8                StartStopwatch
                0x00077624                ios::bad(void) const
                0x000af4c4                sbdroprecord
                0x000f5c34                sigInit
                0x0008ff88                __ne64
                0x00075c50                _sb_readline(streambuf *, long &, char)
                0x000902c4                _restfprs_20_l
                0x00024efc                bootFlashParamWrite
                0x00144918                taskDelay
                0x0010acd4                bootParamsErrorPrint
                0x0006a5f4                __malloc_alloc_template<0>::_S_oom_realloc(void *, unsigned int)
                0x000faae0                tyEOFSet
                0x0003ed78                get_n
                0x00074fd4                istream::read(void *, int)
                0x000123d4                sysMmuPteShow
                0x000284b8                frcMACRead
                0x00073720                unlock(istream &)
                0x00092b2c                __floatdisf
                0x000bb1a4                inet_lnaof
                0x000902b0                _restfprs_15_l
                0x00117c94                fat16ClustValueGet
                0x000860ec                __class_type_info type_info function
                0x001424f0                taskName
                0x000e52d4                strtod
                0x0008f588                __div32
                0x0001648c                gtInitSdramSize
                0x00053254                frcTestDispMemMap
                0x0010d43c                qPriListEach
                0x001304e8                xdr_wrapstring
                0x0009826c                ifconf
                0x000f0264                iosDevAdd
                0x000903ec                _savefprx_16_l
                0x0012d430                xdr_rejected_reply
                0x00080434                __throw
                0x000dc36c                tcp_output
                0x0010a174                rindex
                0x0001069c                GET_THRM3
                0x00077508                ios::tie(ostream *)
                0x00026e44                frcFlashReadIdCommand
                0x000bb250                inet_makeaddr
                0x000f9544                taskCreateHookAdd
                0x00090804                __diab_trylock_mutex
                0x0008dc2c                excEnt
                0x000f5944                selWakeupListTerm
                0x00088fe4                cacheArchDisableFromMmu
                0x000beacc                muxTkReceive
                0x0009021c                _restf16
                0x000361b8                test_xor_comparison
                0x00090228                _restf19
                0x000eef3c                hashKeyCmp
                0x0002bccc                bibWriteIntf
                0x00068980                range_error::range_error(basic_string<char, string_char_traits<char>, __default_alloc_template<true, 0> > const &)
                0x0010da48                sllPrevious
                0x000811d0                __throw_bad_cast
                0x00077a1c                streambuf::linebuffered(int)
                0x000ef5f4                write
                0x00097a80                if_up
                0x0002cf38                SetupCPUEmFloatArrays
                0x000902ac                _restfprs_14_l
                0x000fa134                taskVarAdd
                0x00012b54                wrreg
                0x000d01d4                xdr_mountlist
                0x0014b8ac                _dbgTaskPCSet
                0x00128f28                cbioRdyChk
                0x000bb2b0                inet_netof
                0x00011354                frcGetVariant
                0x00089b2c                excExcHandle
                0x0007f71c                __empty
                0x0010c198                lstNStep
                0x00084c34                operator new [](unsigned int, nothrow_t const &)
                0x0008e174                _savefpr_28_l
                0x00090308                _restfprs_30_l
                0x00015710                gtPciGetMaxBusNo
                0x000373f0                memTest_Basic_Ever
                0x00109df8                diskInit
                0x000776c8                streammarker::set_offset(int)
                0x0001cec4                frcDmaIntEnable
                0x0009030c                _restfprs_31_l
                0x000e48c0                atof
                0x00075534                istream::operator>>(unsigned char *)
                0x0008dfe0                mmuPpcTlbInvalidateAll
                0x000819dc                exception::~exception(void)
                0x00090414                _savefprx_26_l
                0x00096368                __gtsf2
                0x000772c0                streambuf::sys_stat(void *)
                0x000932d0                __udiv_w_sdiv
                0x000d2c30                netTupleGet2
                0x0008e2b4                _savegpr_16_l
                0x000904c8                _savegprx_21_l
                0x00024988                gtUartBaudRateChange
                0x0009037c                _restfprx_17_l
                0x00097654                ifa_ifwithroute
                0x00059c1c                RBString_T::extractCString(char *, int)
                0x0012fc04                xdr_free
                0x000eeaa8                hashTblDestroy
                0x000ddc60                tcp_notify
                0x0007aae8                _IO_strtod
                0x00043b40                frcTestDMA
                0x001302a0                xdr_netobj
                0x000904e8                _savegprx_29_l
                0x00072c68                ostream::operator<<(char const *)
                0x000e9098                fstat
                0x000e1a00                fprintf
                0x00090364                _savefprs_31_l
                0x0014b758                _dbgArchInit
                0x00077db8                ios::init(streambuf *, ostream *)
                0x00045250                isPMC280Monarch
                0x0008e2fc                __diab_intrinsics_impfpInit
                0x000abee8                soconnect
                0x001348a8                wdbInfoGet
                0x00092be8                __lshrdi3
                0x001403d8                semTake
                0x00090ad0                endMultiLstFirst
                0x001486e8                msgQEvStart
                0x00076be0                streambuf::xsgetn(char *, int)
                0x000a69f0                rtrequest
                0x00018440                gtPci0ScanSelfBars
                0x0005926c                wvRBuffErrorHandler
                0x00096888                ifinit
                0x00034bf0                ErrorExit
                0x00090a18                endFlagsSet
                0x00077208                streambuf::sungetc(void)
                0x000f6d60                kill
                0x00026dc8                frcFlashLock
                0x000e68f8                ctime
                0x00095560                __ledf2
                0x000c8094                nfsFileRead
                0x00085954                bad_typeid::bad_typeid(void)
                0x0008da3c                cachePpcEnable
                0x0008e168                _savefpr_25_l
                0x000218fc                vxCunitIntCtrlInit
                0x000bdbf0                muxTaskDelaySet
                0x0012d858                svc_register
                0x000be610                muxTkBind
                0x0012fc84                xdr_long
                0x00116194                dosDirOldLibInit
                0x000e5e3c                strcat
                0x0001b9e4                frcGppCPU1IntDisable
                0x000f8b40                symFindByCName
                0x0001a318                gtMemoryMapBank1
                0x00090238                _restf23
                0x00090250                _restf29
                0x00011f08                sysMemTop
                0x0008e250                _restgpr_22_l
                0x0001eca0                etherInitTxDescRing
                0x00090328                _savefprs_16_l
                0x0010aae4                bootParamsPrompt
                0x000d5558                in_setpeeraddr
                0x000f41bc                pipeDevDelete
                0x00029664                isyear
                0x00025ed8                compare_error
                0x000cc3cc                bind
                0x0012e368                _svcauth_short
                0x00043e24                frcTestDualCPU
                0x00030690                DoBitops
                0x0006e45c                basic_string<char, string_char_traits<char>, __default_alloc_template<true, 0> >::rfind(char const *, unsigned int) const
                0x0003ebb0                Now
                0x000f1874                memPartRealloc
                0x00058e40                usrBreakpointSet
                0x0009051c                _savevr24
                0x0006e8f4                basic_string<char, string_char_traits<char>, __default_alloc_template<true, 0> >::iend(void) const
                0x0014cb0c                trcStack
                0x0012db7c                svcerr_systemerr
                0x000f6bf8                sigvec
                0x0002b358                frcBibWrite
                0x000771c0                streambuf::seekoff(long, ios::seek_dir, int)
                0x0010bd3c                dllDelete
                0x000baf7c                inet_addr
                0x000a5958                rtalloc1
                0x000274d8                frcEEPROMRead16
                0x0005af68                cplus_demangle_name_to_style
                0x0006ac9c                __malloc_alloc_template<0>::deallocate(void *, unsigned int)
                0x0010bf9c                lstCount
                0x00017c44                _frcPci0WriteConfigReg
                0x000ef7c4                readv
                0x000ad664                sorflush
                0x0006cc7c                basic_string<char, string_char_traits<char>, __default_alloc_template<true, 0> >::length(void) const
                0x0008e148                _savefpr_17_l
                0x000ea548                vprintf
                0x0013bb58                xdr_WDB_REPLY_WRAPPER
                0x00083654                operator delete(void *, nothrow_t const &)
                0x000cdb94                tftpCopy
                0x0008de48                mmuPpcTlbie
                0x0009039c                _restfprx_25_l
                0x00090a84                endMultiLstCnt
                0x0006b088                basic_string<char, string_char_traits<char>, __default_alloc_template<true, 0> >::replace(unsigned int, unsigned int, char const *, unsigned int)
                0x00055dec                frcTestUserFlash
                0x00026838                frcFlashBlockWrite
                0x00088bdc                bcopyLongs
                0x0014933c                wvEvent
                0x00011168                frcGetBank0MemSize
                0x00136954                wdbRegsLibInit
                0x00148c08                fileUploadPathCreate
                0x000f85b4                symRemove
                0x001075f0                spyClkStart
                0x000ae4e8                sb_lock
                0x0006ff78                cplusNewHandlerExists(void)
                0x0009687c                _restv31
                0x000baadc                ifNameToIfIndex
                0x000829ec                __deregister_frame_info
                0x0010c190                lstPrevious
                0x00077304                streambuf::sys_close(void)
                0x00107c04                dosFsModeChange
                0x0008e290                _restgpr_30_l
                0x0010d178                qPriListTerminate
                0x00074ad4                ostream::operator<<(ios &(*)(ios &))
                0x0008fe08                __mul64
                0x00018d7c                gtPci0MapMemoryBank2DAC
                0x00054708                frcTestDisable
                0x00019ce4                gtPci0SetRegionFeaturesDAC
                0x000f4dd4                reboot
                0x00015edc                frcPciConfigWriteVPD
                0x0001b10c                gtDmaSetMemorySpace
                0x000671c8                length_error::length_error(basic_string<char, string_char_traits<char>, __default_alloc_template<true, 0> > const &)
                0x000efad4                chdir
                0x000f6b84                sigwaitinfo
                0x00080844                terminate(void)
                0x000904c4                _savegprx_20_l
                0x000bf9b0                muxTkDevLoadUpdate
                0x000717d4                istream::operator>>(long &)
                0x0009de7c                in_ifinit
                0x000915fc                endEtherPacketAddrGet
                0x00085e90                __si_type_info::__si_type_info(char const *, __user_type_info const &)
                0x00095890                __pack_f
                0x0006b714                basic_string<char, string_char_traits<char>, __default_alloc_template<true, 0> >::replace(unsigned int, unsigned int, unsigned int, char)
                0x00076c00                streambuf::ignore(int)
                0x000105ac                sysSioRead
                0x000cf838                xdr_diropokres
                0x0014849c                workQPanic
                0x00103d28                timexInit
                0x0006fb20                bool operator>=<char, string_char_traits<char>, __default_alloc_template<true, 0> >(basic_string<char, string_char_traits<char>, __default_alloc_template<true, 0> > const &, char const *)
                0x0003ed84                lmbench_settime
                0x00132140                pmap_unset
                0x0006c7fc                string_char_traits<char>::set(char *, char const &, unsigned int)
                0x0008e2e0                _savegpr_27_l
                0x0007dde0                _IO_cleanup
                0x000d2e54                ifIndexTest
                0x0013d244                msgQLibInit
                0x00080150                __unwinding_cleanup
                0x000903f0                _savefprx_17_l
                0x000d5830                in_losing
                0x00059b4c                RBString_T::operator==(RBString_T &) const
                0x000c5ee8                nfsMountAll
                0x0007d958                _IO_default_seekpos
                0x001492fc                wvEventInst
                0x000cff38                xdr_readdirres
                0x000dfeac                modf
                0x0006e864                basic_string<char, string_char_traits<char>, __default_alloc_template<true, 0> >::end(void)
                0x000732e4                ostream::seekp(long)
                0x000431f4                frcTestMPP18ISR_hard
                0x00036ff4                parse_opts
                0x00024b94                bootFlashAutoSelect
                0x00088db8                cacheArchEnable
                0x00089ad8                excVecBaseSet
                0x000a07dc                ip_stripoptions
                0x000fcc2c                cret
                0x000664dc                domain_error type_info function
                0x000fa7a8                tyDevInit
                0x00013f50                pciConfigOutLong
                0x000ccbb8                setsockopt
                0x000ddf38                tcp_ctlinput
                0x000f79b0                sigPendKill
                0x0012fd5c                xdr_short
                0x00097274                ifa_ifwithdstaddr
                0x000d2144                netBufLibInit
                0x000e20e8                fseek
                0x0008567c                type_info::name(void) const
                0x000d22d4                netMblkFree
                0x000c84d4                nfsFsAttrGet
                0x00034a90                InitMemArray
                0x00089648                excRelocIntConnect
                0x00102948                moduleFindByGroup
                0x000718dc                istream::operator>>(long long &)
                0x00107c08                dosFsReadyChange
                0x000f5cc0                sigqueueInit
                0x00074ef4                istream::get(unsigned char &)
                0x001059e4                i
                0x000677f8                out_of_range::out_of_range(basic_string<char, string_char_traits<char>, __default_alloc_template<true, 0> > const &)
                0x0008e120                _restfpr_30_l
                0x00085618                type_info type_info function
                0x0001c4d4                vxCntmrIntConnect
                0x0006e9dc                basic_string<char, string_char_traits<char>, __default_alloc_template<true, 0> >::rend(void)
                0x000effb4                iosDrvInstall
                0x00096810                _savev30
                0x00074a90                ostream::operator<<(long double)
                0x0008640c                __throw_type_match_rtti
                0x00090764                __diab_atomic_enter
                0x000791dc                _IO_file_underflow
                0x000182d0                gtPci0GetMemory1Size
                0x00069b74                abs(float)
                0x0013bea0                xdr_ARRAY
                0x000a4ee0                rn_walktree
                0x0006e610                basic_string<char, string_char_traits<char>, __default_alloc_template<true, 0> >::find_last_of(char, unsigned int) const
                0x000d2dd0                ifIndexAlloc
                0x0012dd98                svc_getreqset
                0x000fea30                elfRelocRelaEntryRd
                0x000566d0                usrMem2MemDmaStart
                0x0008f4b8                __lsr64
                0x000fb078                tyITx
                0x0008de24                excEPSet
                0x00109efc                ioHelp
                0x00088b94                bcopyBytes
                0x00012528                gtRegWriteBlock
                0x000bd6a4                muxAddrResFuncGet
                0x000b9f5c                ifDstAddrGet
                0x0006f984                bool operator<=<char, string_char_traits<char>, __default_alloc_template<true, 0> >(basic_string<char, string_char_traits<char>, __default_alloc_template<true, 0> > const &, basic_string<char, string_char_traits<char>, __default_alloc_template<true, 0> > const &)
                0x00090324                _savefprs_15_l
                0x0013e570                msgQInfoGet
                0x0008a780                intExit
                0x0014c9f8                taskRegsInit
                0x000108f4                sysL2BackInit
                0x000afcf8                setstate
                0x00135124                wdbSystemSuspend
                0x000cbb14                mRouteDelete
                0x00018198                gtPci0GetIOspaceBase
                0x00080884                set_unexpected(void (*)(void))
                0x0001d9b0                ethPortStart
                0x0008baf4                vmpxx
                0x0001e7d0                ethPortReadSmiReg
                0x00078a10                filebuf::overflow(int)
                0x0008e150                _savefpr_19_l
                0x0009cc8c                in_netof
                0x000f3590                objShow
                0x000e045c                fmod
                0x0010d244                qPriListGet
                0x000e87ec                classShowInit
                0x000f1630                memPartOptionsSet
                0x00059028                wvOn
                0x0006aacc                __default_alloc_template<true, 0>::_Lock::_Lock(void)
                0x000cf7d0                xdr_diropargs
                0x0008d7a8                cos
                0x000f95f4                taskSwapHookAdd
                0x0010d4ac                rngCreate
                0x000f9068                symValueGet
                0x0008f3e4                __DIAB_wr_sw_ld
                0x00088bb4                bcopyWords
                0x000f09d8                iosClose
                0x0010c284                lstFree
                0x000f3e68                pathLastNamePtr
                0x0010bda4                dllAdd
                0x000557e8                frcDmaCompleteAppIntHandler1
                0x00090374                _restfprx_15_l
                0x00135f44                wdbCtxResume
                0x0008e20c                _savegpr_25
                0x000c6168                nfsUnmount
                0x00104118                timexPost
                0x000e0ea4                tanh
                0x0007585c                dec(ios &)
                0x0007e414                _IO_padn
                0x000792fc                _IO_file_overflow
                0x000e5cd4                memchr
                0x000641fc                decode_identifier_styled
                0x00097324                ifa_ifwithnet
                0x000ca324                remCurIdSet
                0x00034a10                FreeMemory
                0x0007e254                _IO_getline_info
                0x0001e734                ethernetSetConfigReg
                0x0009cb68                netTypeDelete
                0x000641bc                decode_identifier
                0x00076b5c                __overflow(streambuf *, int)
                0x00105c74                tr
                0x0010656c                ld
                0x00128b9c                cbioIoctl
                0x000ccfa8                sntpcInit
                0x0013bdec                xdr_UINT32
                0x00142640                taskIsSuspended
                0x00107c0c                dosFsVolOptionsGet
                0x0003d9c0                loads_i
                0x000f8324                symFree
                0x00030b6c                DoEmFloat
                0x00091f30                __ashrdi3
                0x000e3d84                __stdin
                0x000c5000                netStackSysPoolShow
                0x000f3648                objAllocExtra
                0x00086968                __is_pointer(void *)
                0x0008e144                _savefpr_16_l
                0x00097768                ifafree
                0x000f8308                symInit
                0x00108d7c                ll
                0x001096b8                xdelete
                0x000568e4                usrAltivecInit
                0x0010759c                spy
                0x0009034c                _savefprs_25_l
                0x000569d0                usrNetInit
                0x000182a8                gtPci0GetMemory1Base
                0x000903cc                _restfprx_30_l
                0x0007492c                ostream::write(unsigned char const *, int)
                0x0008e154                _savefpr_20_l
                0x000b90a4                hostGetByName
                0x0010bb08                bufPoolInit
                0x001483cc                workQDoWork
                0x000d0100                xdr_fhstatus
                0x0012d370                xdr_accepted_reply
                0x0003c2f8                fcp
                0x00034aa0                AddMemArray
                0x00075594                istream::operator>>(signed char &)
                0x000cc1b8                rpcErrnoGet
                0x000546dc                frcTestConnect
                0x00090494                _restgprx_30_l
                0x000e3ad4                stdioFpCreate
                0x0010d95c                sllInit
                0x00067d7c                runtime_error::~runtime_error(void)
                0x000f15dc                memInit
                0x000ba1cc                ifMetricGet
                0x00040094                bytes
                0x00069534                underflow_error::~underflow_error(void)
                0x0006e0ec                basic_string<char, string_char_traits<char>, __default_alloc_template<true, 0> >::replace(char *, char *, basic_string<char, string_char_traits<char>, __default_alloc_template<true, 0> > const &)
                0x0014db88                wdbDbgIabrSet
                0x0008b924                vxMsrGet
                0x000239a4                vxSdmaIntEnable
                0x0006b4e0                basic_string<char, string_char_traits<char>, __default_alloc_template<true, 0> >::replace(unsigned int, unsigned int, basic_string<char, string_char_traits<char>, __default_alloc_template<true, 0> > const &, unsigned int, unsigned int)
                0x000739c8                ostream::do_osfx(void)
                0x00104dec                unldTextSegmentCheck
                0x00148504                eventTaskShow
                0x000d0874                tcpstatShow
                0x0006e434                basic_string<char, string_char_traits<char>, __default_alloc_template<true, 0> >::rfind(basic_string<char, string_char_traits<char>, __default_alloc_template<true, 0> > const &, unsigned int) const
                0x00075ab0                istream::get(char *, int, char)
                0x00078ad8                filebuf::sys_read(char *, int)
                0x000bf018                muxTkPollSend
                0x000c73ec                nfsHelp
                0x0012dc34                svcerr_weakauth
                0x0008e034                mmuPpcExtendedBlockEnableMPC74x5
                0x00090b60                endDevName
                0x0008e1fc                _savegpr_21
                0x0012a778                xdr_authunix_parms
                0x00014134                pciConfigModifyLong
                0x0009032c                _savefprs_17_l
                0x000688d4                range_error::~range_error(void)
                0x0012ec24                svcfd_create
                0x00090370                _restfprx_14_l
                0x00103a90                shellLock
                0x0002c84c                frcCheckSum
                0x000e6e38                mktime
                0x0007786c                streambuf::setg(char *, char *, char *)
                0x0010efac                rBuffShow
                0x0006d09c                basic_string<char, string_char_traits<char>, __default_alloc_template<true, 0> >::operator=(basic_string<char, string_char_traits<char>, __default_alloc_template<true, 0> > const &)
                0x0001b940                frcGppCPU1IntEnable
                0x000e6c68                __julday
                0x000ea040                printExc
                0x00074ff4                istream::ipfx(int)
                0x000984c4                ifpromisc
                0x000d3d5c                igmp_slowtimo
                0x00017b38                userRsrvMemInit
                0x00027e94                frcEEPROMDummyWrite16
                0x0006de78                basic_string<char, string_char_traits<char>, __default_alloc_template<true, 0> >::begin(void)
                0x00010ec0                frcPrintPcbRev
                0x0014a6ac                tsfsUploadPathClose
                0x000fe064                dbgTaskStep
                0x000a9e3c                addDomain
                0x000fdfd0                dbgTaskCont
                0x000121f0                sysNvRamGet
                0x0007dc70                _IO_flush_all
                0x00090b1c                endMultiLstNext
                0x000e1300                ferror
                0x000e64a8                strstr
                0x0008e4e4                __DIAB_rd_sw_ld
                0x0005a310                cplusDemangle
                0x0008b820                mmuPpcBatInitMPC74x5
                0x00074144                _IO_istream_withassign::~_IO_istream_withassign(void)
                0x000904f0                _savegprx_31_l
                0x00101b30                moduleLibInit
                0x0006776c                out_of_range type_info function
                0x0006d014                basic_string<char, string_char_traits<char>, __default_alloc_template<true, 0> >::Rep::copy(unsigned int, char const *, unsigned int)
                0x0007785c                streambuf::setp(char *, char *)
                0x00044390                frcTestAllTests
                0x00090454                _restgprx_22_l
                0x00093288                __ucmpdi2
                0x0012e370                svc_rawInclude
                0x00128924                cbioLibInit
                0x000ddc5c                tcp_drain
                0x0003ece0                Delta
                0x000aab24                m_pullup
                0x0008d5f8                sin
                0x000b05dc                ipTkError
                0x0007dc34                _IO_adjust_column
                0x00076df4                streambuf::sseekpos(long, int)
                0x0011a644                dosFsVolIsFat12
                0x000e52a0                rand
                0x00103d2c                timexClear
                0x00059f4c                RBString_T::prepend(char const *, int)
                0x0010dabc                sllEach
                0x0013be74                xdr_TGT_ADDR_T
                0x000cb55c                routeEntryFill
                0x000ba070                ifFlagChange
                0x0008e40c                __DIAB_rd_pk_fl
                0x000ab454                solisten
                0x0014592c                tickSet
                0x0008531c                __user_type_info::dcast(type_info const &, int, void *, type_info const *, void *) const
                0x000d7d54                rip_ctloutput
                0x0014da64                windLoadContext
                0x00148f5c                wvObjInstModeSet
                0x00043f88                frcTestBIB
                0x00036c88                test_moving_inv32
                0x000c77d0                nfsFileRemove
                0x00109cdc                diskFormat
                0x0008bf84                atan2
                0x0008dc1c                cacheArchPipeFlush
                0x0006e1d0                basic_string<char, string_char_traits<char>, __default_alloc_template<true, 0> >::replace(char *, char *, unsigned int, char)
                0x00085700                bad_cast::bad_cast(void)
                0x000f5f1c                signal
                0x00023340                sdmaChanSend
                0x000362fc                test_div_comparison
                0x000de180                tcp_updatemtu
                0x000ef550                read
                0x00142604                taskIsReady
                0x000bd3a0                muxTxRestart
                0x00077430                ios::writable(void)
                0x00103a7c                shellOrigStdSet
                0x0006def8                basic_string<char, string_char_traits<char>, __default_alloc_template<true, 0> >::erase(char *)
                0x000c8c6c                nfsAuthUnixPrompt
                0x0003f780                context
                0x0008b948                vxSrr0Get
                0x00096568                __floatsisf
                0x000de0ec                tcp_quench
                0x00036e98                print_summary
                0x0008b958                vxDarSet
                0x000cf918                xdr_readlinkres
                0x000cffb0                xdr_statfsokres
                0x000760d8                istream::vscan(char const *, __va_list_tag *)
                0x000b41b0                ftpCommandEnhanced
                0x000efd90                ioTaskStdGet
                0x0010257c                moduleSegNext
                0x0008e1c8                _restgpr_28
                0x0014ada8                evtLogO
                0x00036f44                get_mem
                0x00072e74                ostream::operator<<(streambuf *)
                0x00148e50                wvEvtLogStop
                0x0006f61c                bool operator==<char, string_char_traits<char>, __default_alloc_template<true, 0> >(basic_string<char, string_char_traits<char>, __default_alloc_template<true, 0> > const &, char const *)
                0x00029390                isdate
                0x00041c30                frcTestChkECC
                0x000241cc                vxMpscUartDevInit
                0x0010ae34                bootNetmaskExtract
                0x000f58f4                selWakeupListInit
                0x0011e0e4                dosFsShow
                0x001090c8                mv
                0x0001b374                gtSramMalloc
                0x000d270c                netMblkToBufCopy
                0x0012ff24                xdr_u_char
                0x001352a8                wdbRpcReply
                0x00149c74                wvLogHeaderUpload
                0x0008bd44                vxPowerModeGet
                0x000cc8cc                sendmsg
                0x00107648                spyClkStop
                0x0006e904                basic_string<char, string_char_traits<char>, __default_alloc_template<true, 0> >::begin(void) const
                0x000cb274                rlogChildTask
                0x0010d3a8                qPriListKey
                0x000e5f74                strcoll
                0x0005a0fc                _cplusDemangle
                0x0012be30                clntudp_create
                0x0006eef4                basic_string<char, string_char_traits<char>, __default_alloc_template<true, 0> > operator+<char, string_char_traits<char>, __default_alloc_template<true, 0> >(char, basic_string<char, string_char_traits<char>, __default_alloc_template<true, 0> > const &)
                0x00045360                frcDispBoardInfo
                0x000dfbcc                isupper
                0x000e8afc                clockLibInit
                0x00090348                _savefprs_24_l
                0x000b4384                ftpXfer
                0x0009035c                _savefprs_29_l
                0x00146010                wdStart
                0x000e6304                strncmp
                0x00096844                _restv24
                0x000b9b78                ipHeaderCreate
                0x000f866c                symTblRemove
                0x00090268                _savef16
                0x00142f78                taskActivate
                0x00055a28                frcTestWatchDogAppStart
                0x0001b088                gtDmaEngineDisable
                0x0002c278                ctohex
                0x00077594                ios::unsetf(unsigned long)
                0x000772a0                streambuf::flush_all_linebuffered(void)
                0x0001c24c                gtCntmrSetMode
                0x00024c68                bootFlashGetProtect
                0x000faabc                tyAbortSet
                0x00147aa0                windReadyQRemove
                0x000f989c                taskSwapHookDelete
                0x000a3a2c                rn_addmask
                0x00019dc4                gtPci0DisableAccessRegion
                0x000166f4                gtIntConnect
                0x000708b0                skip_ws(streambuf *)
                0x00076ca0                streambuf::pbackfail(int)
                0x000593ec                usrRoot
                0x000fa4cc                ttyDevCreate
                0x000efcfc                ioGlobalStdSet
                0x000aa07c                net_sysctl
                0x000b932c                sethostname
                0x0001d618                frcWatchdogLoad
                0x000fa1c0                taskVarDelete
                0x00077764                streambuf::egptr(void) const
                0x00037060                memtest_extended
                0x0013b458                xdr_WDB_EVTPT_ADD_DESC
                0x00121804                print64
                0x000789f0                filebuf::doallocate(void)
                0x0008e2d8                _savegpr_25_l
                0x0009012c                __ugt64
                0x000c5cfc                nfsDrv
                0x00043a4c                frcTestDispReg
                0x000d30dc                igmp_input
                0x0008c6c0                pow
                0x000758a4                istream::getline(char *, int, char)
                0x001098f4                attrib
                0x0009048c                _restgprx_28_l
                0x0010e4fc                rBuffReadReserve
                0x0007ded4                _IO_marker_delta
                0x000bc71c                muxIoctl
                0x000e6350                strncpy
                0x000ef308                unlink
                0x000e0628                sinh
                0x0008aa70                intConnect
                0x0008f00c                __ftoull
                0x00069554                underflow_error type_info function
                0x00096268                __eqsf2
                0x0014d6f0                wdbDbgRegsSet
                0x000e260c                __sfvwrite
                0x001066f4                devs
                0x000de320                tcp_fasttimo
                0x0008e3d4                __DIAB_rd_pk_db
                0x0008e1a4                _restgpr_19
                0x000b5308                ftpDataConnInitPassiveMode
                0x000cc730                sendto
                0x000dbc54                tcp_dooptions
                0x0008d230                log10
                0x000bbc4c                muxDevStart
                0x000fad50                tyWrite
                0x000b8fbc                hostTblSearchByName
                0x00011bf4                sysBspRev
                0x00093268                __negdi2
                0x000e84f8                classInit
                0x0012fcf0                xdr_u_long
                0x0008e1a8                _restgpr_20
                0x000cf990                xdr_readargs
                0x000b4cd0                ftpReplyGetEnhanced
                0x000f1228                logTask
                0x00106a08                substrcmp
                0x00010f94                frcPrintBomRev
                0x0010d56c                rngFlush
                0x000add80                soisconnected
                0x00090810                __diab_alloc_semaphore
                0x000f2270                memPartAddToPool
                0x00088ca0                cacheArchLibInit
                0x00082e00                set_new_handler(void (*)(void))
                0x000fcb30                c
                0x000443c0                frcTestSummary
                0x0002866c                EEPROMDetect
                0x000e881c                classShow
                0x00011c00                flashBootSectorInit
                0x00144d3c                taskShowInit
                0x000902d0                _restfprs_23_l
                0x0012d4c4                xdr_replymsg
                0x000e857c                classDestroy
                0x0013f888                semBGiveDefer
                0x00139198                wdbVioChannelRegister
                0x00037bd0                tbReset_lmbench
                0x00080900                __start_cp_handler
                0x00102c50                moduleInfoGet
                0x00078a90                filebuf::close(void)
                0x00025bac                __WRITE_FLASH16
                0x000f1ed4                realloc
                0x0001a7b4                gtMemoryGetInternalRegistersSpace
                0x000599dc                RBString_T::RBString_T(RBString_T &)
                0x00090090                __lt64
                0x00090958                endTxSemTake
                0x00010aa0                sysClkEnable
                0x000779e8                streambuf::linebuffered(void)
                0x00144cdc                taskStackAllot
                0x0009099c                endTxSemGive
                0x000195ac                gtPci0MapBootDeviceMemorySpace
                0x00074848                ostream::put(char)
                0x000c3c04                netLibInit
                0x000cfcf4                xdr_symlinkargs
                0x00134e60                wdbSuspendSystem
                0x000904bc                _savegprx_18_l
                0x000a22d4                ip_optcopy
                0x000705c0                istream::istream(int, streambuf *, ostream *)
                0x000787c8                filebuf::open(char const *, int, int)
                0x000ec588                scanField
                0x00105274                periodRun
                0x00087fcc                unsigned char type_info function
                0x0001e50c                ethReadMibCounter
                0x000f7ff8                symTblInit
                0x000af7e0                panic
                0x0001936c                gtPci0MapDevice2MemorySpaceDAC
                0x00090404                _savefprx_22_l
                0x000450b4                isPMC280UsrFlashPresent
                0x0008fdb4                __urem64
                0x0009511c                __fpcmp_parts_d
                0x00090fb4                endObjFlagSet
                0x00090ff8                end8023AddressForm
                0x00068f24                overflow_error type_info function
                0x0013b250                xdr_WDB_CALL_RETURN_INFO
                0x00090578                _restvr23
                0x00145d38                wdDestroy
                0x0013b578                xdr_WDB_MEM_REGION
                0x0013fee4                semCTake
                0x000dd160                tcp_init
                0x00069b64                abs(long)
                0x000799fc                _IO_file_xsputn
                0x000777f8                streambuf::xsetflags(int)
                0x0014c864                _sigCtxLoad
                0x000bae88                igmpLibInit
                0x00148d60                wvLibInit2
                0x000b9ed8                ifBroadcastSet
                0x0001a91c                gtMemorySetPciRemapValue
                0x0008b990                vxPowerDown
                0x0009e3a8                in_addmulti
                0x00121e04                iosDrvShow
                0x0001b4ec                frcGppIntConnect
                0x0013ab8c                wdbUserEvtLibInit
                0x000f90c8                symShowInit
                0x0008a430                fppArchTaskCreateInit
                0x0010bee4                lstInit
                0x000f8388                symSAdd
                0x00128b1c                cbioBlkCopy
                0x000af864                _netMalloc
                0x000772fc                streambuf::sys_seek(long, ios::seek_dir)
                0x00092620                __fixsfdi
                0x000dd358                tcp_template
                0x000918f8                loattach
                0x0009b134                _db_show_arptab
                0x0010c384                qFifoPut
                0x0006d928                basic_string<char, string_char_traits<char>, __default_alloc_template<true, 0> >::append(char const *)
                0x000267c4                frcFlashRead
                0x000903e8                _savefprx_15_l
                0x000889e0                bcopy
                0x0006e6ec                basic_string<char, string_char_traits<char>, __default_alloc_template<true, 0> >::find_last_not_of(char const *, unsigned int) const
                0x00106fc8                changeReg
                0x0010c890                qFirst
                0x00070090                _IO_getc
                0x00034904                AllocateMemory
                0x000e6510                strtok
                0x0008ef18                _f_ftoull
                0x000903c8                _restfprx_29_l
                0x00095780                __negdf2
                0x0010d9c4                sllPutAtTail
                0x0001aa18                gtMemoryGetDeviceParam
                0x000aa7c4                mHdrClGet
                0x0010bfa4                lstDelete
                0x00017ba8                userRsrvMemMalloc
                0x000d8cd4                tcp_reass
                0x00075418                istream::gcount(void)
                0x000b9c30                ipHeaderVerify
                0x0007f580                _IO_ungetc
                0x000bfb40                muxTkUnbindUpdate
                0x000f5e14                sigfillset
                0x00140a80                semFlushDefer
                0x0007e144                _IO_default_stat
                0x0001c3f8                vxCntmrIntCtrlInit
                0x0003fcbc                ptime
                0x0006d8bc                basic_string<char, string_char_traits<char>, __default_alloc_template<true, 0> >::append(basic_string<char, string_char_traits<char>, __default_alloc_template<true, 0> > const &, unsigned int, unsigned int)
                0x0008b9ec                vxFpscrSet
                0x000e5d08                memcmp
                0x00028194                isIntFlagSet
                0x00090408                _savefprx_23_l
                0x000cc46c                listen
                0x0009053c                _savevr28
                0x0012dc58                svcerr_noprog
                0x0008eb10                sfpDoubleNormalize2
                0x0005a9cc                cplus_demangle_opname
                0x0014436c                taskLock
                0x0008f608                __udiv32
                0x000809a4                __cplus_type_matcher
                0x00055864                frcDmaTestStart0
                0x000ae784                sbreserve
                0x00121a38                print64Fine
                0x001393dc                udpRcv
                0x0008f514                __diab_intrinsics_tornInit
                0x0012f260                svcudp_bufcreate
                0x001406c0                semTerminate
                0x0008e244                _restgpr_19_l
                0x0013005c                xdr_opaque
                0x00090850                endRcvRtnCall
                0x000d4b38                in_pcbladdr
                0x00135420                wdbRpcResendReply
                0x000b8df8                hostDelete
                0x000e1210                fdopen
                0x00077b88                streambuf::sbumpc(void)
                0x000f1538                memLibInit
                0x0008e2f0                _savegpr_31_l
                0x00026078                print_status
                0x00069b84                abs(long double)
                0x0005a2a0                xrealloc
                0x0006f684                bool operator!=<char, string_char_traits<char>, __default_alloc_template<true, 0> >(basic_string<char, string_char_traits<char>, __default_alloc_template<true, 0> > const &, basic_string<char, string_char_traits<char>, __default_alloc_template<true, 0> > const &)
                0x000ae540                sbwakeup
                0x0008d900                altivecRestore
                0x00032748                DoHuffman
                0x000ebfec                sscanf
                0x00076b3c                streambuf::free_backup_area(void)
                0x00025ba0                __READ_FLASH32
                0x00012124                sysDelay
                0x00113034                dosChkDsk
                0x000f0e38                logInit
                0x00010598                sysGetCpuRev
                0x00036e00                print_test_name
                0x000cfecc                xdr_dirlist
                0x000e9a28                envShow
                0x0008ba68                vxDecSet
                0x00070c70                istream::read(char *, int)
                0x000776d0                streammarker::saving(void)
                0x000dbfcc                tcp_xmit_timer
                0x000dfb2c                isalpha
                0x00096864                _restv28
                0x00012568                memoryRead
                0x000903f8                _savefprx_19_l
                0x00107bd8                dosFsConfigGet
                0x00094ecc                __divdf3
                0x00141374                semMTake
                0x000fd9cc                tt
                0x000966d8                __negsf2
                0x0007dec4                _IO_marker_difference
                0x000e62ac                strncat
                0x000bf8d4                muxTkBibInit
                0x00028988                setI2cReady
                0x0014db80                wdbDbgIabrGet
                0x00107764                ramDevCreate
                0x0007498c                ostream::operator<<(unsigned char)
                0x0008ac4c                intLockLevelGet
                0x00090468                _restgprx_27_l
                0x00022490                mpscChanStopTx
                0x0013a6e8                wdbEvtptLibInit
                0x0013f360                semBInit
                0x000c48e8                inetstatShow
                0x0008d7bc                altivecSave
                0x000c5298                routeShow
                0x00077b3c                streambuf::sgetn(char *, int)
                0x00087dc4                unsigned long long type_info function
                0x0002b774                frcBibDrvShow
                0x0001a778                gtMemoryMapInternalRegistersSpace
                0x000257cc                frcBootFlashFile
                0x000ae838                sbappend
                0x00148308                workQAdd2
                0x0008e824                __lltod
                0x00107f68                copyStreams
                0x000f46f8                ptyDrv
                0x000ce654                tftpQuit
                0x000f5f9c                sigaction
                0x0010cac0                qPriBMapListDelete
                0x0001f284                ethPortSetTxCoal
                0x0002944c                ishour
                0x0006c6fc                string_char_traits<char>::eq(char const &, char const &)
                0x00119bb0                dosFsChkDsk
                0x0009c4e8                bcopy_to_mbufs
                0x00117ac8                fat16ClustValueSet
                0x00024b08                sysRamDrvConfig
                0x00090254                _restf30
                0x0012d548                xdr_callhdr
                0x0009bbec                ether_ifattach
                0x00094aac                __muldf3
                0x00101c0c                moduleCreate
                0x001025e4                moduleSegEach
                0x000af5dc                splnet2
                0x000e83e0                cacheDrvPhysToVirt
                0x00013720                pciConfigInWord
                0x000f967c                taskSwapHookAttach
                0x00036de0                memboundary_check
                0x00145560                taskStatusString
                0x00058f20                windviewConfig
                0x0008f340                __DIAB_wr_pk_ld
                0x00090554                _savevr31
                0x000e38fc                __sread
                0x0008e160                _savefpr_23_l
                0x00071648                istream::operator>>(unsigned short &)
                0x000d2d6c                ifIndexLibShutdown
                0x00010654                sysGetSDR1
                0x000e1c60                fread
                0x0006cca0                basic_string<char, string_char_traits<char>, __default_alloc_template<true, 0> >::max_size(void) const
                0x00084edc                type_info::~type_info(void)
                0x000bcc88                muxDevUnload
                0x0008e1f8                _savegpr_20
                0x0009edac                ipintr
                0x000cf6f0                xdr_attrstat
                0x000ee590                fppInit
                0x00021f54                mpscChanStart
                0x0007d0f8                _IO_free_backup_area
                0x0010bdcc                dllRemove
                0x00077f90                global destructors keyed to streambuf::_un_link(void)
                0x00143b50                taskResume
                0x0007526c                istream::isfx(void)
                0x0009eb20                ip_init
                0x000f6c7c                sigreturn
                0x00146940                windResume
                0x00056830                usrKernelInit
                0x000bb354                inet_network
                0x001430a4                taskDestroy
                0x00076bc0                streambuf::xsputn(char const *, int)
                0x0001b7f8                frcGppIntEnable
                0x00144bf8                taskIdVerify
                0x000af574                splnet
                0x00144bec                taskIdSelf
                0x000bb9f4                muxDevLoad
                0x000773dc                streambuf::seekmark(streammarker &, int)
                0x00078c9c                _IO_file_init
                0x000971a8                ifa_ifwithaddr
                0x001349e0                wdbExternInit
                0x0008851c                altivecArchInit
                0x000110a8                frcPrintUserFlashSize
                0x00013d10                pciConfigOutWord
                0x000cf438                xdr_fattr
                0x0008e0e4                _restfpr_22_l
                0x00148d0c                fileUploadPathWrite
                0x0002fcf0                DoStringSort
                0x000777bc                streambuf::blen(void) const
                0x000be544                muxTkCookieGet
                0x0006aa5c                __default_alloc_template<true, 0>::_Lock::~_Lock(void)
                0x0003bca0                fwr
                0x0006f820                bool operator<<char, string_char_traits<char>, __default_alloc_template<true, 0> >(basic_string<char, string_char_traits<char>, __default_alloc_template<true, 0> > const &, char const *)
                0x00090290                _savef26
                0x0009029c                _savef29
                0x00043958                lat_h
                0x00018ef8                gtPci0MapMemoryBank3DAC
                0x0007d334                __underflow
                0x0008db6c                cacheArchInvalidate
                0x00090284                _savef23
                0x000124e4                sysPhysToVirt
                0x00073f7c                istream::skip(int)
                0x0014e590                qJobEach
                0x000789d0                filebuf::setbuf(char *, int)
                0x00077ce0                filebuf::fd(void) const
                0x000bf730                muxTkBibShow
                0x000363f8                test_and_comparison
                0x000366e4                test_blockseq_comparison
                0x000bb584                inet_aton
                0x0003c714                latMemRead
                0x000903f4                _savefprx_18_l
                0x000d250c                netMblkClGet
                0x000cf3d8                xdr_nfstime
                0x00010534                sysMemProbeSup
                0x0008b868                mmuPpcBatInitMPC7x5
                0x00054f84                frcDmaTestTaskEntry0
                0x0008ba34                vxTimeBaseSet
                0x000cf8a0                xdr_diropres
                0x0008b9dc                vxHid0Get
                0x0001d000                frcDmaIntDisable
                0x00077578                ios::setf(unsigned long, unsigned long)
                0x0010bee0                lstLibInit
                0x0014026c                semGive
                0x0011dd2c                dosFsLastAccessDateEnable
                0x000275b0                frcI2cReset
                0x00034de4                TicksToFracSecs
                0x0007799c                streambuf::pubseekoff(long, ios::seek_dir, int)
                0x000efaac                ioDefPathGet
                0x00077790                streambuf::eback(void) const
                0x00097148                ifIndexToIfp
                0x0014c8c8                _sigCtxStackEnd
                0x000cd604                tcpLibInit
                0x000695e0                underflow_error::underflow_error(basic_string<char, string_char_traits<char>, __default_alloc_template<true, 0> > const &)
                0x000961f8                __cmpsf2
                0x0010a138                index
                0x0006d9f8                basic_string<char, string_char_traits<char>, __default_alloc_template<true, 0> >::operator=(char const *)
                0x00090350                _savefprs_26_l
                0x0014db98                wdbDbgDabrSet
                0x000b625c                ftpdInit
                0x0013ad88                wdbAltivecSave
                0x00034c40                gettimeofday
                0x000858c8                bad_cast::~bad_cast(void)
                0x000d54d8                in_setsockaddr
                0x000b23d4                bsdListen
                0x00090214                _restf14
                0x0001af80                gtDmaStart
                0x0009054c                _savevr30
                0x0008b940                vxDsisrGet
                0x001456c8                taskOptionsString
                0x0008b8b0                mmuPpcBatInit750fx
                0x000a005c                ip_slowtimo
                0x00111924                dcacheShow
                0x000e1950                fopen
                0x000902dc                _restfprs_26_l
                0x0008e1cc                _restgpr_29
                0x00144324                taskPriorityGet
                0x00078a50                filebuf::sync(void)
                0x000cf37c                xdr_ftype
                0x0013c09c                xdr_CHECKSUM
                0x000e7ee4                cacheEnable
                0x0008b968                vxSrr0Set
                0x000e68bc                asctime_r
                0x000e9e7c                fioFltInstall
                0x0008e1f0                _savegpr_18
                0x00129288                cbioWrapBlkDev
                0x0006aa04                __default_alloc_template<true, 0>::_S_round_up(unsigned int)
                0x00090380                _restfprx_18_l
                0x000ae8a8                sbappendrecord
                0x000e6d18                localtime
                0x000902d8                _restfprs_25_l
                0x000b2dd8                bsdSendmsg
                0x0007d5e0                _IO_default_uflow
                0x00124a14                lexActions
                0x000e5df0                memset
                0x00090388                _restfprx_20_l
                0x00074a50                ostream::operator<<(bool)
                0x00107e94                pwd
                0x00138284                wdbBpInstall
                0x0008536c                __si_type_info::dcast(type_info const &, int, void *, type_info const *, void *) const
                0x00091eb4                __gcc_bcmp
                0x0008e0f4                _restfpr_26_l
                0x0010d864                rngFreeBytes
                0x000f95c8                taskSwitchHookDelete
                0x00019ac4                gtPci0MapCPUspace
                0x00057ca0                wdbConfig
                0x000ac17c                sodisconnect
                0x000c5c40                mRouteShow
                0x0010c83c                qTerminate
                0x000cac8c                rlogInTask
                0x00090258                _restf31
                0x000f0cb8                iosIoctl
                0x000f8d08                symFindByValueAndType
                0x000eecd4                hashTblRemove
                0x0002523c                frcBootFlashVerify
                0x00080984                __eh_free
                0x0003bb84                cpy
                0x0009c804                do_protocol_with_type
                0x000105c8                sysSioWrite
                0x00023a4c                vxSdmaIntDisable
                0x0006e57c                basic_string<char, string_char_traits<char>, __default_alloc_template<true, 0> >::find_last_of(basic_string<char, string_char_traits<char>, __default_alloc_template<true, 0> > const &, unsigned int) const
                0x00080ad4                __cp_pop_exception
                0x000e9d50                excTask
                0x000b2660                bsdConnect
                0x0014b86c                _dbgFuncCallCheck
                0x00077970                streambuf::have_backup(void)
                0x00036e5c                memtest_usage
                0x00067f58                runtime_error::runtime_error(basic_string<char, string_char_traits<char>, __default_alloc_template<true, 0> > const &)
                0x00012d44                sysBusToLocalAdrs
                0x000779f4                streambuf::unbuffered(int)
                0x00043e54                frcTestI2C_EEPROM
                0x001293ec                cbioDevCreate
                0x000aa9b0                m_adj
                0x000e2528                ftell
                0x00070ae0                istream::ignore(int, int)
                0x000879b4                double type_info function
                0x000c5168                routestatShow
                0x0010cc64                qPriBMapPut
                0x000f9cf8                taskSwitchHookShow
                0x0002e114                abs_randwc
                0x000e4378                __swbuf
                0x000e52c4                srand
                0x00148f38                wvEvtClassClear
                0x00107b34                dosFsDevInitOptionsSet
                0x000e65dc                strxfrm
                0x000904d0                _savegprx_23_l
                0x000904ec                _savegprx_30_l
                0x00128a6c                cbioBytesRW
                0x0001e76c                ethernetResetConfigReg
                0x0007fd88                __get_eh_table_language
                0x001478b0                windPendQGet
                0x00075478                istream::unget(void)
                0x00021974                vxCunitIntConnect
                0x00096468                __ltsf2
                0x000a7448                rt_setgate
                0x000bd1ac                muxPacketDataGet
                0x0006d8f4                basic_string<char, string_char_traits<char>, __default_alloc_template<true, 0> >::append(char const *, unsigned int)
                0x0009c6e8                build_cluster
                0x0006e33c                basic_string<char, string_char_traits<char>, __default_alloc_template<true, 0> >::resize(unsigned int)
                0x00121e00                iosShowInit
                0x00084f10                type_info::operator==(type_info const &) const
                0x000fc698                bh
                0x0008b8f4                vxTas
                0x0012a988                clnt_rawInclude
                0x000efd3c                ioTaskStdSet
                0x0007f578                ios::sync_with_stdio(int)
                0x000b8c30                hostAdd
                0x00071ce0                istream::operator>>(float &)
                0x00090340                _savefprs_22_l
                0x0002e14c                randnum
                0x0008eda4                __ulltod
                0x000bc5e0                muxPollSend
                0x0010c2f8                qFifoCreate
                0x000b5d94                ftpTransientFatalInstall
                0x00138f74                wdbE
                0x00140dc0                semQFlushDefer
                0x000e108c                clearerr
                0x0001a548                gtMemoryMapDevice1Space
                0x000f4020                pipeDrv
                0x0008e47c                __DIAB_rd_sw_db
                0x0008e0dc                _restfpr_20_l
                0x000cf690                xdr_filename
                0x00149770                wvUploadStart
                0x000caf70                rlogin
                0x0003ec24                delta
                0x0008e28c                _restgpr_29_l
                0x000af6ac                splx
                0x000aa98c                m_cat
                0x0008e0c4                _restfpr_14_l
                0x000e3a1c                __sclose
                0x000192b4                gtPci0MapDevice2MemorySpace
                0x000a775c                rtinit
                0x000d23e8                netMblkClChainFree
                0x000cb658                mRouteAdd
                0x000afb20                initstate
                0x000e7fe4                cacheFlush
                0x00140b78                semIntRestrict
                0x000e10f0                fclose
                0x000cd840                tftpXfer
                0x000cbf10                rpcInit
                0x00019fe8                gtMemoryGetBankBaseAddress
                0x00090440                _restgprx_17_l
                0x000c8af0                nfsClientClose
                0x000e2b7c                getchar
                0x00095818                __truncdfsf2
                0x00042fe0                frcTestEthernet
                0x0008e0b4                __common_intrinsicsInit
                0x00085664                type_info::type_info(char const *)
                0x000b3fc0                etherMultiDel
                0x001303a0                xdr_string
                0x0008e234                _restgpr_15_l
                0x00123264                ledControl
                0x0008e13c                _savefpr_14_l
                0x000bb530                inet_ntoa
                0x001194c8                dosFsVolFormat
                0x000efa20                ioDefPathSet
                0x000cfda8                xdr_readdirargs
                0x00144434                taskUnlock
                0x00121a78                print64Row
                0x000161d0                gtInit
                0x000b079c                ipAttach
                0x000e0740                scalb
                0x000af6e4                ksleep
                0x000e7d04                time
                0x000c7328                nfsExportRead
                0x000e8f50                opendir
                0x000166c8                gtIntCtrlInit
                0x000106c8                __WRITE_FLASH64
                0x00078b78                filebuf::xsputn(char const *, int)
                0x0012d5f4                accepted
                0x00029784                rtccall
                0x0007d3fc                __uflow
                0x00108dac                lsr
                0x000967e0                _savev24
                0x000d5424                in_pcbdetach
                0x000194e8                gtPci0MapDevice3MemorySpaceDAC
                0x00016614                gtInitWindows
                0x000cb3f8                routeDelete
                0x000fc8e4                bd
                0x00107f48                rm
                0x0013b748                xdr_WDB_REG_WRITE_DESC
                0x000dfb68                isgraph
                0x000a0870                ip_forward
                0x00077e6c                ios::~ios(void)
                0x000ce6ac                tftpSend
                0x00018b48                gtPci0MapMemoryBank1
                0x00054d10                frcIdmaTestInit1
                0x000578bc                usrNetIfConfig
                0x0006dc70                basic_string<char, string_char_traits<char>, __default_alloc_template<true, 0> >::unique(void)
                0x000f67e8                sigtimedwait
                0x0004203c                frcTestMemPerf
                0x0007255c                ostream::operator<<(int)
                0x0006dc5c                basic_string<char, string_char_traits<char>, __default_alloc_template<true, 0> >::Rep::operator[](unsigned int)
                0x000dd14c                tcpRandHookDelete
                0x00074a70                ostream::operator<<(float)
                0x00078af8                filebuf::sys_seek(long, ios::seek_dir)
                0x000a7168                routeSwap
                0x00072644                ostream::operator<<(unsigned int)
                0x0005a098                cplusCallDtors
                0x000e1574                fgetpos
                0x0006e3f8                basic_string<char, string_char_traits<char>, __default_alloc_template<true, 0> >::_find(char const *, char, unsigned int, unsigned int)
                0x0014b564                cplusUnloadFixup
                0x0001d710                frcWatchdogDisable
                0x0005576c                frcDmaCompleteAppIntHandler0
                0x000e8418                classLibInit
                0x000dfb18                isalnum
                0x00070e98                istream::seekg(long, ios::seek_dir)
                0x00034e1c                sysUserLEDSet
                0x0008e1ec                _savegpr_17
                0x0007444c                ostream type_info function
                0x000e4068                tmpnam
                0x00089a48                excVecGet
                0x00022e2c                sdmaChanInit
                0x000dfb90                isprint
                0x0008df18                mmuPpcSrGet
                0x000e66f0                __strxfrm
                0x00103fe4                timexN
                0x000567a0                usrReadGPR
                0x0006d37c                basic_string<char, string_char_traits<char>, __default_alloc_template<true, 0> >::Rep::move(unsigned int, char const *, unsigned int)
                0x000904e0                _savegprx_27_l
                0x0008ccd8                exp
                0x00068430                runtime_error::runtime_error(void)
                0x0009027c                _savef21
                0x0014e23c                qJobGet
                0x00077658                ios::exceptions(void) const
                0x0008dba4                cacheArchFlush
                0x00092894                __fixunssfdi
                0x000894cc                vecOffRelocMatchRev
                0x0012fc64                xdr_u_int
                0x00075f38                istream::scan(char const *,...)
                0x00131240                xdrrec_skiprecord
                0x000e2fbc                putc
                0x00074a30                ostream::operator<<(unsigned short)
                0x00103e68                timex
                0x00104a10                unld
                0x00104f90                help
                0x000c39c4                netDrvFileDoesNotExist
                0x000aa710                mBufClGet
                0x000bd01c                muxAddressForm
                0x00090378                _restfprx_16_l
                0x001061d0                d
                0x00135480                wdbRpcNotifyConnect
                0x00010ba8                sysTimestampDisable
                0x000aecc8                sbappendcontrol
                0x001035c4                execute
                0x0012c7fc                xdr_pmaplist
                0x00011eb4                sysInWord
                0x00077ac8                streambuf::in_avail(void)
                0x000aa88c                m_getclr
                0x000bc40c                muxReceive
                0x0013f138                semBLibInit
                0x000c6218                nfsDevListGet
                0x0002e1d0                dblprint
                0x00090260                _savef14
                0x0007fb8c                __sjpopnthrow
                0x00095d74                __mulsf3
                0x000f8b60                symFindByNameAndType
                0x000106f0                frccachePpcEnable
                0x00075d94                istream::gets(char **, char)
                0x000e4a30                div_r
                0x00066aec                invalid_argument::~invalid_argument(void)
                0x000e0a18                finite
                0x0007e230                _IO_getline
                0x0010ca20                qInfo
                0x0010f42c                dcacheDevCreate
                0x0007e15c                _IO_istream_withassign::operator=(istream &)
                0x00074ed4                istream::get(unsigned char *, int, char)
                0x0006fd98                istream & getline<char, string_char_traits<char>, __default_alloc_template<true, 0> >(istream &, basic_string<char, string_char_traits<char>, __default_alloc_template<true, 0> > &, char)
                0x000ca238                rresvport
                0x0011151c                dcacheDevMemResize
                0x0008bafc                vxGhsFlagSet
                0x00135d58                wdbCtxCreate
                0x0006d8a8                basic_string<char, string_char_traits<char>, __default_alloc_template<true, 0> >::swap(basic_string<char, string_char_traits<char>, __default_alloc_template<true, 0> > &)
                0x0013adb0                wdbAltivecRestore
                0x000e5eac                strcmp
                0x00070a5c                istream::peek(void)
                0x0002315c                sdmaChanStopTx
                0x00024094                serialChanSetBaudRate
                0x0006c234                basic_string<char, string_char_traits<char>, __default_alloc_template<true, 0> >::find_first_of(char const *, unsigned int, unsigned int) const
                0x0014dbf0                wdbDbgHwBpStub
                0x000d078c                tcpShowInit
                0x000ccec4                shutdown
                0x0014270c                taskLibInit
                0x000b9f30                ifDstAddrSet
                0x0010eab8                rBuffSetFd
                0x0010dffc                rBuffWrite
                0x0001b23c                gtDmaSetMemorySpaceAttr
                0x00077660                ios::exceptions(int)
                0x00090458                _restgprx_23_l
                0x0006e38c                basic_string<char, string_char_traits<char>, __default_alloc_template<true, 0> >::find(char const *, unsigned int) const
                0x0012e708                svc_simpleInclude
                0x0012aee0                callrpc
                0x0012d6c4                _seterr_reply
                0x00028c30                settime
                0x000ee934                hashTblCreate
                0x000a53e8                rtable_init
                0x000c73a8                nfsExportFree
                0x0012c4dc                pmap_getmaps
                0x0014d590                wdbDbgHwBpFind
                0x000be330                muxIterateByName
                0x00056818                sysTimeBaseLPut
                0x0008e004                mmuPpcExtraBatEnableMPC7x5
                0x000e0cf0                tan
                0x00086198                __class_type_info::__class_type_info(char const *, __class_type_info::base_info const *, unsigned int)
                0x0008e178                _savefpr_29_l
                0x000904cc                _savegprx_22_l
                0x000ae360                sbselqueue
                0x0001a6ec                gtMemoryMapDeviceBootSpace
                0x000f37dc                objCoreTerminate
                0x0008b988                vxEieio
                0x000e4acc                ldiv_r
                0x000172bc                sysMachChkExcpHand
                0x000749d0                ostream::operator<<(unsigned char const *)
                0x0014a6e8                tsfsUploadPathWrite
                0x0008bcf8                vxPowerModeSet
                0x0013bcec                xdr_WDB_OPQ_DATA_T
                0x00128fe4                cbioShow
                0x0008df3c                mmuPpcExtraBatInit
                0x0010d8a8                rngPutAhead
                0x000bf1dc                muxTkPollReceive2
                0x0008e0d0                _restfpr_17_l
                0x0008498c                __builtin_vec_new
                0x000a4d30                rn_walksubtree
                0x0008de60                mmuPpcBatInit
                0x00109408                xcopy
                0x0006e91c                basic_string<char, string_char_traits<char>, __default_alloc_template<true, 0> >::rbegin(void)
                0x0006c778                string_char_traits<char>::compare(char const *, char const *, unsigned int)
                0x00090490                _restgprx_29_l
                0x00012598                showMap
                0x00012d30                sysGetBusSpd
                0x000974c8                ifa_ifwithaf
                0x00105210                bootChange
                0x000449a4                frcTestDispFreq
                0x000b2434                bsdAccept
                0x000d89d8                soo_select
                0x000f6d00                sigblock
                0x000e08d4                copysign
                0x000f6f58                sigqueue
                0x000efaf4                getcwd
                0x0001f000                ethTxReturnDesc
                0x00015644                sysPciConfigInsertLong
                0x00142420                taskRegsGet
                0x000877ac                wchar_t type_info function
                0x000d03ec                igmpShowInit
                0x0008e238                _restgpr_16_l
                0x0013f1f4                semBCreate
                0x00092668                __fixunsdfdi
                0x00095360                __nedf2
                0x000d00d0                xdr_fhandle
                0x000a9f50                pffindtype
                0x0013a4f0                wdbDbgBpRemoveAll
                0x0013b06c                xdr_WDB_CTX_STEP_DESC
                0x000967e8                _savev25
                0x00143020                taskDelete
                0x0008e204                _savegpr_23
                0x0008e224                _savegpr_31
                0x00011e90                sysOutLong
                0x000fb95c                vmBaseLibInit
                0x0001ac64                gtDmaTransfer
                0x000f1140                logFdDelete
                0x0001463c                pciAutoConfigNonMonarch
                0x0007d4dc                _IO_setb
                0x00082ac0                __deregister_frame
                0x00089538                excRelocConnect
                0x00086bec                __rtti_func
                0x0008e518                _d_dtoll
                0x000888fc                altivecShowInit
                0x00017e40                gtPci0OverBridgeWriteConfigReg
                0x00078e5c                _IO_file_fopen
                0x0008e258                _restgpr_24_l
                0x000f9570                taskCreateHookDelete
                0x00131898                authnone_create
                0x0008ba70                vxDecGet
                0x0002e0c8                randwc
                0x0010a1d4                bootStringToStruct
                0x0009a2cc                arptfree
                0x00077520                ios::fill(short)
                0x0009b1a0                db_show_arptab
                0x00011b80                sysAltivecProbe
                0x0006c7dc                string_char_traits<char>::move(char *, char const *, unsigned int)
                0x0007fd20                __eh_rtime_match
                0x001074b4                logout
                0x00044294                frcTestRTC
                0x0010d380                qPriListCalibrate
                0x00148d40                wvLibInit
                0x00090244                _restf26
                0x0001fb2c                vxEthernetIntDisable
                0x000e80a4                cachePipeFlush
                0x0010d9f4                sllGet
                0x000e3b88                stdioFpDestroy
                0x000e446c                __swsetup
                0x000d2204                netPoolDelete
                0x000266fc                frcFlashGetInfo
                0x0008a564                fppRegsToCtx
                0x001461f8                wdCancel
                0x0008bd70                atan
                0x000fa260                taskVarGet
                0x000e14e0                fgetc
                0x000418f8                frcTestgettimeofday
                0x00034b8c                CreateFile
                0x000903e4                _savefprx_14_l
                0x000b9380                gethostname
                0x000d2ed4                igmp_init
                0x000f17d8                memalign
                0x000ea464                sprintf
                0x0001f198                ethRxReturnBuff
                0x0008b938                vxDarGet
                0x00025c98                frcFlashAutoSelect
                0x00042798                frcTestSubsysVendID
                0x000779bc                streambuf::pubseekpos(long, int)
                0x001348f0                wdbTaskInit
                0x0006f364                basic_string<char, string_char_traits<char>, __default_alloc_template<true, 0> > operator+<char, string_char_traits<char>, __default_alloc_template<true, 0> >(basic_string<char, string_char_traits<char>, __default_alloc_template<true, 0> > const &, char)
                0x000e02d0                exp__E
                0x000bae48                ifRouteCleanup
                0x0012b0e4                clnttcp_create
                0x0008e860                sfpDoubleNormalize
                0x0010c958                qAdvance
                0x0006d734                basic_string<char, string_char_traits<char>, __default_alloc_template<true, 0> >::~basic_string(void)
                0x00147618                windWdStart
                0x0014aae0                evtLogM1
                0x0006e9c4                basic_string<char, string_char_traits<char>, __default_alloc_template<true, 0> >::rbegin(void) const
                0x00077670                ios::rdbuf(streambuf *)
                0x0008e7a0                _d_lltod
                0x000735a8                istream::_skip_ws(void)
                0x000eea84                hashTblTerminate
                0x000925d8                __fixdfdi
                0x000e611c                strerror_r
                0x0010cce8                qPriBMapGet
                0x000e6984                difftime
                0x0014c730                fppRestore
                0x000216ac                cunitSetAccessControl
                0x0006c798                string_char_traits<char>::length(char const *)
                0x00091f74                __cmpdi2
                0x00012378                sysMmuMapAdd
                0x001355b8                wdbSvcLibInit
                0x00042998                frcTestConfigEthPorts
                0x0009ea28                mcastHashTblLookup
                0x000e48b8                atexit
                0x000a0704                ip_rtaddr
                0x00024048                serialChanStop
                0x00027c34                frcEEPROMDummyWrite
                0x0003f26c                kb
                0x00078bb8                _IO_file_doallocate
                0x0010be10                dllGet
                0x00144b04                taskUndelay
                0x00148b1c                semEvStop
                0x000e60b0                strcspn
                0x0008e2d0                _savegpr_23_l
                0x000963e8                __gesf2
                0x001041c0                timexPre
                0x0006e2a4                basic_string<char, string_char_traits<char>, __default_alloc_template<true, 0> >::at(unsigned int) const
                0x00136bc0                wdbEventPost
                0x0001ac34                gtDmaCommand
                0x0013a270                wdbFppSave
                0x0014dc04                _setjmpSetup
                0x0001d5e4                frcWatchdogInit
                0x00011f4c                sysToMonitor
                0x000ef974                ioFullFileNameGet
                0x00077f64                global constructors keyed to streambuf::_un_link(void)
                0x0010825c                chkdsk
                0x001423cc                taskOptionsGet
                0x00016994                gtIntDisconnect
                0x000dff78                asin
                0x0002cd28                frcVPDRead
                0x000967d0                _savev22
                0x000dfc3c                setlocale
                0x000ece90                scanCharSet
                0x00057df8                wdbExternEnterHook
                0x0010890c                dirList
                0x000592b0                usrInit
                0x0002f850                DoNumSort
                0x0006e5a4                basic_string<char, string_char_traits<char>, __default_alloc_template<true, 0> >::find_last_of(char const *, unsigned int) const
                0x000cce0c                getpeername
                0x0013cee4                eventClear
                0x000cb8b0                mRouteEntryDelete
                0x00077c28                streambuf::stossc(void)
                0x000c92f4                pingLibInit
                0x0008861c                altivecTaskRegsSet
                0x000e3560                scanf
                0x0002cae0                frcVPDWrite
                0x000c7efc                nfsFileWrite
                0x000e8368                cacheDrvInvalidate
                0x000903a4                _restfprx_27_l
                0x000798cc                _IO_file_read
                0x000c5d90                nfsDrvNumGet
                0x0008e21c                _savegpr_29
                0x000e692c                ctime_r
                0x00015700                gtPciCpuDevNum
                0x000213dc                brgInit
                0x00090224                _restf18
                0x000cfb08                xdr_writeargs
                0x0010c7f0                qDelete
                0x000cf5c8                xdr_sattr
                0x000105f0                sysRdCpuReg
                0x00024570                vxMpscUartRxInt
                0x0008e0d8                _restfpr_19_l
                0x00119a98                dosFsVolUnmount
                0x0014dcf8                qJobCreate
                0x0008e240                _restgpr_18_l
                0x00148968                semEvStart
                0x00017ea8                gtPci0OverBridgeReadConfigReg
                0x00067f00                runtime_error type_info function
                0x00107a1c                dosFsDevInit
                0x00077518                ios::fill(void) const
                0x00103b60                shellLogoutInstall
                0x000591f4                wvOff
                0x000869cc                __rtti_ptr
                0x001117dc                dcacheUpd
                0x00076e74                streambuf::streambuf(int)
                0x00076e34                streambuf::doallocate(void)
                0x000deac8                tcp_usrreq
                0x000a9950                udp_usrreq
                0x000f9798                taskSwapHookDetach
                0x001221e0                ledClose
                0x0014d630                wdbDbgHwBpHandle
                0x00105538                sp
                0x00107d88                cd
                0x00107300                printErrno
                0x0013fa70                semCCreate
                0x000fcd58                s
                0x000afa20                srandom
                0x001074d4                h
                0x000878b0                long double type_info function
                0x00107b3c                dosFsMkfs
                0x00077990                streambuf::put_mode(void)
                0x00076afc                streambuf::_link_in(void)
                0x0014b5ac                cplusXtorSet
                0x00064f24                __length_error(char const *)
                0x00011510                frcGetExtSramSize
                0x0001c184                gtCntmrEnable
                0x000402a4                save_results
                0x0008e25c                _restgpr_25_l
                0x00010740                sysL2BackGlobalInv
                0x000f1f08                cfree
                0x0010c11c                lstNth
                0x000df390                tcp_ctloutput
                0x0003b7ec                rd
                0x0010c8c8                qGet
                0x00081564                __throw_bad_typeid
                0x0010e66c                rBuffReset
                0x000f5964                selWakeupListLen
                0x0003bebc                frd
                0x00012b9c                memRead
                0x0006ce54                basic_string<char, string_char_traits<char>, __default_alloc_template<true, 0> >::Rep::create(unsigned int)
                0x0013f6b4                semBTake
                0x000b9cb4                ifAddrAdd
                0x00026b68                frcFlashBlockErase
                0x0004573c                mpsc_cause_regs_dump
                0x00075574                istream::operator>>(unsigned char &)
                0x000819c8                exception::exception(void)
                0x00077668                ios::rdbuf(void) const
                0x001359d4                wdbSvcDsaSvcRemove
                0x0009c4e4                check_trailer
                0x00131704                xdr_reference
                0x001414fc                semMGiveForce
                0x00023dbc                serialChanInit
                0x000566f8                usrPci2MemDmaStart
                0x00070eec                istream::tellg(void)
                0x000d0058                xdr_statfsres
                0x00128e98                cbioParamsGet
                0x00090240                _restf25
                0x00141be8                semShowInit
                0x000faaec                tyMonitorTrapSet
                0x00145c60                wdInit
                0x00074f34                istream::get(signed char &)
                0x000e4a78                ldiv
                0x0012e70c                registerrpc
                0x000f5ecc                sigismember
                0x001079b0                dosFsInit
                0x000cb6f0                mPrivRouteEntryAdd
                0x0014c618                dsmInst
                0x00042dec                frcTestEthModeSet
                0x000d2d20                ifIndexLibInit
                0x000904ac                _savegprx_14_l
                0x0006fab8                bool operator>=<char, string_char_traits<char>, __default_alloc_template<true, 0> >(char const *, basic_string<char, string_char_traits<char>, __default_alloc_template<true, 0> > const &)
                0x00088934                altivecTaskRegsShow
                0x0001c3a0                gtCntmrSetTCTclocks
                0x0006d054                basic_string<char, string_char_traits<char>, __default_alloc_template<true, 0> >::Rep::grab(void)
                0x000777ac                streambuf::base(void) const
                0x0001a430                gtMemoryMapBank3
                0x000777e0                streambuf::xflags(void)
                0x0001ee1c                ethPortSend
                0x00085bf0                __user_type_info::__user_type_info(char const *)
                0x0009cdac                in_canforward
                0x0014dba8                wdbDbgDataAccessStub
                0x00043278                frcTestMPP18ISR_soft
                0x00121f98                iosFdShow
                0x0008f3ac                __DIAB_wr_sw_fl
                0x000f1804                valloc
                0x0009ca4c                netTypeAdd
                0x00025320                frcbootFlashReadRst
                0x0007008c                cplusArraysInit
                0x0008e0e8                _restfpr_23_l
                0x0009041c                _savefprx_28_l
                0x0003fdd0                tvdelta
                0x00087ab8                float type_info function
                0x000901c8                __ult64
                0x000a66e0                rtioctl
                0x000e1af8                fputc
                0x0006dbc0                basic_string<char, string_char_traits<char>, __default_alloc_template<true, 0> >::insert(unsigned int, char const *)
                0x0008f038                _f_lltof
                0x00075528                istream::istreambuf(void) const
                0x0006dca8                basic_string<char, string_char_traits<char>, __default_alloc_template<true, 0> >::selfish(void)
                0x0008e260                _restgpr_26_l
                0x000efc54                ioDefDevGet
                0x000890b8                cacheErrnoSet
                0x00037394                get_word
                0x0006a328                __default_alloc_template<true, 0>::reallocate(void *, unsigned int, unsigned int)
                0x0001c76c                vxCntmrIntEnable
                0x0008f240                _f_ulltof
                0x001312d8                xdrrec_eof
                0x0008b978                vxFirstBit
                0x0003d8dc                step
                0x00045334                detectRAMsize
                0x00034ae0                RemoveMemArray
                0x000bd374                muxDevExists
                0x00146588                windSpawn
                0x0008e180                _savefpr_31_l
                0x0007690c                _IO_peekc_locked
                0x00090384                _restfprx_19_l
                0x00077944                streambuf::eBptr(void)
                0x000b5b38                ftpDataConnGet
                0x0014dd5c                qJobInit
                0x000468c0                SDMA_RXBD_regs_dump
                0x000d2558                netTupleGet
                0x000c726c                nfsMntDump
                0x001319f4                clnt_sperror
                0x00073a2c                iostream::iostream(int, streambuf *, ostream *)
                0x000715c4                istream::operator>>(short &)
                0x00076b90                streambuf::underflow(void)
                0x00089e18                excIntHandle
                0x000a3318                rn_refines
                0x00129204                cbioDevVerify
                0x00143940                taskSuspend
                0x0010530c                period
                0x00102aa4                moduleIdListGet
                0x000f993c                taskDeleteHookAdd
                0x00030e1c                DoFourier
                0x000ab338                sobind
                0x000778d4                streambuf::shortbuf(void)
                0x000cdcdc                tftpInit
                0x00017f9c                gtPci0MapMemory0space
                0x0008e1c4                _restgpr_27
                0x000f8748                symFindSymbol
                0x00148fc0                wvObjInst
                0x000537d4                frcEEPROMTestWrite
                0x0008ba98                vxMemProbeSup
                0x000bdce8                muxPollStart
                0x0006ae24                __malloc_alloc_template<0>::__set_malloc_handler(void (*)(void))
                0x00074b1c                ostream::ostreambuf(void) const
                0x000ce558                tftpInfoShow
                0x00085de4                __si_type_info type_info function
                0x0009ce14                in_socktrim
                0x0008b980                vxPvrGet
                0x000a58f8                rtalloc
                0x0002925c                ismon
                0x0010da10                sllRemove
                0x00090410                _savefprx_25_l
                0x000a511c                rn_destroyhead
                0x000d0368                xdr_exportnode
                0x00077ad8                streambuf::out_waiting(void)
                0x00101834                loadCommonMatch
                0x00059840                usrClock
                0x000ccc7c                getsockopt
                0x00077968                streambuf::eNptr(void)
                0x00076b1c                streambuf::switch_to_get_mode(void)
                0x00077960                streambuf::Nbase(void)
                0x000e6d5c                localtime_r
                0x0001d6dc                frcWatchdogEnable
                0x00134be0                wdbModeSet
                0x00019f28                gtPci0DisableBrokenAgentDetection
                0x00056720                usrMem2PciDmaStart
                0x0010c10c                lstLast
                0x000c50a8                arpShow
                0x000f0f3c                logMsg
                0x000d214c                netPoolInit
                0x00105ac0                show
                0x00010644                sysL2crPut
                0x000902b4                _restfprs_16_l
                0x0010e774                rBuffNBytes
                0x00026d4c                frcFlashUnlock
                0x0006ccdc                basic_string<char, string_char_traits<char>, __default_alloc_template<true, 0> >::Rep::operator new(unsigned int, unsigned int)
                0x00089260                cacheArchDmaFree
                0x000919f4                looutput
                0x0009e8e0                in_iaonnetof
                0x0013af14                xdr_WDB_CTX_CREATE_DESC
                0x001425e8                taskIdDefault
                0x000adef0                soisdisconnected
                0x0003fa9c                micromb
                0x0013a570                wdbDbgBpRemove
                0x0008e23c                _restgpr_17_l
                0x00090424                _savefprx_30_l
                0x0013351c                wdbTsfsDrv
                0x000c3948                netDrvDebugLevelSet
                0x0001058c                sysGetPrid
                0x0002ca00                frcVPDInit
                0x000e710c                strftime
                0x00055aa8                frcTestWatchDogAppStop
                0x000ff2e0                loadElfInit
                0x0008442c                __builtin_vec_delete
                0x000777b4                streambuf::ebuf(void) const
                0x00078fb0                _IO_file_attach
                0x000f1474                logShow
                0x00025f34                operation_complete
                0x000dfc30                localeconv
                0x000d0330                xdr_exports
                0x0010d9a0                sllPutAtHead
                0x000903d0                _restfprx_31_l
                0x000ab824                soclose
                0x00044f28                frcTestEthPHYTestMode
                0x00011668                frcCPUClockGet
                0x0006add4                __malloc_alloc_template<0>::reallocate(void *, unsigned int, unsigned int)
                0x00146670                windDelete
                0x00146a3c                windPriNormalSet
                0x00134f44                wdbResumeSystem
                0x00012f18                pciFindDevice
                0x000408f4                l_overhead
                0x00088edc                cacheArchDisable
                0x0001a28c                gtMemoryMapBank0
                0x000bd488                muxError
                0x000e90c0                stat
                0x00078b18                filebuf::sys_write(char const *, int)
                0x0013d214                kernelTimeSlice
                0x001072b0                pc
                0x00012e50                pciConfigLibInit
                0x0006ab28                __default_alloc_template<true, 0>::allocate(unsigned int)
                0x0010db38                rBuffLibInit
                0x0008e1b0                _restgpr_22
                0x000567dc                usrWriteGPR
                0x00090534                _savevr27
                0x0006d4bc                basic_string<char, string_char_traits<char>, __default_alloc_template<true, 0> >::basic_string(char const *, unsigned int)
                0x0002a4f4                frcBibDataShow
                0x0008e208                _savegpr_24
                0x0012cb04                reg_service
                0x0003f99c                micro
                0x000dfb54                isdigit
                0x000775b0                ios::width(int)
                0x000ba1a0                ifMetricSet
                0x0001d678                frcWatchdogService
                0x0010d974                sllDelete
                0x0013e794                msgQShow
                0x000c5b28                hostShow
                0x000ae1bc                soqinsque
                0x000115a0                frcPrintMv64360Version
                0x000a7c7c                udp_input
                0x000191f0                gtPci0MapDevice1MemorySpaceDAC
                0x0005596c                watchDogApp
                0x000a32d4                rn_search_m
                0x0013b300                xdr_WDB_EVT_DATA
                0x0009022c                _restf20
                0x000e29e8                fwrite
                0x0009682c                _restv21
                0x001134f4                dosChkLibInit
                0x00149d18                wvTaskNamesPreserve
                0x00010e78                frcBoardIdInit
                0x0006e90c                basic_string<char, string_char_traits<char>, __default_alloc_template<true, 0> >::end(void) const
                0x000c3b64                netDrvFileDoesNotExistInstall
                0x000fc144                dbgHelp
                0x0003b928                wr
                0x0012d680                rejected
                0x000106b8                SET_THRM3
                0x000831f8                operator new [](unsigned int, void *)
                0x00074fb4                istream::read(signed char *, int)
                0x000ae674                sowakeup
                0x00029134                isday
                0x0008bb10                vxImmrDevGet
                0x0006d3ec                basic_string<char, string_char_traits<char>, __default_alloc_template<true, 0> >::basic_string(basic_string<char, string_char_traits<char>, __default_alloc_template<true, 0> > const &, unsigned int, unsigned int)
                0x00037748                getParams
                0x000ba8b0                ifAllRoutesDelete
                0x0006a280                __default_alloc_template<true, 0>::_S_refill(unsigned int)
                0x000e3dcc                __stdout
                0x00141064                semMInit
                0x0006bb5c                basic_string<char, string_char_traits<char>, __default_alloc_template<true, 0> >::alloc(unsigned int, bool)
                0x0003ea94                timing
                0x00073874                ostream::write(char const *, int)
                0x000289e8                gettime
                0x00044cac                testRdReg
                0x00040140                insertinit
                0x000cfbbc                xdr_createargs
                0x0006d238                basic_string<char, string_char_traits<char>, __default_alloc_template<true, 0> >::basic_string(void)
                0x0007d048                _IO_switch_to_get_mode
                0x000d410c                in_cksum
                0x0010155c                loadSegmentsAllocate
                0x00135520                wdbRpcGetArgs
                0x00017d90                frcPci0ReadConfigReg
                0x000f99c8                taskDeleteHookDelete
                0x000f9d24                taskSwapHookShow
                0x0010d180                qPriListPut
                0x00017c3c                __eabi
                0x00034c14                tbReset
                0x000ada1c                sogetopt
                0x000f8df4                symEach
                0x00011efc                sysPhysMemTop
                0x00010a14                sysClkConnect
                0x0007e7b4                _IO_vfscanf
                0x000a9e64                domaininit
                0x000ca488                bindresvport
                0x000790a8                _IO_do_write
                0x0001c1e4                gtCntmrLoad
                0x000eeb44                hashTblPut
                0x00111440                dcacheDevTune
                0x000770f8                streambuf::~streambuf(void)
                0x000b5664                ftpDataConnInit
                0x000c3e64                netErrnoSet
                0x0012d9d8                svc_find
                0x00073338                ostream::seekp(long, ios::seek_dir)
                0x0007f97c                __get_dynamic_handler_chain
                0x0008ede0                _f_ftoll
                0x00021f48                mpscChanInit
                0x000531ac                frcTestDispAllPCI0Reg
                0x000f054c                iosFdDevFind
                0x000f9520                taskHookInit
                0x0008ba78                vxDecReload
                0x0007588c                oct(ios &)
                0x0008fad4                __udiv64
                0x0006d9c4                basic_string<char, string_char_traits<char>, __default_alloc_template<true, 0> >::push_back(char)
                0x0002e250                nbench
                0x000cba58                mPrivRouteEntryDelete
                0x000ca584                rlogInit
                0x000efca8                ioDefDirGet
                0x00016bd0                gtIntEnable
                0x000cc674                connectWithTimeout
                0x000fae78                tyRead
                0x000e3460                rewind
                0x00121f18                iosDevShow
                0x00125828                yystart
                0x00077500                ios::tie(void) const
                0x00012d48                sysUsDelay
                0x001026a8                moduleCreateHookAdd
                0x000e1dc4                freopen
                0x0008a5ac                intEnt
                0x00089514                excConnect
                0x000579c4                usrBpInit
                0x00107548                spyTask
                0x00054078                parse16
                0x00010680                vxHid1Set
                0x0006f918                bool operator><char, string_char_traits<char>, __default_alloc_template<true, 0> >(basic_string<char, string_char_traits<char>, __default_alloc_template<true, 0> > const &, char const *)
                0x000808dc                __cp_eh_info
                0x000b20f0                ipMuxCookieGet
                0x0010c33c                qFifoInit
                0x00096818                _savev31
                0x001198a0                dosSetVolCaseSens
                0x0003fe90                timespent
                0x0005770c                usrNetIfAttach
                0x000ed474                floatInit
                0x00019e14                gtPci0ArbiterDisable
                0x000e9b70                errnoOfTaskSet
                0x00077d9c                filebuf::file_ptr(void)
                0x000e8464                classCreate
                0x000fa2ec                taskVarSet
                0x0014a880                evtLogT0
                0x00076e14                streambuf::setb(char *, char *, int)
                0x0008f790                __urem32
                0x000af0a4                sbflush
                0x000ea38c                fdprintf
                0x0003f49c                latency
                0x0010274c                moduleCreateHookDelete
                0x00136b4c                wdbEventLibInit
                0x000775a8                ios::width(void) const
                0x0006f5b8                bool operator==<char, string_char_traits<char>, __default_alloc_template<true, 0> >(char const *, basic_string<char, string_char_traits<char>, __default_alloc_template<true, 0> > const &)
                0x000bdcc4                muxTaskPriorityGet
                0x0001a8c4                gtMemoryEnableWindow
                0x00074f54                istream::get(signed char *, int, char)
                0x0010a0dc                uswab
                0x000cbd10                routeAgeSet
                0x0006711c                length_error::~length_error(void)
                0x000d01a4                xdr_mountname
                0x0008e294                _restgpr_31_l
                0x001401d4                semLibInit
                0x00010988                sysL1DcacheDisable
                0x001307c4                xdr_float
                0x0006e6c4                basic_string<char, string_char_traits<char>, __default_alloc_template<true, 0> >::find_last_not_of(basic_string<char, string_char_traits<char>, __default_alloc_template<true, 0> > const &, unsigned int) const
                0x0007db3c                _IO_default_seekoff
                0x0008e66c                _d_dtoull
                0x000ac2b8                sosend
                0x00014414                pciSpecialCycle
                0x0008a588                fppCtxToRegs
                0x000a5150                rn_init
                0x0007d56c                _IO_doallocbuf
                0x0008e1f4                _savegpr_19
                0x0008a55c                fppProbe
                0x000599c0                RBString_T::clear(void)
                0x00077630                ios::rdstate(void) const
                0x00090590                _restvr26
                0x000c7228                nfsMntUnmountAll
                0x00026fd8                flashAutoDetect
                0x000b4f84                ftpHookup
                0x000d1170                udpstatShow
                0x0013b6d0                xdr_WDB_REG_READ_DESC
                0x000454f8                PCI_DCD_regs_dump
                0x00090a54                endFlagsGet
                0x000d2a98                netMblkOffsetToBufCopy
                0x000d0828                tcpDebugShow
                0x000a33f0                rn_lookup
                0x000e3950                __swrite
                0x0012d940                svc_unregister
                0x00088c04                bfill
                0x000bad78                ifRouteDisable
                0x000af7c4                _remque
                0x001498dc                wvUploadStop
                0x000e7f24                cacheDisable
                0x00017f28                gtPci0MapIOspace
                0x0006c714                string_char_traits<char>::ne(char const &, char const &)
                0x00037bf8                gettimeofday_lmbench
                0x0006bf68                basic_string<char, string_char_traits<char>, __default_alloc_template<true, 0> >::copy(char *, unsigned int, unsigned int) const
                0x00096824                _restv20
                0x0007d014                _IO_switch_to_backup_area
                0x0008e444                __DIAB_rd_pk_ld
                0x00097db0                ifioctl
                0x0010a950                bootParamsShow
                0x00108d4c                ls
                0x0014db6c                wdbDbgTraceStub
                0x0004596c                brg_regs_dump
                0x00142f98                exit
                0x000ab034                socreate
                0x000d7474                rip_init
                0x00022f40                sdmaDbg
                0x0007f698                __default_terminate
                0x000188ec                gtPci0MapInternalRegSpaceDAC
                0x0009ad7c                arpEntryDelete
                0x000c711c                nfsDirMount
                0x00148880                msgQEvStop
                0x00019074                gtPci0MapDevice0MemorySpaceDAC
                0x000778e8                streambuf::Gbase(void)
                0x0009026c                _savef17
                0x0013ade8                wdbAltivecSet
                0x000e8720                classInstrument
                0x000adf78                sonewconn1
                0x0014d3e4                wdbDbgTraceModeClear
                0x0008e2e8                _savegpr_29_l
                0x000e7bb4                __getZoneInfo
                0x00022a88                vxMpscIntDisable
                0x0014a550                wvTmrRegister
                0x000ba018                ifMaskSet
                0x0014d494                wdbDbgHwBpSet
                0x00011178                frcPrintBank0MemSize
                0x000902e0                _restfprs_27_l
                0x00066b0c                invalid_argument type_info function
                0x0013ae14                wdbAltivecLibInit
                0x0009080c                __diab_unlock_mutex
                0x00058090                wdbSp
                0x000775dc                ios::set(int)
                0x0013b670                xdr_WDB_MEM_SCAN_DESC
                0x000330b8                DoNNET
                0x0013a01c                wdbCtxExitLibInit
                0x00077b1c                streambuf::padn(char, int)
                0x00134878                wdbInstallRtIf
                0x00071e14                istream::operator>>(streambuf *)
                0x000d5b4c                in_pcblookuphash
                0x0010cf30                qPriBMapEach
                0x0008ac80                mmuPpcLibInit
                0x00076a1c                streambuf::scan(char const *,...)
                0x000275c8                frcI2CWrite
                0x0006e630                basic_string<char, string_char_traits<char>, __default_alloc_template<true, 0> >::find_first_not_of(basic_string<char, string_char_traits<char>, __default_alloc_template<true, 0> > const &, unsigned int) const
                0x000b4068                etherMultiGet
                0x00077b5c                streambuf::sputc(int)
                0x0014b8a4                _dbgInfoPCGet
                0x0008304c                operator new(unsigned int, void *)
                0x000f5e78                sigdelset
                0x000e3654                setbuf
                0x000e8130                cacheDmaMalloc
                0x000d5e30                icmp_init
                0x00011098                frcGetUserFlashSize
                0x00084f5c                __rtti_class
                0x0008bb04                vxImmrIsbGet
                0x0010a07c                binvert
                0x000cf3a8                xdr_nfs_fh
                0x00087cc0                unsigned long type_info function
                0x00090394                _restfprx_23_l
                0x0010287c                moduleFindByNameAndPath
                0x00086ce4                __rtti_ptmf
                0x0013b518                xdr_WDB_EVTPT_DEL_DESC
                0x000bca84                muxMCastAddrDel
                0x00103be8                shellIsRemoteConnectedSet
                0x001180dc                dosFsFatInit
                0x00131e60                get_myaddress
                0x0009c16c                ether_delmulti
                0x0009e1f0                in_ifaddr_remove
                0x000c745c                nfsExportShow
                0x00011f70                sysProcNumGet
                0x0009684c                _restv25
                0x000364d8                test_solidbits_comparison
                0x00077c44                filebuf type_info function
                0x001317f8                xdr_pointer
                0x00101268                loadModuleAt
                0x00036b84                test_stuck_address
                0x000feaa8                elfRelocRelEntryRd
                0x0009e914                mcastHashInit
                0x000818f8                uncaught_exception(void)
                0x0008e2cc                _savegpr_22_l
                0x0001c038                gtCntmrStart
                0x0003eaa0                start
                0x0007e5d8                _IO_seekoff
                0x001355e4                wdbSvcHookAdd
                0x0008e1e8                _savegpr_16
                0x00022b10                vxMpscIntClear
                0x00146d04                windSemDelete
                0x000ce280                tftpGet
                0x000bbd28                muxDevStop
                0x000414f4                frcTestbwMem
                0x0012e0fc                _authenticate
                0x0008a47c                fppTaskRegsGet
                0x0008e0fc                _restfpr_28_l
                0x000214d8                brgDbg
                0x000fc474                e
                0x0006db60                basic_string<char, string_char_traits<char>, __default_alloc_template<true, 0> >::insert(unsigned int, basic_string<char, string_char_traits<char>, __default_alloc_template<true, 0> > const &, unsigned int, unsigned int)
                0x000e48e4                atoi
                0x0010bbe4                bufFree
                0x0013ab90                wdbUserEvtPost
                0x000dfb40                iscntrl
                0x000fbb30                vmBaseGlobalMapInit
                0x00096ee0                if_dettach
                0x00090274                _savef19
                0x000d2428                netMblkGet
                0x0003ed6c                save_n
                0x000904c0                _savegprx_19_l
                0x000f3ea4                pathLastName
                0x0014b618                cplusCtors
                0x0007e510                _IO_putc
                0x000aea50                sbappendaddr
                0x00074bf0                istream type_info function
                0x0003fbf8                milli
                0x0006cca8                basic_string<char, string_char_traits<char>, __default_alloc_template<true, 0> >::empty(void) const
                0x000af8e8                hashinit
                0x000559f8                watchDogIsr
                0x000833a4                __builtin_delete
                0x000e177c                fileno
                0x00059da8                RBString_T::append(char const *, int)
                0x000a2f0c                ip_getmoptions
                0x0010bc84                checksum
                0x00011ecc                sysInLong
                0x00090cec                mib2Init
                0x00092c28                __moddi3
                0x00017c94                frcPci0WriteConfigReg
                0x0014aef4                evtLogString
                0x00057e40                wdbExternExitHook
                0x0001a8fc                gtMemoryGetMemWindowStatus
                0x0001d744                ethPortInit
                0x00071bac                istream::operator>>(double &)
                0x000f9fac                taskVarInit
                0x0010d1e4                qPriListPutFromTail
                0x00089460                vecOffRelocMatch
                0x00092a6c                __fixunssfsi
                0x00098f58                arpwhohas
                0x000de460                tcp_slowtimo
                0x000dd724                tcp_newtcpcb
                0x0006c0f0                basic_string<char, string_char_traits<char>, __default_alloc_template<true, 0> >::rfind(char const *, unsigned int, unsigned int) const
                0x0009052c                _savevr26
                0x00066b98                invalid_argument::invalid_argument(basic_string<char, string_char_traits<char>, __default_alloc_template<true, 0> > const &)
                0x00090400                _savefprx_21_l
                0x000f1f88                memPartLibInit
                0x00101340                loadModuleGet
                0x00010634                sysGetL2CR
                0x00023680                vxSdmaIntCtrlInit
                0x00132678                wdbEndPktDevInit
                0x000b913c                hostTblSearchByAddr
                0x000960e4                __fpcmp_parts_f
                0x0003c7a0                loads
                0x000771e8                streambuf::sputbackc(char)
                0x00148f2c                wvEvtClassGet
                0x00107bc0                dosFsMkfsOptionsSet
                0x0008ab50                intVecBaseGet
                0x000289b8                setI2cBusy
                0x00078b98                filebuf::xsgetn(char *, int)
                0x0008b970                vxSrr1Set
                0x000b9f04                ifBroadcastGet
                0x0008da80                cachePpcDisable
                0x0009ce4c                in_lnaof
                0x0011dd70                dosFsLibInit
                0x0007e6e0                _IO_seekpos
                0x00135b48                wdbTargetIsConnected
                0x0007f6a8                __terminate
                0x000777e8                streambuf::xflags(int)
                0x000747c4                ostream::osfx(void)
                0x000ee8b8                hashLibInit
                0x000902bc                _restfprs_18_l
                0x0006d3b8                basic_string<char, string_char_traits<char>, __default_alloc_template<true, 0> >::assign(basic_string<char, string_char_traits<char>, __default_alloc_template<true, 0> > const &, unsigned int, unsigned int)
                0x00083904                __builtin_new
                0x000e69c8                gmtime
                0x000e643c                strspn
                0x00105f1c                m
                0x000931b8                __muldi3
                0x0008e4b0                __DIAB_rd_sw_fl
                0x000eeec4                hashFuncModulo
                0x0006acbc                __default_alloc_template<true, 0>::deallocate(void *, unsigned int)
                0x0012c900                portmapd
                0x00028720                frcRTCDummyWrite
                0x000f8a80                symByCNameFind
                0x000b9210                hostGetByAddr
                0x0008e220                _savegpr_30
                0x0006d48c                basic_string<char, string_char_traits<char>, __default_alloc_template<true, 0> >::assign(char const *, unsigned int)
                0x00077788                streambuf::pbase(void) const
                0x0008ab8c                intLevelSet
                0x00010bec                sysTimestampPeriod
                0x000225f4                mpscChanSetCdv
                0x00076adc                streambuf::_un_link(void)
                0x00018a84                gtPci0MapMemoryBank0DAC
                0x00106714                lkup
                0x0007fd80                __get_eh_table_version
                0x00076b98                streambuf::uflow(void)
                0x00013adc                pciConfigOutByte
                0x000ccf5c                sockFdtosockFunc
                0x0011992c                dosFsVolDescGet
                0x000efe34                iosInit
                0x000b21dc                bsdSocket
                0x000e6290                strlen
                0x000b5b9c                ftpLs
                0x000183b8                gtPci0GetMemory3Base
                0x0007583c                _IO_ostream_withassign::operator=(_IO_ostream_withassign &)
                0x00075874                hex(ios &)
                0x0008ff6c                __eq64
                0x000ef018                open
                0x000bb8e8                muxLibInit
                0x00090450                _restgprx_21_l
                0x000f6298                sigpending
                0x00098a28                arp_rtrequest
                0x000197e0                gtPci0MapP2pMem0SpaceDAC
                0x000a7b74                udp_init
                0x00107bd0                dosFsConfigInit
                0x0001f230                ethPortSetRxCoal
                0x0008ed48                _d_ulltod
                0x0006c6f0                string_char_traits<char>::assign(char &, char const &)
                0x000769cc                streambuf::vscan(char const *, __va_list_tag *, ios *)
                0x000dfc10                toupper
                0x00130518                xdr_array
                0x00090848                __diab_unlock_semaphore
                0x000ae2c8                socantsendmore
                0x000cfd78                xdr_nfscookie
                0x000e83a8                cacheDrvVirtToPhys
                0x00106ad0                mRegs
                0x000c4b30                ipstatShow
                0x00095460                __gedf2
                0x0009ba44                ether_input
                0x000eefcc                intContext
                0x001076d8                spyHelp
                0x000989ec                ipEtherResolvRtn
                0x0013a8dc                wdbCtxStartLibInit
                0x0009a4dc                arpioctl
                0x000ea584                vfdprintf
                0x000eeee0                hashFuncMultiply
                0x00090d90                mib2ErrorAdd
                0x0010bd24                dllInit
                0x000281bc                clearIntFlag
                0x00097c10                if_slowtimo
                0x00057648                checkInetAddrField
                0x000523a8                pcicfg0_regs_dump
                0x0003eaf8                stop
                0x0008e1d0                _restgpr_30
                0x000f569c                selWakeupAll
                0x00146e94                windTickAnnounce
                0x000133c0                pciDevConfig
                0x0014a924                evtLogT0_noInt
                0x00105a5c                ti
                0x00133518                wdbNptShutdown
                0x000377e4                frcMemTest
                0x000e68f0                clock
                0x00059ee4                RBString_T::prepend(RBString_T &)
                0x00148dc4                wvEvtLogStart
                0x0007bccc                _IO_dtoa
                0x00090334                _savefprs_19_l
                0x000230e0                sdmaChanStopRx
                0x0013f9b4                semCLibInit
                0x000e2d70                getw
                0x0008f418                __lsl64
                0x0014db3c                windIntStackSet
                0x00036a6c                test_bitflip_comparison
                0x000cdae4                tftpTask
                0x00054670                testIsr
                0x0007739c                streammarker::delta(streammarker &)
                0x00087ec8                unsigned short type_info function
                0x00025064                bootFlashParamsProgram
                0x00090040                __le64
                0x000dfae0                __assert
                0x0007d9e4                _IO_init
                0x00087298                long type_info function
                0x00137718                wdbGopherLibInit
                0x0002af90                frcBibAttach
                0x00077d40                filebuf::cur_ptr(void)
                0x000bd218                muxPacketAddrGet
                0x000e49dc                div
                0x00046b54                SDMA_TXBD_regs_dump
                0x000756ec                _IO_istream_withassign type_info function
                0x00077904                streambuf::eGptr(void)
                0x000e48a8                abs
                0x00057b34                usrStartupScript
                0x0006ae38                global constructors keyed to __default_alloc_template<true, 0>::_S_end_free
                0x0006ea74                basic_string<char, string_char_traits<char>, __default_alloc_template<true, 0> >::rend(void) const
                0x000e5e78                strchr
                0x000bb610                ipLibInit
                0x000e32fc                __srefill
                0x0014c690                fppSave
                0x00035464                ramTest16bit
                0x000b94dc                icmpMaskGet
                0x00024308                vxMpscUartDevReset
                0x0013a784                wdbEvtptClassConnect
                0x0008b950                vxSrr1Get
                0x000add6c                soisconnecting
                0x000e1bc0                fputs
                0x00077fbc                filebuf::init(void)
                0x000c79b8                nfsRename
                0x0001d6ac                frcWatchdogNMILoad
                0x0008e14c                _savefpr_18_l
                0x0007195c                istream::operator>>(unsigned long long &)
                0x0008e200                _savegpr_22
                0x000a2904                ip_pcbopts
                0x000f5988                selWakeupType
                0x0010c928                qResort
                0x0006c3e0                basic_string<char, string_char_traits<char>, __default_alloc_template<true, 0> >::find_first_not_of(char, unsigned int) const
                0x000bdf94                muxPollDevAdd
                0x00105cc4                td
                0x00059958                RBStringIterator_T::RBStringIterator_T(RBString_T const &)
                0x000d24c0                netClusterGet
                0x000917f4                endPollStatsInit
                0x00011500                frcGetFlashOrg
                0x00144da0                taskInfoGet
                0x0008b9e4                vxHid1Get
                0x0007e13c                _IO_default_seek
                0x00010b44                sysTimestampConnect
                0x000d50ec                in_pcbconnect
                0x000cdea8                tftpPeerSet
                0x00090514                _savevr23
                0x00090294                _savef27
                0x00059adc                RBString_T::operator=(RBString_T &)
                0x000e9048                closedir
                0x000b3e0c                bsdZbufSockRtn
                0x000e0020                acos
                0x000f05cc                iosFdFree
                0x000d532c                in_pcbdisconnect
                0x00090288                _savef24
                0x0002d02c                DoEmFloatIteration
                0x0014b76c                _dbgInstSizeGet
                0x00041c00                frcTestWhoAmI
                0x000a3fe8                rn_addroute
                0x00059e38                RBString_T::append(char)
                0x0008e198                _restgpr_16
                0x0013fcf0                semCGive
                0x0009ae44                db_print_sa
                0x00077228                streambuf::get_column(void)
                0x000902b8                _restfprs_17_l
                0x00045654                PCI_REMAP_regs_dump
                0x0010f32c                rBuffInfoGet
                0x00012d3c                intDisconnect
                0x00013528                pciConfigInByte
                0x0001f2fc                vxEthernetIntCntlInit
                0x000e81b4                cacheFuncsSet
                0x00135798                wdbSvcDispatch
                0x00077980                streambuf::have_markers(void)
                0x0013c8d4                eventSend
                0x00065fe4                logic_error::logic_error(basic_string<char, string_char_traits<char>, __default_alloc_template<true, 0> > const &)
                0x0012d31c                xdr_deskey
                0x0006713c                length_error type_info function
                0x0001eb04                etherInitRxDescRing
                0x000553b8                frcDmaTestTaskEntry1
                0x0001f2d0                ethBCopy
                0x0005af24                cplus_demangle_set_style
                0x00090b90                endObjectUnload
                0x000fbec0                vmBaseStateSet
                0x00094a28                __subdf3
                0x000cfa90                xdr_readres
                0x0014a874                evtBufferBind
                0x0012f42c                svcudp_create
                0x00022a00                vxMpscIntEnable
                0x000be470                muxTkDrvCheck
                0x000ccb14                recvmsg
                0x0010c418                qFifoInfo
                0x0008e2ec                _savegpr_30_l
                0x0012e05c                svc_run
                0x00089624                excIntConnect
                0x00037adc                frcTestMemTest
                0x000af544                splSemInit
                0x000f9ccc                taskCreateHookShow
                0x00025418                frcBootFlashSectorErase
                0x000e80e0                cacheTextUpdate
                0x000eefe4                intCount
                0x0010d81c                rngIsEmpty
                0x0013a488                wdbDbgBpFind
                0x0008e2ac                _savegpr_14_l
                0x00107c24                dosFsDateTimeInstall
                0x00019138                gtPci0MapDevice1MemorySpace
                0x0010cd24                qPriBMapRemove
                0x00088724                altivecCtxToRegs
                0x000faaf8                tyIoctl
                0x00140c6c                semQFlush
                0x000aeed0                sbcompress
                0x0014a740                evtLogFuncBind
                0x000d26c0                netClPoolIdGet
                0x0006f8b8                bool operator><char, string_char_traits<char>, __default_alloc_template<true, 0> >(char const *, basic_string<char, string_char_traits<char>, __default_alloc_template<true, 0> > const &)
                0x001307c0                xdr_floatInclude
                0x00090580                _restvr24
                0x000f5610                selWakeup
                0x00056770                usrDmaDone
                0x0007cf04                _IO_un_link
                0x00082918                __register_frame_info_table
                0x0008e1b4                _restgpr_23
                0x000905b0                _restvr30
                0x000a4fd0                rn_inithead
                0x00136054                wdbMemCoreLibInit
                0x000cdfd8                tftpPut
                0x00021bf8                vxCunitIntEnable
                0x00040178                insertsort
                0x00015718                gtPciIntrToVecNum
                0x000dd804                tcp_drop
                0x0013a658                wdbDbgBreakpoint
                0x0002c3cc                frcPCIDataWrite
                0x00085b1c                bad_typeid::~bad_typeid(void)
                0x00019e40                gtPci0ParkingDisable
                0x000aa8d0                m_prepend
                0x000efb74                getwd
                0x0008e248                _restgpr_20_l
                0x0009e9d4                mcastHashTblDelete
                0x000d8ba8                soo_unselect
                0x000d5d88                in_pcbrehash
                0x0012bb10                clntudp_bufcreate
                0x00090838                __diab_lock_semaphore
                0x001027c4                moduleFindByName
                0x0007dfec                _IO_default_pbackfail
                0x0001e598                ethernetPhyReset
                0x00107ee8                mkdir
                0x0002f7f8                doubleTest
                0x000de6c0                tcp_timers
                0x000f037c                iosDevFind
                0x00082844                __register_frame_info
                0x000f6ccc                sigsetmask
                0x000a303c                ip_freemoptions
                0x000adc54                sohasoutofband
                0x0012aab8                clntraw_create
                0x00104bf8                unldByNameAndPath
                0x0008aae0                intVecGet
                0x0001700c                sysIntEnable
                0x00081c58                bad_exception::~bad_exception(void)
                0x000f37c8                objCoreInit
                0x000f6ba8                sigwait
                0x0006cc94                basic_string<char, string_char_traits<char>, __default_alloc_template<true, 0> >::capacity(void) const
                0x00070dc8                istream::sync(void)
                0x0010c9b8                qKey
                0x000d915c                tcp_input
                0x00077738                streambuf::xchain(void)
                0x000f3714                objAlloc
                0x000eebec                hashTblFind
                0x0006ccbc                basic_string<char, string_char_traits<char>, __default_alloc_template<true, 0> >::Rep::frob_size(unsigned int)
                0x0008e19c                _restgpr_17
                0x00128c0c                cbioModeGet
                0x000b9e54                ifAddrSet
                0x0009ffd0                iptime
                0x000d7578                rip_input
                0x00143078                taskTerminate
                0x000776d8                streambuf type_info function
                0x000e7f64                cacheLock
                0x000a93d0                udp_ctlinput
                0x00104268                timexShow
                0x000ef428                close
                0x000dfca8                frexp
                0x0009fe8c                ip_freef
                0x00095c78                __addsf3
                0x00077780                streambuf::epptr(void) const
                0x0010c500                qCreate
                0x00140bc4                semQInit
                0x0014a5c4                tsfsUploadPathCreate
                0x0013aeb4                xdr_WDB_CTX
                0x0001228c                sysNvRamSet
                0x0006c1b8                basic_string<char, string_char_traits<char>, __default_alloc_template<true, 0> >::rfind(char, unsigned int) const
                0x0001a254                gtMemoryGetDeviceWidth
                0x00011c60                sysHwInit
                0x00080958                __eh_alloc
                0x0004507c                isPMC280DualCPU
                0x000846dc                operator delete [](void *, nothrow_t const &)
                0x000989b4                ipToEtherMCastMap
                0x00025a08                frcBootFlashFileV
                0x0003ef08                bandwidth
                0x000ec0f0                fioScanV
                0x00105644                taskIdFigure
                0x00034d54                StopStopwatch
                0x000bb820                rawLibInit
                0x00090568                _restvr21
                0x00024db0                bootFlashParamRead
                0x000aad54                m_devget
                0x00042834                frcTestEthLinkDetails
                0x000e4b64                mbtowc
                0x00086fcc                __dynamic_cast
                0x0006da5c                basic_string<char, string_char_traits<char>, __default_alloc_template<true, 0> >::operator=(char)
                0x00074728                ostream::opfx(void)
                0x000e3d2c                stdioFp
                0x000736ac                lock(istream &)
                0x0008f294                __ulltof
                0x00043df4                frcTestMV64360Semaphore
                0x0008f508                __diab_intrinsics_implInit
                0x0009433c                __pack_d
                0x00147fb8                windPendQTerminate
                0x000d2680                netMblkClJoin
                0x000ee9c8                hashTblInit
                0x000d8770                soo_ioctl
                0x0014b958                _dbgBrkDisplayHard
                0x00103580                shellScriptAbort
                0x0006dcf8                basic_string<char, string_char_traits<char>, __default_alloc_template<true, 0> >::insert(char *, char)
                0x000e4558                vfprintf
                0x00019de8                gtPci0ArbiterEnable
                0x000f28b4                memPartFree
                0x00135170                wdbRpcXportInit
                0x00074f14                istream::getline(unsigned char *, int, char)
                0x0008e264                _restgpr_27_l
                0x0009cbf4                netTypeInit
                0x000e63b0                strpbrk
                0x0006d2f4                basic_string<char, string_char_traits<char>, __default_alloc_template<true, 0> >::Rep::excess_slop(unsigned int, unsigned int)
                0x000b27f0                bsdConnectWithTimeout
                0x0008e2b8                _savegpr_17_l
                0x000ae400                sbwait
                0x000313c4                DoAssign
                0x0012fc44                xdr_int
                0x0007cfe0                _IO_switch_to_main_get_area
                0x000f5834                selNodeDelete
                0x00053ec8                frcTestRTCRead
                0x0006ffd8                cplusCallNewHandler(void)
                0x000f62e0                sigsuspend
                0x00059fdc                cplusCtorsLink
                0x000cbc1c                rtrequestAddEqui
                0x000f6d34                raise
                0x0001a0d8                gtMemoryGetBankSize
                0x000cb31c                routeNetAdd
                0x00145cf0                wdDelete
                0x000ae970                sbinsertoob
                0x00018fbc                gtPci0MapDevice0MemorySpace
                0x000efbbc                ioDefPathCat
                0x00131c44                clnt_sperrno
                0x0007df14                _IO_seekmark
                0x000f2ed0                free
                0x000b5d1c                ftpTransientConfigSet
                0x0014b6b8                cplusDtors
                0x000f81f8                symAlloc
                0x000cf214                udpLibInit
                0x0013c014                xdrCksum
                0x0012fe10                xdr_u_short
                0x0001e634                ethPortReset
                0x000f7e5c                symLibInit
                0x000f619c                sigprocmask
                0x000fc0b4                vmBasePageSizeGet
                0x0010d524                rngDelete
                0x00090338                _savefprs_20_l
                0x0013b1a0                xdr_WDB_EVT_INFO
                0x000a9fc0                pffindproto
                0x0008bcbc                vxMemProbe
                0x00145988                tickGet
                0x000ccd54                getsockname
                0x000be240                muxPollDevStat
                0x001440d0                taskPrioritySet
                0x00096800                _savev28
                0x000d0290                xdr_groups
                0x0006de18                basic_string<char, string_char_traits<char>, __default_alloc_template<true, 0> >::operator[](unsigned int)
 *(.text.*)
 *(.stub)
 *(.gnu.warning)
 *(.gnu.linkonce.t*)
 *(.init)
 *(.fini)
 *(.glue_7t)
 *(.glue_7)
 *(.rdata)
 *(.mips16.fn.*)
 *(.mips16.call.*)
 *(.reginfo)
 *(.rodata)
 *fill*         0x0014e624        0xc
 .rodata        0x0014e630    0x34c00 tmp.2
                0x0016ac90                __class_type_info virtual table
                0x0016a298                streambuf virtual table
                0x00169db0                range_error virtual table
                0x0016abf0                bad_alloc virtual table
                0x0016ad10                bad_cast virtual table
                0x0016aab0                bad_exception virtual table
                0x00169440                _sch_istable
                0x00169e30                invalid_argument virtual table
                0x0016a200                filebuf virtual table
                0x0016a078                iostream::ios virtual table
                0x0016abea                nothrow
                0x0016a0a8                ostream::ios virtual table
                0x00169d90                overflow_error virtual table
                0x0016800c                wdbToolName
                0x0016acf0                bad_typeid virtual table
                0x00169df0                out_of_range virtual table
                0x0016a048                _IO_ostream_withassign::ios virtual table
                0x0016acd0                __user_type_info virtual table
                0x00169e50                domain_error virtual table
                0x00169dd0                runtime_error virtual table
                0x00169d70                underflow_error virtual table
                0x00167810                rtMem
                0x0016acb0                __si_type_info virtual table
                0x0016a060                _IO_istream_withassign::ios virtual table
                0x00169640                _sch_tolower
                0x0016aad0                exception virtual table
                0x00169740                _sch_toupper
                0x00169f48                basic_string<char, string_char_traits<char>, __default_alloc_template<true, 0> >::npos
                0x00167814                bufferedRtShow
                0x00169e10                length_error virtual table
                0x0016a330                ios virtual table
                0x0016ad30                type_info virtual table
                0x001677c0                nfsMaxPath
                0x00172de8                copyright_wind_river
                0x0016a394                filebuf::openprot
                0x0016a090                istream::ios virtual table
                0x00169e70                logic_error virtual table
 .rodata        0x00183230    0x16c74 symTbl.o
 *(.rodata.*)
 *(.gnu.linkonce.r*)
 *(.rodata1)
 *(.sdata2)
 *(.sbss2)
 *fill*         0x00199ea4        0xc
                0x00199eb0                .=ALIGN(0x10)
                0x00199eb0                .=ALIGN(0x10)
                0x00199eb0                wrs_kernel_text_end=.
                0x00199eb0                _wrs_kernel_text_end=.
                0x00199eb0                etext=.
                0x00199eb0                _etext=.

.data           0x00199eb0    0x22760
                0x00199eb0                wrs_kernel_data_start=.
                0x00199eb0                _wrs_kernel_data_start=.
 *(.data)
 .data          0x00199eb0     0xebe4 tmp.2
                0x0019cfd0                ___x_gnu_genops_o
                0x001a3698                intCnt
                0x001a72d8                mutexOptionsTsfsDrv
                0x0019d124                cerr
                0x0019a31c                flash_write
                0x0019d5e4                _pSysBatInitFunc
                0x0019d5a8                fpCtlRegName
                0x001a6a1c                qPriListFromTailClassId
                0x0019cc1c                mClBlkConfig
                0x0019cdd0                sysCplusEnable
                0x001a3060                pTcpRandHook
                0x001a2db0                pTcpstates
                0x001a3708                memPartSemInitRtn
                0x0019c250                maxruns
                0x001a2310                ___x_diab_sfpfnorm_o
                0x001a362c                cacheLib
                0x001a6c24                yyv
                0x001a6c18                __loctime
                0x001a35ec                fppTaskRegsDFmt
                0x0019d5bc                _func_intConnectRtn
                0x001a28f8                rtNewAddrMsgHook
                0x0019cf16                ___x_gnu_filedoalloc_o
                0x0019cd80                __cplusStringObjs
                0x001a28fc                _pUdpPcbHead
                0x001a246e                ___x_gnu__muldi3_o
                0x001a33fc                __costate
                0x001a2ce8                nfsTimeoutUSec
                0x001a6acc                dosDirHdlrsList
                0x001a6a24                rBuffClassId
                0x001a34fc                cacheMmuAvailable
                0x001a2d90                portmapdPriority
                0x001a25a8                mCastHashTblSize
                0x0019c2c8                tbStart_lm
                0x001a230f                ___x_diab_sfpflltof_o
                0x001a2391                ___x_diab_sxpadd64_o
                0x001a28b0                mutexOptionsNetDrv
                0x001a371c                mutexOptionsSelectLib
                0x001a25b4                ip_defttl
                0x001a6c2c                lexNclasses
                0x001a30b4                tcpTraceRtn
                0x001a3730                symGroupDefault
                0x001a707c                cbioMutexSemOptions
                0x001a2638                udp_ttl
                0x0019b3b0                global_fstruct
                0x001a24f6                ___x_gnu__udiv_w_sdiv_o
                0x001a2644                udp_pcbhashsize
                0x001a2508                llinfo_arp
                0x001a30c8                __ctype
                0x001a2df0                tftpTaskPriority
                0x001a246f                ___x_gnu__negdi2_o
                0x001a2540                arpt_keep
                0x001a6a48                dcacheUpdTaskOptions
                0x001a30d0                __locale
                0x001a238f                ___x_diab_sxprem64_o
                0x0019c2a4                tests_1arg
                0x001a2456                ___x_gnu__ashrdi3_o
                0x0019ad34                bootrom_sramregfile
                0x001a3528                fieldSzIncludeSign
                0x0019cdf4                __cplusObjFiles
                0x001a2df4                tftpTaskOptions
                0x0019aca4                bibMallocRtn
                0x001a246d                ___x_gnu__moddi3_o
                0x001a2319                ___x_diab_sxpasr64_o
                0x001a2312                ___x_diab_wr_pk_db_o
                0x0019a328                FlashCmdS
                0x001a23a4                __rtc_alloc_ptr
                0x001a36b8                logTaskOptions
                0x001a24f8                ___x_gnu__udivmoddi4_o
                0x001a8a4c                trcScanDepth
                0x001a2301                ___x_diab_hfpfutof_o
                0x001a266c                _panicHook
                0x001a3700                memPartBlockErrorRtn
                0x001a6a8c                fat16Debug
                0x0019a1bc                preset_val
                0x0019c380                IntLatencyTotal
                0x001a2315                ___x_diab_wr_sw_db_o
                0x0019cffc                ___x_gnu_stdstrbufs_o
                0x0019d1e0                cachePpcReadOrigin
                0x001a7530                wvEvtBufferFullNotify
                0x0019d5cc                _func_intVecBaseGetRtn
                0x001a6a28                wvRBuffMgrId
                0x001a263c                udp_sendspace
                0x0019cf12                ___x_gnu_peekc_o
                0x0019cc8c                clDescTblNumEnt
                0x001a2548                arpRxmitTicks
                0x001a351c                excTaskOptions
                0x0019cef4                __malloc_alloc_template<0>::__malloc_alloc_oom_handler
                0x001a3b5c                spTaskOptions
                0x001a6b04                dosVDirDebug
                0x001a2395                ___x_diab_restfprs_o
                0x001a3030                _landAttackSafe
                0x0019cd54                sysAdaEnable
                0x001a2668                mutexOptionsUnixLib
                0x0019d050                _IO_stdout_
                0x001a2d78                rlogTaskOptions
                0x001a7534                __cplusLoad_o
                0x0019d1c8                ___x_gnu_frame_o
                0x001a35e8                fppTaskRegsCFmt
                0x001a2594                ether_ipmulticast_min
                0x0019d1a4                ___x_gnu_cleanup_o
                0x0019a12c                frcPciConfigWrite
                0x001a28e4                _igmpLeaveGrpHook
                0x001a2db4                tcpstates
                0x001a2469                ___x_gnu__floatdisf_o
                0x00199eb0                evtTimeStamp
                0x0019ceac                __default_alloc_template<true, 0>::_S_start_free
                0x001a7410                restartTaskStackSize
                0x0019d1b0                ___x_gnu__eh_o
                0x001a2300                ___x_diab_hfpfitof_o
                0x001a6a94                dosFsDrvNum
                0x0019c3b0                testInfo
                0x001a2464                ___x_gnu__fixunstfdi_o
                0x001a2466                ___x_gnu__fixunsxfsi_o
                0x001a8a44                taskMsrDefault
                0x001a24f9                ___x_gnu__umoddi3_o
                0x001a27a0                ftpdDebug
                0x001a375d                tyDeleteLineChar
                0x001a2f18                inetdomain
                0x001a2900                _pTcpPcbHead
                0x001a25c4                ip_nhops
                0x0019d0a0                _IO_stderr_
                0x001a36ec                smMemPartAllocRtn
                0x001a2309                ___x_diab_sfpddtoull_o
                0x001a36f8                memSysPartId
                0x001a2ed8                _pNetBufCollect
                0x001a3b64                ldCommonMatchAll
                0x0019cfd1                ___x_gnu_ioassign_o
                0x0019cd8c                __cplusLibgccObjs
                0x0019a140                pciDebug
                0x0019a120                pciConfigMech
                0x001a24f7                ___x_gnu__udivdi3_o
                0x001a273c                bsdSock43ApiFlag
                0x001a36b0                logTaskId
                0x001a3028                rip_recvspace
                0x001a2399                ___x_diab_restgprx_o
                0x001a28dc                netLibGenInitialized
                0x0019cf11                ___x_gnu_outfloat_o
                0x0019d1c0                ___x_gnu_exception_o
                0x001a3040                tcp_outflags
                0x0019a188                gtInternalRegBaseAddr
                0x0019d1dc                _func_altivecProbeRtn
                0x001a2790                ftplPasvModeDisable
                0x0019cde8                runtimeVersion
                0x0019cea4                ___x_gnu_stlinst_o
                0x001a2467                ___x_gnu__fixxfdi_o
                0x0019a064                sysCpu
                0x001a238c                ___x_diab_sxpdiv32_o
                0x0019a06c                sysExcMsg
                0x001a28a8                muxMaxBinds
                0x0019d200                _pSysL3CacheInvalEnableFunc
                0x001a2f54                icmpmaskrepl
                0x001a7360                semTakeTbl
                0x0019a138                noofgeidevices
                0x0019ca48                stdlibFiles
                0x001a36a8                iosFdNewHookRtn
                0x001a28d0                _protoSwIndex
                0x001a27a8                ftpdTaskOptions
                0x001a3520                excTaskStackSize
                0x0019d4a0                fpRegName
                0x001a2314                ___x_diab_wr_pk_ld_o
                0x001a2468                ___x_gnu__floatdidf_o
                0x001a28a0                muxBibLock
                0x0019acac                frcBibShowRtn
                0x0019cce0                sysClDescTblNumEnt
                0x0019a134                nooffeidevices
                0x0019b308                paramnames
                0x001a2465                ___x_gnu__fixunsxfdi_o
                0x001a72e0                wdbTsfsDefaultDirPerm
                0x0019c914                assertFiles
                0x001a7400                taskClassId
                0x001a28d8                _mCastRouteFwdHook
                0x001a2cec                nfsReXmitSec
                0x001a230c                ___x_diab_sfpdulltod_o
                0x0019a33c                protectBIB
                0x001a2307                ___x_diab_rd_sw_ld_o
                0x0019ceb4                __default_alloc_template<true, 0>::_S_free_list
                0x0019d5d8                _func_intDisableRtn
                0x0019a068                sysBootLine
                0x0019c94c                localeFiles
                0x001a23b5                ___x_diab_libg_o
                0x001a6c20                yys
                0x001a37a4                _func_dbgTargetNotify
                0x0019d74c                _func_vxMemProbeHook
                0x001a7404                namelessPrefix
                0x0019c174                wordcatarray
                0x001a2304                ___x_diab_rd_pk_ld_o
                0x0019c9ac                stdioFiles
                0x001a253c                arpt_prune
                0x0019d1f0                _pSysL2CacheEnable
                0x001a265c                sowakeupHook
                0x0019d5c8                _func_intVecBaseSetRtn
                0x001a2544                arpt_down
                0x0019d5e0                mmuPpcDEnabled
                0x001a753c                __cplusUsr_o
                0x001a230d                ___x_diab_sfpfftoll_o
                0x001a2460                ___x_gnu__fixunsdfdi_o
                0x001a2454                ___x_gnu___gcc_bcmp_o
                0x001a238e                ___x_diab_sxpdiv64_o
                0x0019ce14                cplusDemanglerMode
                0x0019cf0f                ___x_gnu_isgetline_o
                0x001a25bc                ipStrongEnded
                0x001a2d58                _pingTxTmo
                0x001a2d6c                rlogShellName
                0x001a2474                __shtab
                0x0019c8ec                frcTestWdInitConnect
                0x0019d1d1                ___x_gnu_opdel_o
                0x001a385c                shellTaskOptions
                0x0019acf4                bootrom_pciregfile
                0x001a28f4                rtIfaceMsgHook
                0x001a6a98                dosFsDebug
                0x001a7538                __cplusLoadObjFiles
                0x001a27bc                ftpsMaxClients
                0x0019a324                flashBlocks
                0x0019d14c                cin
                0x0019cf18                ___x_gnu_fileops_o
                0x001a7540                _archHelp_msg
                0x0019c244                maxMove
                0x0019d17c                clog
                0x0019b2b8                lx_bindex
                0x0019c378                mpp24Initialized
                0x0019ce04                __cplusXtors_o
                0x001a2396                ___x_diab_savefprs_o
                0x001a375e                tyEofChar
                0x0019d5c4                _func_intVecGetRtn
                0x001a3070                tcp_keepinit
                0x001a2534                useloopback
                0x0019a338                protectMAC
                0x0019caa4                stringFiles
                0x001a7308                _func_breakpoint
                0x001a246b                ___x_gnu__floatdixf_o
                0x001a2cdc                mutexOptionsNfsDrv
                0x0019a250                am29TopOffset
                0x0019cea8                __default_alloc_template<true, 0>::_S_end_free
                0x0019b23c                ftestnames
                0x0019a320                flash_read
                0x001a74e4                wdInstClassId
                0x001a28ec                _mCastRouteCmdHook
                0x001a2306                ___x_diab_rd_sw_fl_o
                0x001a73c0                semFlushDeferTbl
                0x0019c370                netWorkInitStatus
                0x0019a2e8                id
                0x0019cc2c                clDescTbl
                0x001a2f44                icmpmask
                0x0019c8d8                watchdogFlag
                0x001a2305                ___x_diab_rd_sw_db_o
                0x001a24f4                ___x_gnu__trampoline_o
                0x001a3034                tcprexmtthresh
                0x001a3734                syncSymAddRtn
                0x001a246a                ___x_gnu__floatditf_o
                0x001a288c                _presolvHostLibGetByName
                0x001a28c0                netTaskPriority
                0x0019c37c                ioTemp
                0x001a7414                restartTaskOptions
                0x001a3038                tcp_last_inpcb
                0x001a2cf4                nfsSockBufSize
                0x001a2d98                portmapdStackSize
                0x0019cfd6                ___x_gnu_ioseekpos_o
                0x001a2398                ___x_diab_savefprx_o
                0x001a695c                qFifoClassId
                0x0019cdf0                creationDate
                0x001a24fa                ___x_gnu_dp_bit_o
                0x0019d1ec                _pSysL2CacheInvFunc
                0x001a246c                ___x_gnu__lshrdi3_o
                0x0019d1b4                __terminate_func
                0x001a3760                mutexOptionsTyLib
                0x001a3738                syncSymRemoveRtn
                0x0019d1d9                ___x_gnu_tinfo_o
                0x001a36bc                logTaskStackSize
                0x001a245d                ___x_gnu__fixdfdi_o
                0x001a2888                hostInitFlag
                0x0019cca0                sysClDescTbl
                0x001a3860                shellTaskStackSize
                0x0019ce1c                current_demangling_style
                0x001a28c8                netTaskStackSize
                0x001a2cf0                nfsReXmitUSec
                0x001a3694                hashClassId
                0x001a239c                ___x_diab_va_arg_o
                0x001a2316                ___x_diab_wr_sw_fl_o
                0x001a3864                shellHistSize
                0x001a245e                ___x_gnu__fixsfdi_o
                0x0019cea2                ___x_gnu_cmathi_o
                0x0019d000                _IO_stdin_
                0x001a3788                mutexOptionsVmBaseLib
                0x001a23b0                __rta_longjmp
                0x001a67a4                dosFsCacheSizeDefault
                0x0019ce10                __cplusDem_o
                0x0019cfac                ___x_gnu_floatconv_o
                0x001a2740                bsdSockFunc
                0x0019c374                mpp18Initialized
                0x001a2d7c                rlogTaskStackSize
                0x001a2461                ___x_gnu__fixunsdfsi_o
                0x001a34f8                cacheDataEnabled
                0x001a279c                _func_ftpTransientFatal
                0x001a2520                arpintrq
                0x001a2dec                tftpReXmit
                0x001a3824                moduleClassId
                0x001a6a18                qPriListClassId
                0x0019cbfc                udpCfgParams
                0x001a2393                ___x_diab_restfreg_o
                0x001a2392                ___x_diab_sxpcmp64_o
                0x001a2459                ___x_gnu__cmpdi2_o
                0x0019cf14                ___x_gnu_streambuf_o
                0x0019cef8                ___x_gnu_cstrmain_o
                0x0019c3a8                intConnectSoft
                0x001a27a4                ftpdTaskPriority
                0x0019cce8                usrNetIfTbl
                0x001a2f04                _pNetPoolFuncTbl
                0x001a6794                statTblSize
                0x001a3068                tcp_keepintvl
                0x001a7520                wvUploadTaskStackSize
                0x0019cea1                ___x_gnu_cstdlibi_o
                0x0019d5c0                _func_intVecSetRtn
                0x001a28ac                _func_fileDoesNotExist
                0x0019d1d6                ___x_gnu_opvdelnt_o
                0x001a7340                semGiveTbl
                0x001a72dc                binaryOptionsTsfsDrv
                0x0019cf15                ___x_gnu_filebuf_o
                0x001a2660                sb_max
                0x001a36d8                mutexOptionsMemLib
                0x001a3024                rip_sendspace
                0x001a36ac                iosFdFreeHookRtn
                0x0019b3d8                funcpointer
                0x001a28a4                muxTkDebug
                0x001a74e0                wdClassId
                0x0019cefc                basic_string<char, string_char_traits<char>, __default_alloc_template<true, 0> >::nilRep
                0x0019a318                debug_flash_width
                0x001a2d54                _pingTxInterval
                0x001a2de0                tftpVerbose
                0x0019c8e4                wdgCnt
                0x001a305c                tcp_pcbhashsize
                0x0019c3ac                intConnectHard
                0x001a23a0                ___x_diab_rtahooks_o
                0x001a2ce4                nfsTimeoutSec
                0x0019a124                pciMaxBus
                0x001a7424                pTaskLastAltivecTcb
                0x001a7334                msgQInstClassId
                0x001a2455                ___x_gnu__ashldi3_o
                0x0019a340                protectPCI
                0x001a36fc                memDefaultAlignment
                0x001a36f0                memPartClassId
                0x001a2313                ___x_diab_wr_pk_fl_o
                0x001a25dc                inetctlerrmap
                0x0019cde0                buffer
                0x001a6a34                dcacheUpdTaskStack
                0x001a34ec                cacheDmaMallocRtn
                0x0019cde4                runtimeName
                0x001a7418                taskPriRangeCheck
                0x001a239b                ___x_diab_svrs_vpr_o
                0x001a740c                restartTaskPriority
                0x0019d1f8                _pSysL2CacheDisable
                0x001a3054                tcp_rttdflt
                0x001a7338                semClassId
                0x0019d5dc                mmuPpcIEnabled
                0x001a7428                taskInstClassId
                0x001a24fb                ___x_gnu_fp_bit_o
                0x001a25b0                proxyBroadcastHook
                0x001a3b60                spTaskStackSize
                0x001a28cc                netLibInitialized
                0x0019b1cc                non_monarchregfile
                0x001a36b4                logTaskPriority
                0x001a378c                mmuPhysAddrShift
                0x0019d204                _pSysL3CacheFlushDisableFunc
                0x0019b268                bindex
                0x0019c398                tbTempHi
                0x001a30b8                tcpReportRtn
                0x0019b234                compilername
                0x0019cd3c                wdbNumMemRegions
                0x001a3518                excTaskPriority
                0x001a2648                _pNetDpool
                0x001a2794                ftplTransientMaxRetryCount
                0x001a264c                _pNetSysPool
                0x0019ce0c                linkedCtorsInitialized
                0x001a372c                mutexOptionsSymLib
                0x001a3704                memPartAllocErrorRtn
                0x0019cc0c                ipCfgParams
                0x0019cea0                ___x_gnu_stdexcepti_o
                0x001a2de8                tftpTimeout
                0x0019cc90                sysMclBlkConfig
                0x0019c8f4                usrExtraModules
                0x0019a190                internalSramTopAddr
                0x001a2640                udp_recvspace
                0x001a8a48                trcDefaultArgs
                0x0019b230                sysname
                0x0019a330                FlashCmdE
                0x001a34f4                cacheDataMode
                0x001a6a90                fatClugFac
                0x0019a18c                nextFreeBlkPtr
                0x0019c318                sysTimestampResetRtn
                0x001a28f0                rtMissMsgHook
                0x0019cfd8                ___x_gnu_iovfscanf_o
                0x001a2d68                remStdErrSetupTimeout
                0x001a28e0                _igmpJoinGrpHook
                0x0019d5d0                _func_intLevelSetRtn
                0x001a699c                qPriBMapClassId
                0x0019ce08                cplusXtorStrategy
                0x001a3074                tcp_maxpersistidle
                0x001a3784                currentContext
                0x0019cf13                ___x_gnu_sbscan_o
                0x001a36f4                memPartInstClassId
                0x0019d430                fpExcMsgTbl
                0x0019d208                _func_excTrapRtn
                0x0019a310                num_flash_dev
                0x001a2904                _pTcpPcbPrint
                0x001a3660                cacheNullFuncs
                0x001a3604                evtAction
                0x0019c170                inpath
                0x001a6cb4                lexStateTable
                0x001a23ac                __rtc_blkinfo_ptr
                0x001a88bc                _sigfaulttable
                0x001a2d70                rlogTermType
                0x001a2d74                rlogTaskPriority
                0x0019cd70                __cplusStlObjs
                0x0019d748                vxPowMgtEnable
                0x001a2302                ___x_diab_rd_pk_db_o
                0x0019d0f4                ___x_gnu_stdstreams_o
                0x001a3728                symTblClassId
                0x001a6a2c                dcacheUpdTaskId
                0x0019d1d8                ___x_gnu_opvnewnt_o
                0x001a2311                ___x_diab_sfpfulltof_o
                0x001a2463                ___x_gnu__fixunssfsi_o
                0x0019ceb0                __default_alloc_template<true, 0>::_S_heap_size
                0x00199eb4                sysBatDesc
                0x001a3050                tcp_mssdflt
                0x001a36e4                smMemPartAddToPoolRtn
                0x001a35fc                m2If64BitCounters
                0x001a2390                ___x_diab_sxpmul64_o
                0x0019ce28                libiberty_demanglers
                0x0019c240                minMove
                0x001a35f8                fastUdpInitialized
                0x001a306c                tcp_keepcnt
                0x001a3600                _procNumWasSet
                0x001a6a88                dosDirOldDebug
                0x001a251c                arpinit_done
                0x0019cfd5                ___x_gnu_ioseekoff_o
                0x001a375c                tyBackspaceChar
                0x001a25b8                ipfragttl
                0x001a7524                wvUploadTaskOptions
                0x0019cfd3                ___x_gnu_iopadn_o
                0x0019cb88                endDevTbl
                0x0019c8dc                watchdogAppId
                0x001a245f                ___x_gnu__fixtfdi_o
                0x001a74f8                semEvIsFreeTbl
                0x001a27b8                ftpdWindowSize
                0x0019a29c                am29BotOffset
                0x001a7330                msgQClassId
                0x001a27b0                ftpdWorkTaskOptions
                0x001a2303                ___x_diab_rd_pk_fl_o
                0x001a2620                udpDoCkSumRcv
                0x0019cc08                icmpCfgParams
                0x0019acb4                bootrom_userflregfile
                0x001a2624                udp_in
                0x001a239d                ___x_diab_torn_syncatomic_o
                0x0019cb00                __AltiVec_runtime
                0x001a261c                udpcksum
                0x001a30c0                tcp_sendspace
                0x0019aca8                bibFreeRtn
                0x001a3754                symLkupPgSz
                0x001a239f                ___x_diab_torn_syncsem_o
                0x0019cb64                timeFiles
                0x001a34f0                cacheDmaFreeRtn
                0x0019c254                run
                0x0019c954                mathFiles
                0x001a7310                _func_wdbIsNowExternal
                0x0019d1da                ___x_gnu_tinfo2_o
                0x001a2de4                tftpTrace
                0x001a3680                cacheUserFuncs
                0x0019d1d3                ___x_gnu_opnew_o
                0x001a245a                ___x_gnu__divdi3_o
                0x001a3b54                syncUnldRtn
                0x0019c25c                tests_noarg
                0x0019c390                IntTimeBaseEnd
                0x001a2457                ___x_gnu__bb_o
                0x0019cf1c                _IO_file_jumps
                0x001a3d94                statTbl
                0x001a7078                cbioClassId
                0x0019d1d4                ___x_gnu_opnewnt_o
                0x001a7408                restartTaskName
                0x001a3670                cacheDmaFuncs
                0x001a24fc                ___x_gnu_vrsave_o
                0x0019c8e0                wdgService
                0x001a24f5                ___x_gnu__ucmpdi2_o
                0x001a36c4                logFdFromRlogin
                0x0019a1d4                bspEndIntConnect
                0x001a2da4                pSockFdMap
                0x0019cd78                __cplusStringIoObjs
                0x001a2890                _presolvHostLibGetByAddr
                0x0019cbd0                tcpCfgParams
                0x001a7528                wvUploadMaxAttempts
                0x001a258c                etherbroadcastaddr
                0x0019cfd4                ___x_gnu_ioputc_o
                0x001a28e8                _ipFilterHook
                0x001a72fc                wdbGopherLock
                0x001a2634                udp_last_inpcb
                0x0019cddc                frc_end_of_vxworks
                0x0019bef0                out_pats
                0x001a27ac                ftpdWorkTaskPriority
                0x001a36e8                smMemPartFreeRtn
                0x0019d1f4                _pSysL2CacheFlush
                0x0019cce4                ipMaxUnits
                0x001a73a0                semGiveDeferTbl
                0x001a2458                ___x_gnu__clear_cache_o
                0x001a3058                tcp_do_rfc1323
                0x001a2470                ___x_gnu__shtab_o
                0x001a25c0                ipqmaxlen
                0x00199f34                sysPhysMemDesc
                0x001a7380                semFlushTbl
                0x001a6afc                dosFsChkRtn
                0x0019c248                tbStart
                0x001a30b0                tcp_totbackoff
                0x0019d1d7                ___x_gnu_opvnew_o
                0x001a2317                ___x_diab_wr_sw_ld_o
                0x0019cf0e                ___x_gnu_iostream_o
                0x001a2d64                remLastResvPort
                0x0019cd58                __includeGnuIntrinsics
                0x0019d1e8                cacheDToEnable
                0x001a36c0                mutexOptionsLogLib
                0x001a23b4                ___x_diab_comljmp_o
                0x001a6b00                dosFsVolFormatRtn
                0x001a36a4                iosLibInitialized
                0x0019c8e8                wdgNMICnt
                0x001a3810                loadRoutine
                0x001a3064                tcp_keepidle
                0x001a7320                activeQHead
                0x001a72ec                wdbOneShot
                0x0019cf0c                ___x_gnu_cstrio_o
                0x001a2d50                _pingTxLen
                0x001a28d4                _icmpErrorHook
                0x001a751c                wvUploadTaskPriority
                0x001a231a                ___x_diab_sxplsr64_o
                0x001a6a84                dosChkMinDate
                0x0019d1d0                ___x_gnu_new_o
                0x001a33c8                _Randseed
                0x0019cd60                __includeDiabIntrinsics
                0x001a7438                taskRegsFmt
                0x0019a1dc                bspEndIntEnable
                0x0019b400                in_pats
                0x0019d1d2                ___x_gnu_opdelnt_o
                0x001a2298                __saverest_o
                0x001a3854                shellTaskName
                0x0019d1e4                cacheIToEnable
                0x001a752c                wvUploadRetryBackoff
                0x001a2ce0                nfsMaxMsgLen
                0x0019d1a8                _IO_cleanup_registration_needed
                0x001a238d                ___x_diab_sxprem32_o
                0x0019c24c                totalerrors
                0x001a245b                ___x_gnu__eprintf_o
                0x001a2894                mutexOptionsHostLib
                0x0019cfd2                ___x_gnu_iogetline_o
                0x001a230a                ___x_diab_sfpdlltod_o
                0x0019c3a0                tbTempLo
                0x001a230b                ___x_diab_sfpdnorm_o
                0x001a2397                ___x_diab_restfprx_o
                0x0019a060                sysBus
                0x001a36a0                mutexOptionsIosLib
                0x0019a1e0                bspEndIntDisable
                0x0019c918                ctypeFiles
                0x0019d1ad                ___x_gnu___dummy_o
                0x001a369c                ioMaxLinkLevels
                0x0019c8f0                frcTestWdInitDisconnect
                0x001a2884                hostListSem
                0x0019c258                runerrors
                0x001a33c0                fpClassId
                0x001a3608                vmLibInfo
                0x0019a0f4                reginittab
                0x001a239a                ___x_diab_savegprx_o
                0x001a35f4                ftplDebug
                0x001a2d94                portmapdOptions
                0x001a72d4                wdbEndDebug
                0x001a3858                shellTaskPriority
                0x001a260c                rtmodified
                0x001a8a90                qJobClassId
                0x001a28bc                netTaskSemId
                0x0019c388                IntTimeBaseSt
                0x0019d20c                excExtendedVectors
                0x001a239e                ___x_diab_torn_syncmutex_o
                0x0019d1ac                ___x_gnu_ioungetc_o
                0x0019cdec                vxWorksVersion
                0x001a2538                arp_maxtries
                0x001a741c                pTaskLastFpTcb
                0x001a25cc                input_ipaddr
                0x0019a11c                pciLibInitStatus
                0x001a7518                fileUpPathDefaultPerm
                0x001a3710                pipeMsgQOptions
                0x001a28c4                netTaskOptions
                0x001a2394                ___x_diab_savefreg_o
                0x001a3814                syncLoadRtn
                0x001a2462                ___x_gnu__fixunssfdi_o
                0x001a230e                ___x_diab_sfpfftoull_o
                0x001a890c                taskRegName
                0x001a307c                tcp_backoff
                0x001a35f0                _dbgDsmInstRtn
                0x001a259c                ether_ipmulticast_max
                0x0019cd38                wdbCommMtu
                0x001a2318                ___x_diab_sxplsl64_o
                0x0019cd40                pWdbMemRegions
                0x0019d0f0                _IO_list_all
                0x001a733c                semInstClassId
                0x0019ce18                cplusDemangleFunc
                0x001a23a8                __rtc_free_ptr
                0x0019b238                compilerversion
                0x0019cf10                ___x_gnu_isscan_o
                0x001a30c4                tcp_recvspace
                0x001a2df8                tftpTaskStackSize
                0x001a3500                classClassId
                0x001a25a4                subnetsarelocal
                0x001a3b58                spTaskPriority
                0x001a370c                memPartOptionsDefault
                0x0019d5d4                _func_intEnableRtn
                0x0019d0fc                cout
                0x0019a070                sysProcNum
                0x0019a128                frcPciConfigRead
                0x001a6c30                lexClass
                0x001a37a0                _func_dbgHostNotify
                0x001a6a9c                dosFatHdlrsList
                0x001a3104                __clocale
                0x001a27b4                ftpdWorkTaskStackSize
                0x001a254c                proxyArpHook
                0x0019a130                pciConfigSpcl
                0x0019cf0d                ___x_gnu_iogetc_o
                0x001a7420                pTaskLastDspTcb
                0x0019d1d5                ___x_gnu_opvdel_o
                0x0019a314                flash_width
                0x001a278c                etherMultiDebug
                0x0019a1d8                bspEndIntDisconnect
                0x001a6a30                dcacheUpdTaskPriority
                0x001a2308                ___x_diab_sfpddtoll_o
                0x001a2798                ftplTransientRetryInterval
                0x001a730c                _func_trace
                0x001a245c                ___x_gnu(float, float, short, double, int, _o)
                0x0019b164                monarchregfile
                0x0019d1fc                snoopEnable
                0x001a6a80                dosChkDebug
 .data          0x001a8a94    0x13b44 symTbl.o
                0x001bc5d4                standTblSize
                0x001a8a94                standTbl
 .data          0x001bc5d8       0x20 ctdt.o
                0x001bc5e8                _dtors
                0x001bc5d8                _ctors
 *(.data.*)
 *(.gnu.linkonce.d*)
 *(.data1)
 *(.eh_frame)
 *(.gcc_except_table)
 *crtbegin.o(.ctors)
 EXCLUDE_FILE ( *crtend.o)*(.ctors)
 .ctors         0x001bc5f8        0xc tmp.2
 *(SORT(.ctors.*))
 *(.ctors)
 *crtbegin.o(.dtors)
 EXCLUDE_FILE ( *crtend.o)*(.dtors)
 .dtors         0x001bc604        0xc tmp.2
 *(SORT(.dtors.*))
 *(.dtors)
                0x001c4600                _gp=(ALIGN(0x10)+0x7ff0)
 *(.got.plt)
 *(.got)
 *(.dynamic)
 *(.got2)
 *(.sdata)
 *(.sdata.*)
 *(.lit8)
 *(.lit4)
                0x001bc610                .=ALIGN(0x10)
                0x001bc610                .=ALIGN(0x10)
                0x001bc610                edata=.
                0x001bc610                _edata=.
                0x001bc610                wrs_kernel_data_end=.
                0x001bc610                _wrs_kernel_data_end=.

.bss            0x001bc610    0x70290
                0x001bc610                wrs_kernel_bss_start=.
                0x001bc610                _wrs_kernel_bss_start=.
 *(.sbss)
 *(.scommon)
 *(.dynbss)
 *(.bss)
 .bss           0x001bc610     0x8270 tmp.2
                0x001c1af8                __cplusStr_o
                0x001c1c9c                signed char type_info node
                0x001c1bd4                io_defs__
                0x001c1c4c                char type_info node
                0x001c1bd8                fd
                0x001c1c6c                float type_info node
                0x001c1c7c                unsigned long type_info node
                0x001c1c84                unsigned long long type_info node
                0x001c1c44                bool type_info node
                0x001c1c18                __new_handler
                0x001c1c3c                short type_info node
                0x001c1bc8                __default_alloc_template<true, 0>::_S_node_allocator_lock
                0x001c1c64                double type_info node
                0x001c1c10                nullObject
                0x001c1bcc                cplusNewHdlMutex
                0x001c1c34                int type_info node
                0x001c1c74                unsigned int type_info node
                0x001c1c94                unsigned char type_info node
                0x001c1c8c                unsigned short type_info node
                0x001c1c2c                long type_info node
                0x001c1c54                wchar_t type_info node
                0x001c1bd0                __cplusCore_o
                0x001c1c24                long long type_info node
                0x001c1c1c                void type_info node
                0x001c1c5c                long double type_info node
 *(COMMON)
 COMMON         0x001c4880    0x68020 tmp.2
                                  0x0 (size before relaxing)
                0x001c4880                _func_smObjObjShow
                0x001c4884                taskSwitchTable
                0x001c48c8                inetsw
                0x001c4c08                msgQDistShowRtn
                0x001c4c0c                _func_evtLogT1_noTS
                0x001c4c10                __func_type_info type_info node
                0x001c4c1c                mCastHashInfo
                0x001c4c24                ifnet
                0x001c4c28                _func_spyStop
                0x001c4c2c                rlogindSocket
                0x001c4c30                workQWriteIx
                0x001c4c34                bad_alloc type_info node
                0x001c4c40                _func_excInfoShow
                0x001c4c44                filebuf type_info node
                0x001c4c50                ip_id
                0x001c4c54                _func_evtLogReserveTaskName
                0x001c4c58                dbgLockUnbreakable
                0x001c4c5c                drvTable
                0x001c4c60                ip_protox
                0x001c4d60                DCACHE_CTRL
                0x001c4de0                global_emfloatstruct
                0x001c4df8                zeroin_addr
                0x001c4dfc                __attr_type_info type_info node
                0x001c4e08                _func_trgCheck
                0x001c4e0c                frcSysBoardId
                0x001c4e10                pWvNetEventMap
                0x001c4e14                pAltivecRegSetObj
                0x001c4e18                workQReadIx
                0x001c4e1c                use_result_dummy
                0x001c4e20                fppDisplayHookRtn
                0x001c4e24                cbioClass
                0x001c4e58                ioDefPath
                0x001c4f58                _func_taskCreateHookAdd
                0x001c4f5c                somaxconn
                0x001c4f60                _func_dspRegsListHook
                0x001c4f64                _func_tmrConnect
                0x001c4f68                max_protohdr
                0x001c4f6c                _func_evtLogTSched
                0x001c4f70                tcpstat
                0x001c5040                vxIntStackBase
                0x001c5044                _func_dspTaskRegsShow
                0x001c5048                workQIsEmpty
                0x001c504c                arp_allocated
                0x001c5050                trgEvtClass
                0x001c5054                _func_selPtyDelete
                0x001c5058                wvDefaultBufOptions
                0x001c505c                mmuLibFuncs
                0x001c5084                redirOutFd
                0x001c5088                taskSwapTable
                0x001c50cc                _func_evtLogO
                0x001c50d0                pEndPktDev
                0x001c50d4                _func_selWakeupListInit
                0x001c50d8                _wdbTaskBpBreakpoint
                0x001c50dc                global_ofile_name
                0x001c5118                rttrash
                0x001c511c                _wdbTaskCont
                0x001c5120                semMGiveKernWork
                0x001c5124                _IO_ostream_withassign type_info node
                0x001c5134                ftpsCurrentClients
                0x001c5138                wvLogHeader
                0x001c513c                trgCnt
                0x001c5140                errno
                0x001c5144                mmuStateTransArraySize
                0x001c5148                pIntf
                0x001c514c                _func_ioTaskStdSet
                0x001c5150                _func_excIntHook
                0x001c5154                logic_error type_info node
                0x001c5160                _func_selPtyAdd
                0x001c5168                tot_out_error
                0x001c51b8                kernelState
                0x001c51bc                _func_evtLogM1
                0x001c51c0                _ios_fields type_info node
                0x001c51c8                yyerrflag
                0x001c51cc                _func_sigExcKill
                0x001c51d0                _func_wvNetPortFilterTest
                0x001c51d8                average_error
                0x001c51e0                streambuf type_info node
                0x001c51ec                bad_typeid type_info node
                0x001c51f8                pciConfigAddr2
                0x001c51fc                _func_bdall
                0x001c5200                lockKey
                0x001c5204                hostList
                0x001c5210                tickQHead
                0x001c5220                rBuffClass
                0x001c5254                length_error type_info node
                0x001c5260                global_ofile
                0x001c5264                __wdbEvtptDeleteAll
                0x001c5268                overflow_error type_info node
                0x001c5278                mid_wt_cum_change
                0x001c5b38                _func_symNameGet
                0x001c5b3c                tcbinfo
                0x001c5b4c                _func_logMsg
                0x001c5b50                mid_error
                0x001c5b90                tcpOutRsts
                0x001c5b94                _func_tmrFreq
                0x001c5b98                ios type_info node
                0x001c5ba4                excMsgQId
                0x001c5ba8                _clockRealtime
                0x001c5bb8                global_lustruct
                0x001c5bd0                _func_tmrEnable
                0x001c5bd4                wvDefaultRBuffParams
                0x001c5bf0                LUtempvv
                0x001c5bf4                flash_index
                0x001c5bf8                _igmpQuerierTimeUpdateHook
                0x001c5bfc                numpats
                0x001c5c00                bpFreeList
                0x001c5c08                msgQDistNumMsgsRtn
                0x001c5c0c                sysFlags
                0x001c5c10                _func_excPanicHook
                0x001c5c14                _func_spy
                0x001c5c18                bad_cast type_info node
                0x001c5c28                avg_out_error
                0x001c5c78                _func_fastUdpInput
                0x001c5c7c                _func_remCurIdGet
                0x001c5c80                rlogindId
                0x001c5c84                _func_ipsecFilterHook
                0x001c5c88                _igmpLeaveAlertHook
                0x001c5c8c                consoleName
                0x001c5ca0                smObjTcbFreeFailRtn
                0x001c5ca4                taskBpHook
                0x001c5ca8                sigEvtRtn
                0x001c5cac                _func_ipsecOutput
                0x001c5cb0                _m2IfTableUpdate
                0x001c5cb4                _func_selTyDelete
                0x001c5cb8                _wdbTaskStep
                0x001c5cbc                _func_pthread_setcanceltype
                0x001c5cc0                _func_evtLogT0
                0x001c5cc4                in_ifaddr
                0x001c5cc8                max_hdr
                0x001c5ccc                smMemPartShowRtn
                0x001c5cd0                _func_sseTaskRegsShow
                0x001c5cd4                busIoMemRanges
                0x001c5e14                arpMaxEntries
                0x001c5e18                dbgPrintFpp
                0x001c5e20                worst_error
                0x001c5e28                _func_tmrStampLock
                0x001c5e2c                taskDeleteTable
                0x001c5e70                rt_tables
                0x001c5edc                ipstat
                0x001c5f3c                _func_valloc
                0x001c5f40                global_numsortstruct
                0x001c5f58                s1
                0x001c5f5c                pciConfigAddr0
                0x001c5f60                ledId
                0x001c5f68                global_bitopstruct
                0x001c5f80                istream type_info node
                0x001c5f90                _igmpMessageHook
                0x001c5f94                wvDefaultBufSize
                0x001c5f98                hourr
                0x001c5f9c                runtime_error type_info node
                0x001c5fa8                dbgUnbreakableOld
                0x001c5fac                max_linkhdr
                0x001c5fb0                _func_evtLogM3
                0x001c5fb4                loif
                0x001c6048                _func_fastUdpErrorNotify
                0x001c604c                consoleFd
                0x001c6050                fppCreateHookRtn
                0x001c6054                _func_evtLogPoint
                0x001c6058                uflashBuf
                0x00206078                msgQSmShowRtn
                0x0020607c                _func_symValueGet
                0x00206080                _func_spyClkStart
                0x00206084                _func_excBaseHook
                0x00206088                _func_tmrPeriod
                0x0020608c                dbgSafeUnbreakable
                0x00206090                __ptmf_type_info type_info node
                0x0020609c                rlogInTaskId
                0x002060a0                rBuffShowRtn
                0x002060a4                dayr
                0x002060a8                secr
                0x002060ac                _func_altivecProbe
                0x002060b0                yynerrs
                0x002060b4                pWdbRtIf
                0x002060b8                learned
                0x002060bc                wdbTaskId
                0x002060c0                __array_type_info type_info node
                0x002060cc                _func_tmrStamp
                0x002060d0                monr
                0x002060d4                msgQSmInfoGetRtn
                0x002060d8                sysBootParams
                0x0020638c                _func_ftpLs
                0x00206390                iteration_count
                0x00206394                sysBootFile
                0x00206434                tcp_maxidle
                0x00206438                wvDefaultBufMax
                0x0020643c                pmPartId
                0x00206440                mmuPageBlockSize
                0x00206444                sysPhysMemDescNumEnt
                0x00206448                wvInstIsOn
                0x0020644c                _IO_FILE type_info node
                0x00206458                yyval
                0x00206468                mid_wt_change
                0x00206d28                semClass
                0x00206d5c                wvUpTaskId
                0x00206d60                semInstClass
                0x00206d94                smObjTaskDeleteFailRtn
                0x00206d98                type_info type_info node
                0x00206da0                _func_evtLogM2
                0x00206da4                pJobPool
                0x002071a4                numpasses
                0x002071a8                tcp_alpha
                0x002071ac                udpstat
                0x002071d4                rlogChildTaskId
                0x002071d8                mask_rnhead
                0x002071dc                _func_evtLogT0_noInt
                0x002071e0                _func_spyReport
                0x002071e4                msgQDistInfoGetRtn
                0x002071e8                _func_selTyAdd
                0x002071ec                _igmpJoinAlertHook
                0x002071f0                _func_fclose
                0x002071f4                sysSymTbl
                0x002071f8                mem_array
                0x00207298                evtBufferId
                0x0020729c                yytmp
                0x002072a0                vxAbsTicks
                0x002072a8                in_interfaces
                0x002072ac                ppGlobalEnviron
                0x002072b0                msgQSmReceiveRtn
                0x002072b4                smObjTcbFreeRtn
                0x002072b8                _m2SetIfLastChange
                0x002072c0                mid_out
                0x00207300                smMemPartOptionsSetRtn
                0x00207304                _func_spyClkStop
                0x00207308                redirInFd
                0x00207310                global_huffstruct
                0x00207328                yearr
                0x00207330                mid_wts
                0x00207bf0                global_min_seconds
                0x00207bf4                wildcard
                0x00207c04                pciConfigAddr1
                0x00207c08                out_wt_cum_change
                0x00207e08                pciActive
                0x00207e0c                pAltivecTaskIdPrevious
                0x00207e10                _wdbTaskBpAdd
                0x00207e14                geidevices
                0x00207e28                tcp_msl
                0x00207e2c                start_addr
                0x00207e30                dbgPrintSimd
                0x00207e34                wvDefaultBufThresh
                0x00207e38                global_allstats
                0x00207e3c                yy_yys
                0x00208094                msgQDistSendRtn
                0x00208098                _func_tmrDisable
                0x0020809c                shellTaskId
                0x002080a0                rn_mkfreelist
                0x002080a4                __pointer_type_info type_info node
                0x002080b0                ostream type_info node
                0x002080c0                global_strsortstruct
                0x002080d8                wvDefaultBufMin
                0x002080dc                global_min_ticks
                0x002080e0                _func_evtLogString
                0x002080e4                tcp_beta
                0x002080e8                splSemId
                0x002080ec                udb
                0x002080f0                sntpcPort
                0x002080f4                flashBuf
                0x002180f4                arp_inuse
                0x002180f8                mmuStateTransArray
                0x002180fc                write_to_file
                0x00218100                altivecCreateHookRtn
                0x00218104                memsplit
                0x00218108                wvEvtClass
                0x0021810c                splTid
                0x00218110                taskIdCurrent
                0x00218114                ipintrq
                0x00218128                rootTaskId
                0x0021812c                wvBufId
                0x00218130                _func_symFindSymbol
                0x00218134                end_addr
                0x00218138                bad_exception type_info node
                0x00218144                _func_printErr
                0x00218148                pFppTaskIdPrevious
                0x0021814c                exception type_info node
                0x00218154                pmaplist
                0x00218158                roundRobinSlice
                0x0021815c                _IO_istream_withassign type_info node
                0x0021816c                _func_ipsecInput
                0x00218170                dater
                0x00218174                _func_evtLogT1
                0x00218178                tcp_now
                0x0021817c                localToGlobalOffset
                0x00218180                _func_taskDeleteHookAdd
                0x00218184                netTaskId
                0x00218188                nfsAutoClose
                0x0021818c                rlogOutTaskId
                0x00218190                domain_error type_info node
                0x0021819c                __user_type_info type_info node
                0x002181a8                out_out
                0x002181e8                _func_netLsByName
                0x002181ec                vxTicks
                0x002181f0                flocalBuf
                0x00218210                bp2
                0x00218214                count
                0x00218218                silent_test
                0x0021821c                dbgPrintDsp
                0x00218220                yystate
                0x00218224                altivecDisplayHookRtn
                0x00218228                _func_fppTaskRegsShow
                0x0021822c                _func_altivecTaskRegsGet
                0x00218230                sdramSize
                0x00218234                _func_symFindByValue
                0x00218238                excExcepHook
                0x0021823c                yydebug
                0x00218240                yyps
                0x00218244                s2
                0x00218248                smObjPoolMinusOne
                0x0021824c                __ptmd_type_info type_info node
                0x00218258                standAloneSymTbl
                0x0021825c                minr
                0x00218260                outBuffer
                0x002182c4                mem_array_ents
                0x002182c8                buf
                0x002182cc                tests_to_do
                0x002182f4                ipforward_rt
                0x00218308                _func_selWakeupListTerm
                0x0021830c                portmapdId
                0x00218310                msgQSmNumMsgsRtn
                0x00218314                eventEvtRtn
                0x00218318                smMemPartFindMaxRtn
                0x0021831c                dbgPrintAltivec
                0x00218320                vxIntStackEnd
                0x00218324                _func_memalign
                0x00218328                feidevices
                0x00218350                yypv
                0x00218354                ipDrvCtrl
                0x002184dc                rootMemNBytes
                0x002184e0                _func_evtLogM0
                0x002184e4                semSmShowRtn
                0x002184e8                _func_sigprocmask
                0x002184ec                nfsCacheSize
                0x002184f0                cplusDemanglerStyle
                0x002184f4                _func_symTypeGet
                0x002184f8                out_wts
                0x002186f8                out_of_range type_info node
                0x00218704                _pSigQueueFreeHead
                0x00218708                igmpstat
                0x00218730                out_error
                0x00218770                _func_altivecTaskRegsShow
                0x00218774                invalid_argument type_info node
                0x00218780                tcp_saveti
                0x002187a8                tcpcb
                0x002187ac                arp_intimer
                0x002187b0                _func_remCurIdSet
                0x002187b4                rtstat
                0x002187c0                loginVerifyRtn
                0x002187c4                taskCreateTable
                0x00218808                frcModNumBase
                0x0021880c                __si_type_info type_info node
                0x00218818                global_align
                0x0021881c                readyQHead
                0x0021882c                panicSuspend
                0x00218830                wdbExternSystemRegs
                0x002188cc                bpList
                0x002188d4                iostream type_info node
                0x002188e4                sysStartType
                0x002188e8                __wdbEventListIsEmpty
                0x002188ec                sysBootHost
                0x0021898c                pInPkt
                0x00218990                _func_dspMregsHook
                0x00218994                maxFiles
                0x00218998                _func_excJobAdd
                0x0021899c                _ipCfgFlags
                0x002189a0                yylval
                0x002189b0                _func_spyTask
                0x002189b4                _null_auth
                0x002189c0                smMemPartReallocRtn
                0x002189c4                global_custrun
                0x002189c8                tcp_iss
                0x002189cc                pMibRtn
                0x002189d0                _func_wvNetAddressFilterTest
                0x002189d4                range_error type_info node
                0x002189e0                taskSwapReference
                0x00218a24                wvUpPathId
                0x00218a28                msgQSmSendRtn
                0x00218a30                global_assignstruct
                0x00218a48                cenr
                0x00218a4c                _func_fastUdpPortTest
                0x00218a50                _func_selWakeupAll
                0x00218a54                _wdbTaskBpTrace
                0x00218a58                usrflashBuf
                0x00228a58                maxDrivers
                0x00228a5c                flashBufNV
                0x0022ab5c                max_keylen
                0x0022ab60                yy_yyv
                0x0022b4c0                excTaskId
                0x0022b4c4                ipq
                0x0022b4e0                wvObjIsEnabled
                0x0022b4e4                pRootMemStart
                0x0022b4e8                global_nnetstruct
                0x0022b500                bp1
                0x0022b504                underflow_error type_info node
                0x0022b510                fdTable
                0x0022b518                global_ideastruct
                0x0022b530                statSymTbl
                0x0022b534                roundRobinOn
                0x0022b538                readyQBMap
                0x0022bd5c                domains
                0x0022bd60                __class_type_info type_info node
                0x0022bd70                global_fourierstruct
                0x0022bd88                _func_sigTimeoutRecalc
                0x0022bd8c                icmpstat
                0x0022be44                kernelIsIdle
                0x0022be48                vxEventPendQ
                0x0022be58                iosDvList
                0x0022be60                dcacheCtrl
                0x0022c660                __builtin_type_info type_info node
                0x0022c66c                _func_symFindByValueAndType
                0x0022c670                semSmInfoRtn
                0x0022c674                yychar
                0x0022c678                udbinfo
                0x0022c688                membytes
                0x0022c68c                ftiming
                0x0022c690                msgQDistReceiveRtn
                0x0022c694                _func_evtLogOIntLock
                0x0022c698                _func_taskRegsShowRtn
                0x0022c6a0                out_wt_change
                0x0022c8a0                .=ALIGN(0x10)
                0x0022c8a0                .=ALIGN(0x10)
                0x0022c8a0                end=.
                0x0022c8a0                _end=.
                0x0022c8a0                wrs_kernel_bss_end=.
                0x0022c8a0                _wrs_kernel_bss_end=.

/DISCARD/
 *(.note)
 *(.comment)
 *(.pdr)

.stab
 *(.stab)

.stabstr
 *(.stabstr)

.stab.excl
 *(.stab.excl)

.stab.exclstr
 *(.stab.exclstr)

.stab.index
 *(.stab.index)

.stab.indexstr
 *(.stab.indexstr)

.comment
 *(.comment)

.debug
 *(.debug)

.line
 *(.line)

.debug_srcinfo
 *(.debug_srcinfo)

.debug_sfnames
 *(.debug_sfnames)

.debug_aranges
 *(.debug_aranges)

.debug_pubnames
 *(.debug_pubnames)

.debug_info
 *(.debug_info)

.debug_abbrev
 *(.debug_abbrev)

.debug_line
 *(.debug_line)

.debug_frame    0x00000000       0x14
 *(.debug_frame)
 .debug_frame   0x00000000       0x14 tmp.2
                0x00000000                __cie

.debug_str
 *(.debug_str)

.debug_loc
 *(.debug_loc)

.debug_macinfo
 *(.debug_macinfo)

.debug_weaknames
 *(.debug_weaknames)

.debug_funcnames
 *(.debug_funcnames)

.debug_typenames
 *(.debug_typenames)

.debug_varnames
 *(.debug_varnames)
OUTPUT(vxWorks.st elf32-powerpc)
