Archive member included       because of file (symbol)

/usr/local/clas/devel/VxWorks55/ppc/target/lib/ppc/PPC604/common/libarch.a(altivecArchLib.o)
                              sysLib.o (_func_altivecProbeRtn)
/usr/local/clas/devel/VxWorks55/ppc/target/lib/ppc/PPC604/common/libarch.a(altivecLib.o)
                              /usr/local/clas/devel/VxWorks55/ppc/target/lib/ppc/PPC604/common/libarch.a(altivecArchLib.o) (altivecCreateHookRtn)
/usr/local/clas/devel/VxWorks55/ppc/target/lib/ppc/PPC604/common/libarch.a(altivecShow.o)
                              /usr/local/clas/devel/VxWorks55/ppc/target/lib/ppc/PPC604/common/libarch.a(altivecArchLib.o) (altivecTaskRegsShow)
/usr/local/clas/devel/VxWorks55/ppc/target/lib/ppc/PPC604/common/libarch.a(bALib.o)
                              bootConfig.o (bcopy)
/usr/local/clas/devel/VxWorks55/ppc/target/lib/ppc/PPC604/common/libarch.a(cacheArchLib.o)
                              sysLib.o (_pSysL2CacheInvFunc)
/usr/local/clas/devel/VxWorks55/ppc/target/lib/ppc/PPC604/common/libarch.a(excArchLib.o)
                              sysIntCtrl.o (excConnect)
/usr/local/clas/devel/VxWorks55/ppc/target/lib/ppc/PPC604/common/libarch.a(excArchShow.o)
                              bootConfig.o (excShowInit)
/usr/local/clas/devel/VxWorks55/ppc/target/lib/ppc/PPC604/common/libarch.a(intALib.o)
                              /usr/local/clas/devel/VxWorks55/ppc/target/lib/ppc/PPC604/common/libarch.a(excArchLib.o) (intEnt)
/usr/local/clas/devel/VxWorks55/ppc/target/lib/ppc/PPC604/common/libarch.a(intArchLib.o)
                              sysIntCtrl.o (_func_intConnectRtn)
/usr/local/clas/devel/VxWorks55/ppc/target/lib/ppc/PPC604/common/libarch.a(mmuArchVars.o)
                              /usr/local/clas/devel/VxWorks55/ppc/target/lib/ppc/PPC604/common/libarch.a(cacheArchLib.o) (mmuPpcIEnabled)
/usr/local/clas/devel/VxWorks55/ppc/target/lib/ppc/PPC604/common/libarch.a(trcLib.o)
                              bootConfig.o (trcStack)
/usr/local/clas/devel/VxWorks55/ppc/target/lib/ppc/PPC604/common/libarch.a(vxALib.o)
                              tests/testtool.o (vxTimeBaseSet)
/usr/local/clas/devel/VxWorks55/ppc/target/lib/ppc/PPC604/common/libarch.a(vxLib.o)
                              /usr/local/clas/devel/VxWorks55/ppc/target/lib/ppc/PPC604/common/libarch.a(vxALib.o) (vxPowMgtEnable)
/usr/local/clas/devel/VxWorks55/ppc/target/lib/ppc/PPC604/common/libarch.a(pow.o)
                              tests/testtool.o (exp)
/usr/local/clas/devel/VxWorks55/ppc/target/lib/ppc/PPC604/common/libarch.a(sqrt.o)
                              tests/testtool.o (sqrt)
/usr/local/clas/devel/VxWorks55/ppc/target/lib/ppc/PPC604/common/libarch.a(trig.o)
                              tests/testtool.o (sin)
/usr/local/clas/devel/VxWorks55/ppc/target/lib/ppc/PPC604/common/libarch.a(altivecALib.o)
                              /usr/local/clas/devel/VxWorks55/ppc/target/lib/ppc/PPC604/common/libarch.a(altivecLib.o) (altivecSave)
/usr/local/clas/devel/VxWorks55/ppc/target/lib/ppc/PPC604/common/libarch.a(cacheALib.o)
                              /usr/local/clas/devel/VxWorks55/ppc/target/lib/ppc/PPC604/common/libarch.a(cacheArchLib.o) (cachePpcEnable)
/usr/local/clas/devel/VxWorks55/ppc/target/lib/ppc/PPC604/common/libarch.a(excALib.o)
                              /usr/local/clas/devel/VxWorks55/ppc/target/lib/ppc/PPC604/common/libarch.a(excArchLib.o) (excEnt)
/usr/local/clas/devel/VxWorks55/ppc/target/lib/ppc/PPC604/common/libdrv.a(endLib.o)
                              mgiEnd.obj (mib2Init)
/usr/local/clas/devel/VxWorks55/ppc/target/lib/ppc/PPC604/common/libdrv.a(if_loop.o)
                              bootConfig.o (loattach)
/usr/local/clas/devel/VxWorks55/ppc/target/lib/ppc/PPC604/common/libnet.a(if.o)
                              bootConfig.o (ifreset)
/usr/local/clas/devel/VxWorks55/ppc/target/lib/ppc/PPC604/common/libnet.a(if_ether.o)
                              bootConfig.o (ipEtherResolvRtn)
/usr/local/clas/devel/VxWorks55/ppc/target/lib/ppc/PPC604/common/libnet.a(if_subr.o)
                              /usr/local/clas/devel/VxWorks55/ppc/target/lib/ppc/PPC604/common/libnet.a(if_ether.o) (etherbroadcastaddr)
/usr/local/clas/devel/VxWorks55/ppc/target/lib/ppc/PPC604/common/libnet.a(in.o)
                              /usr/local/clas/devel/VxWorks55/ppc/target/lib/ppc/PPC604/common/libnet.a(if_ether.o) (in_lnaof)
/usr/local/clas/devel/VxWorks55/ppc/target/lib/ppc/PPC604/common/libnet.a(ip_input.o)
                              /usr/local/clas/devel/VxWorks55/ppc/target/lib/ppc/PPC604/common/libdrv.a(if_loop.o) (ipintrq)
/usr/local/clas/devel/VxWorks55/ppc/target/lib/ppc/PPC604/common/libnet.a(ip_output.o)
                              /usr/local/clas/devel/VxWorks55/ppc/target/lib/ppc/PPC604/common/libnet.a(ip_input.o) (ip_output)
/usr/local/clas/devel/VxWorks55/ppc/target/lib/ppc/PPC604/common/libnet.a(radix.o)
                              /usr/local/clas/devel/VxWorks55/ppc/target/lib/ppc/PPC604/common/libnet.a(if.o) (rn_refines)
/usr/local/clas/devel/VxWorks55/ppc/target/lib/ppc/PPC604/common/libnet.a(route.o)
                              /usr/local/clas/devel/VxWorks55/ppc/target/lib/ppc/PPC604/common/libnet.a(if_ether.o) (rt_tables)
/usr/local/clas/devel/VxWorks55/ppc/target/lib/ppc/PPC604/common/libnet.a(udp_usrreq.o)
                              /usr/local/clas/devel/VxWorks55/ppc/target/lib/ppc/PPC604/common/libnet.a(if.o) (udb)
/usr/local/clas/devel/VxWorks55/ppc/target/lib/ppc/PPC604/common/libnet.a(uipc_dom.o)
                              /usr/local/clas/devel/VxWorks55/ppc/target/lib/ppc/PPC604/common/libnet.a(radix.o) (domains)
/usr/local/clas/devel/VxWorks55/ppc/target/lib/ppc/PPC604/common/libnet.a(uipc_mbuf.o)
                              /usr/local/clas/devel/VxWorks55/ppc/target/lib/ppc/PPC604/common/libnet.a(if_subr.o) (_pNetDpool)
/usr/local/clas/devel/VxWorks55/ppc/target/lib/ppc/PPC604/common/libnet.a(uipc_sock2.o)
                              /usr/local/clas/devel/VxWorks55/ppc/target/lib/ppc/PPC604/common/libnet.a(udp_usrreq.o) (soisconnected)
/usr/local/clas/devel/VxWorks55/ppc/target/lib/ppc/PPC604/common/libnet.a(unixLib.o)
                              /usr/local/clas/devel/VxWorks55/ppc/target/lib/ppc/PPC604/common/libdrv.a(if_loop.o) (splnet)
/usr/local/clas/devel/VxWorks55/ppc/target/lib/ppc/PPC604/common/libnet.a(ipProto.o)
                              bootConfig.o (ipAttach)
/usr/local/clas/devel/VxWorks55/ppc/target/lib/ppc/PPC604/common/libnet.a(bsdSockLib.o)
                              bootConfig.o (bsdSockLibInit)
/usr/local/clas/devel/VxWorks55/ppc/target/lib/ppc/PPC604/common/libnet.a(etherMultiLib.o)
                              mgiEnd.obj (etherMultiAdd)
/usr/local/clas/devel/VxWorks55/ppc/target/lib/ppc/PPC604/common/libnet.a(ftpLib.o)
                              bootConfig.o (ftpCommand)
/usr/local/clas/devel/VxWorks55/ppc/target/lib/ppc/PPC604/common/libnet.a(hostLib.o)
                              bootConfig.o (hostTblInit)
/usr/local/clas/devel/VxWorks55/ppc/target/lib/ppc/PPC604/common/libnet.a(icmpLib.o)
                              bootConfig.o (icmpLibInit)
/usr/local/clas/devel/VxWorks55/ppc/target/lib/ppc/PPC604/common/libnet.a(ifLib.o)
                              bootConfig.o (ifAddrSet)
/usr/local/clas/devel/VxWorks55/ppc/target/lib/ppc/PPC604/common/libnet.a(igmpLib.o)
                              bootConfig.o (igmpLibInit)
/usr/local/clas/devel/VxWorks55/ppc/target/lib/ppc/PPC604/common/libnet.a(inetLib.o)
                              bootConfig.o (inet_addr)
/usr/local/clas/devel/VxWorks55/ppc/target/lib/ppc/PPC604/common/libnet.a(ipLib.o)
                              bootConfig.o (ipLibInit)
/usr/local/clas/devel/VxWorks55/ppc/target/lib/ppc/PPC604/common/libnet.a(muxLib.o)
                              bootConfig.o (muxLibInit)
/usr/local/clas/devel/VxWorks55/ppc/target/lib/ppc/PPC604/common/libnet.a(muxTkLib.o)
                              bootConfig.o (muxMaxBinds)
/usr/local/clas/devel/VxWorks55/ppc/target/lib/ppc/PPC604/common/libnet.a(netLib.o)
                              bootConfig.o (netTaskPriority)
/usr/local/clas/devel/VxWorks55/ppc/target/lib/ppc/PPC604/common/libnet.a(pingLib.o)
                              tests/testtool.o (pingLibInit)
/usr/local/clas/devel/VxWorks55/ppc/target/lib/ppc/PPC604/common/libnet.a(remLib.o)
                              bootConfig.o (rcmd)
/usr/local/clas/devel/VxWorks55/ppc/target/lib/ppc/PPC604/common/libnet.a(routeLib.o)
                              bootConfig.o (routeAdd)
/usr/local/clas/devel/VxWorks55/ppc/target/lib/ppc/PPC604/common/libnet.a(routeCommonLib.o)
                              /usr/local/clas/devel/VxWorks55/ppc/target/lib/ppc/PPC604/common/libnet.a(route.o) (rtrequestAddEqui)
/usr/local/clas/devel/VxWorks55/ppc/target/lib/ppc/PPC604/common/libnet.a(sockLib.o)
                              /usr/local/clas/devel/VxWorks55/ppc/target/lib/ppc/PPC604/common/libnet.a(bsdSockLib.o) (pSockFdMap)
/usr/local/clas/devel/VxWorks55/ppc/target/lib/ppc/PPC604/common/libnet.a(tcpLib.o)
                              bootConfig.o (tcpLibInit)
/usr/local/clas/devel/VxWorks55/ppc/target/lib/ppc/PPC604/common/libnet.a(tftpLib.o)
                              bootConfig.o (tftpXfer)
/usr/local/clas/devel/VxWorks55/ppc/target/lib/ppc/PPC604/common/libnet.a(udpLib.o)
                              bootConfig.o (udpLibInit)
/usr/local/clas/devel/VxWorks55/ppc/target/lib/ppc/PPC604/common/libnet.a(netBufLib.o)
                              /usr/local/clas/devel/VxWorks55/ppc/target/lib/ppc/PPC604/common/libnet.a(uipc_mbuf.o) (_pNetBufCollect)
/usr/local/clas/devel/VxWorks55/ppc/target/lib/ppc/PPC604/common/libnet.a(ifIndexLib.o)
                              /usr/local/clas/devel/VxWorks55/ppc/target/lib/ppc/PPC604/common/libnet.a(if.o) (ifIndexAlloc)
/usr/local/clas/devel/VxWorks55/ppc/target/lib/ppc/PPC604/common/libnet.a(igmp.o)
                              /usr/local/clas/devel/VxWorks55/ppc/target/lib/ppc/PPC604/common/libnet.a(igmpLib.o) (igmp_init)
/usr/local/clas/devel/VxWorks55/ppc/target/lib/ppc/PPC604/common/libnet.a(in_cksum.o)
                              /usr/local/clas/devel/VxWorks55/ppc/target/lib/ppc/PPC604/common/libnet.a(ip_input.o) (in_cksum)
/usr/local/clas/devel/VxWorks55/ppc/target/lib/ppc/PPC604/common/libnet.a(in_pcb.o)
                              /usr/local/clas/devel/VxWorks55/ppc/target/lib/ppc/PPC604/common/libnet.a(udp_usrreq.o) (in_pcballoc)
/usr/local/clas/devel/VxWorks55/ppc/target/lib/ppc/PPC604/common/libnet.a(in_proto.o)
                              /usr/local/clas/devel/VxWorks55/ppc/target/lib/ppc/PPC604/common/libnet.a(ip_input.o) (inetdomain)
/usr/local/clas/devel/VxWorks55/ppc/target/lib/ppc/PPC604/common/libnet.a(ip_icmp.o)
                              /usr/local/clas/devel/VxWorks55/ppc/target/lib/ppc/PPC604/common/libnet.a(icmpLib.o) (icmpmaskrepl)
/usr/local/clas/devel/VxWorks55/ppc/target/lib/ppc/PPC604/common/libnet.a(raw_ip.o)
                              /usr/local/clas/devel/VxWorks55/ppc/target/lib/ppc/PPC604/common/libnet.a(ipLib.o) (rip_init)
/usr/local/clas/devel/VxWorks55/ppc/target/lib/ppc/PPC604/common/libnet.a(sys_socket.o)
                              /usr/local/clas/devel/VxWorks55/ppc/target/lib/ppc/PPC604/common/libnet.a(bsdSockLib.o) (soo_ioctl)
/usr/local/clas/devel/VxWorks55/ppc/target/lib/ppc/PPC604/common/libnet.a(tcp_input.o)
                              /usr/local/clas/devel/VxWorks55/ppc/target/lib/ppc/PPC604/common/libnet.a(tcpLib.o) (tcprexmtthresh)
/usr/local/clas/devel/VxWorks55/ppc/target/lib/ppc/PPC604/common/libnet.a(tcp_output.o)
                              /usr/local/clas/devel/VxWorks55/ppc/target/lib/ppc/PPC604/common/libnet.a(tcp_input.o) (tcp_output)
/usr/local/clas/devel/VxWorks55/ppc/target/lib/ppc/PPC604/common/libnet.a(tcp_subr.o)
                              /usr/local/clas/devel/VxWorks55/ppc/target/lib/ppc/PPC604/common/libnet.a(tcpLib.o) (tcp_mssdflt)
/usr/local/clas/devel/VxWorks55/ppc/target/lib/ppc/PPC604/common/libnet.a(tcp_timer.o)
                              /usr/local/clas/devel/VxWorks55/ppc/target/lib/ppc/PPC604/common/libnet.a(tcpLib.o) (tcp_keepidle)
/usr/local/clas/devel/VxWorks55/ppc/target/lib/ppc/PPC604/common/libnet.a(tcp_usrreq.o)
                              /usr/local/clas/devel/VxWorks55/ppc/target/lib/ppc/PPC604/common/libnet.a(tcp_input.o) (tcpTraceRtn)
/usr/local/clas/devel/VxWorks55/ppc/target/lib/ppc/PPC604/common/libnet.a(uipc_sock.o)
                              /usr/local/clas/devel/VxWorks55/ppc/target/lib/ppc/PPC604/common/libnet.a(bsdSockLib.o) (socreate)
/usr/local/clas/devel/VxWorks55/ppc/target/lib/ppc/PPC604/common/libnet.a(random.o)
                              /usr/local/clas/devel/VxWorks55/ppc/target/lib/ppc/PPC604/common/libnet.a(igmp.o) (random)
/usr/local/clas/devel/VxWorks55/ppc/target/lib/ppc/PPC604/common/libos.a(__ctype_tab.o)
                              bootConfig.o (__ctype)
/usr/local/clas/devel/VxWorks55/ppc/target/lib/ppc/PPC604/common/libos.a(fabs.o)
                              tests/testtool.o (fabs)
/usr/local/clas/devel/VxWorks55/ppc/target/lib/ppc/PPC604/common/libos.a(fclose.o)
                              tests/testtool.o (fclose)
/usr/local/clas/devel/VxWorks55/ppc/target/lib/ppc/PPC604/common/libos.a(fflush.o)
                              pciScan.o (fflush)
/usr/local/clas/devel/VxWorks55/ppc/target/lib/ppc/PPC604/common/libos.a(fgets.o)
                              tests/testtool.o (fgets)
/usr/local/clas/devel/VxWorks55/ppc/target/lib/ppc/PPC604/common/libos.a(fopen.o)
                              tests/testtool.o (fopen)
/usr/local/clas/devel/VxWorks55/ppc/target/lib/ppc/PPC604/common/libos.a(fprintf.o)
                              frcBibShow.o (fprintf)
/usr/local/clas/devel/VxWorks55/ppc/target/lib/ppc/PPC604/common/libos.a(gets.o)
                              tests/testtool.o (gets)
/usr/local/clas/devel/VxWorks55/ppc/target/lib/ppc/PPC604/common/libos.a(perror.o)
                              tests/testtool.o (perror)
/usr/local/clas/devel/VxWorks55/ppc/target/lib/ppc/PPC604/common/libos.a(refill.o)
                              /usr/local/clas/devel/VxWorks55/ppc/target/lib/ppc/PPC604/common/libos.a(fgets.o) (__srefill)
/usr/local/clas/devel/VxWorks55/ppc/target/lib/ppc/PPC604/common/libos.a(rget.o)
                              tests/testtool.o (__srget)
/usr/local/clas/devel/VxWorks55/ppc/target/lib/ppc/PPC604/common/libos.a(scanf.o)
                              bFlashDrv.o (scanf)
/usr/local/clas/devel/VxWorks55/ppc/target/lib/ppc/PPC604/common/libos.a(stdio.o)
                              /usr/local/clas/devel/VxWorks55/ppc/target/lib/ppc/PPC604/common/libos.a(refill.o) (__sread)
/usr/local/clas/devel/VxWorks55/ppc/target/lib/ppc/PPC604/common/libos.a(stdioLib.o)
                              tests/testtool.o (fpClassId)
/usr/local/clas/devel/VxWorks55/ppc/target/lib/ppc/PPC604/common/libos.a(ungetc.o)
                              /usr/local/clas/devel/VxWorks55/ppc/target/lib/ppc/PPC604/common/libos.a(scanf.o) (ungetc)
/usr/local/clas/devel/VxWorks55/ppc/target/lib/ppc/PPC604/common/libos.a(wbuf.o)
                              tests/testtool.o (__swbuf)
/usr/local/clas/devel/VxWorks55/ppc/target/lib/ppc/PPC604/common/libos.a(wsetup.o)
                              /usr/local/clas/devel/VxWorks55/ppc/target/lib/ppc/PPC604/common/libos.a(wbuf.o) (__swsetup)
/usr/local/clas/devel/VxWorks55/ppc/target/lib/ppc/PPC604/common/libos.a(vfprintf.o)
                              /usr/local/clas/devel/VxWorks55/ppc/target/lib/ppc/PPC604/common/libos.a(fprintf.o) (vfprintf)
/usr/local/clas/devel/VxWorks55/ppc/target/lib/ppc/PPC604/common/libos.a(abs.o)
                              sysLib.o (abs)
/usr/local/clas/devel/VxWorks55/ppc/target/lib/ppc/PPC604/common/libos.a(atof.o)
                              tests/testtool.o (atof)
/usr/local/clas/devel/VxWorks55/ppc/target/lib/ppc/PPC604/common/libos.a(atoi.o)
                              mgiEnd.obj (atoi)
/usr/local/clas/devel/VxWorks55/ppc/target/lib/ppc/PPC604/common/libos.a(atol.o)
                              tests/testtool.o (atol)
/usr/local/clas/devel/VxWorks55/ppc/target/lib/ppc/PPC604/common/libos.a(strtod.o)
                              /usr/local/clas/devel/VxWorks55/ppc/target/lib/ppc/PPC604/common/libos.a(atof.o) (strtod)
/usr/local/clas/devel/VxWorks55/ppc/target/lib/ppc/PPC604/common/libos.a(strtol.o)
                              /usr/local/clas/devel/VxWorks55/ppc/target/lib/ppc/PPC604/common/libos.a(atoi.o) (strtol)
/usr/local/clas/devel/VxWorks55/ppc/target/lib/ppc/PPC604/common/libos.a(strtoul.o)
                              mgiEnd.obj (strtoul)
/usr/local/clas/devel/VxWorks55/ppc/target/lib/ppc/PPC604/common/libos.a(memchr.o)
                              /usr/local/clas/devel/VxWorks55/ppc/target/lib/ppc/PPC604/common/libos.a(fgets.o) (memchr)
/usr/local/clas/devel/VxWorks55/ppc/target/lib/ppc/PPC604/common/libos.a(memcpy.o)
                              rtc.o (memcpy)
/usr/local/clas/devel/VxWorks55/ppc/target/lib/ppc/PPC604/common/libos.a(memmove.o)
                              tests/testtool.o (memmove)
/usr/local/clas/devel/VxWorks55/ppc/target/lib/ppc/PPC604/common/libos.a(memset.o)
                              sysLib.o (memset)
/usr/local/clas/devel/VxWorks55/ppc/target/lib/ppc/PPC604/common/libos.a(strcat.o)
                              bootConfig.o (strcat)
/usr/local/clas/devel/VxWorks55/ppc/target/lib/ppc/PPC604/common/libos.a(strchr.o)
                              tests/testtool.o (strchr)
/usr/local/clas/devel/VxWorks55/ppc/target/lib/ppc/PPC604/common/libos.a(strcmp.o)
                              bootConfig.o (strcmp)
/usr/local/clas/devel/VxWorks55/ppc/target/lib/ppc/PPC604/common/libos.a(strcpy.o)
                              bootConfig.o (strcpy)
/usr/local/clas/devel/VxWorks55/ppc/target/lib/ppc/PPC604/common/libos.a(strerror.o)
                              /usr/local/clas/devel/VxWorks55/ppc/target/lib/ppc/PPC604/common/libos.a(perror.o) (strerror)
/usr/local/clas/devel/VxWorks55/ppc/target/lib/ppc/PPC604/common/libos.a(strlen.o)
                              bootConfig.o (strlen)
/usr/local/clas/devel/VxWorks55/ppc/target/lib/ppc/PPC604/common/libos.a(strncmp.o)
                              bootConfig.o (strncmp)
/usr/local/clas/devel/VxWorks55/ppc/target/lib/ppc/PPC604/common/libos.a(strncpy.o)
                              bootConfig.o (strncpy)
/usr/local/clas/devel/VxWorks55/ppc/target/lib/ppc/PPC604/common/libos.a(strstr.o)
                              mgiEnd.obj (strstr)
/usr/local/clas/devel/VxWorks55/ppc/target/lib/ppc/PPC604/common/libos.a(strtok_r.o)
                              mgiEnd.obj (strtok_r)
/usr/local/clas/devel/VxWorks55/ppc/target/lib/ppc/PPC604/common/libos.a(asctime.o)
                              rtc.o (asctime)
/usr/local/clas/devel/VxWorks55/ppc/target/lib/ppc/PPC604/common/libos.a(localtime.o)
                              tests/testtool.o (localtime)
/usr/local/clas/devel/VxWorks55/ppc/target/lib/ppc/PPC604/common/libos.a(strftime.o)
                              /usr/local/clas/devel/VxWorks55/ppc/target/lib/ppc/PPC604/common/libos.a(asctime.o) (strftime)
/usr/local/clas/devel/VxWorks55/ppc/target/lib/ppc/PPC604/common/libos.a(time.o)
                              tests/testtool.o (time)
/usr/local/clas/devel/VxWorks55/ppc/target/lib/ppc/PPC604/common/libos.a(fpType.o)
                              /usr/local/clas/devel/VxWorks55/ppc/target/lib/ppc/PPC604/common/libos.a(fabs.o) (fpTypeGet)
/usr/local/clas/devel/VxWorks55/ppc/target/lib/ppc/PPC604/common/libos.a(cacheLib.o)
                              /usr/local/clas/devel/VxWorks55/ppc/target/lib/ppc/PPC604/common/libarch.a(cacheArchLib.o) (cacheDataMode)
/usr/local/clas/devel/VxWorks55/ppc/target/lib/ppc/PPC604/common/libos.a(classLib.o)
                              bootConfig.o (classLibInit)
/usr/local/clas/devel/VxWorks55/ppc/target/lib/ppc/PPC604/common/libos.a(clockLib.o)
                              /usr/local/clas/devel/VxWorks55/ppc/target/lib/ppc/PPC604/common/libos.a(time.o) (clock_gettime)
/usr/local/clas/devel/VxWorks55/ppc/target/lib/ppc/PPC604/common/libos.a(copyright.o)
                              /usr/local/clas/devel/VxWorks55/ppc/target/lib/ppc/PPC604/common/libarch.a(intALib.o) (copyright_wind_river)
/usr/local/clas/devel/VxWorks55/ppc/target/lib/ppc/PPC604/common/libos.a(envLib.o)
                              tests/testtool.o (getenv)
/usr/local/clas/devel/VxWorks55/ppc/target/lib/ppc/PPC604/common/libos.a(errnoLib.o)
                              bootConfig.o (__errno)
/usr/local/clas/devel/VxWorks55/ppc/target/lib/ppc/PPC604/common/libos.a(excLib.o)
                              bootConfig.o (excInit)
/usr/local/clas/devel/VxWorks55/ppc/target/lib/ppc/PPC604/common/libos.a(fioLib.o)
                              /usr/local/clas/devel/VxWorks55/ppc/target/lib/ppc/PPC604/common/libnet.a(ftpLib.o) (printErr)
/usr/local/clas/devel/VxWorks55/ppc/target/lib/ppc/PPC604/common/libos.a(funcBind.o)
                              /usr/local/clas/devel/VxWorks55/ppc/target/lib/ppc/PPC604/common/libnet.a(ftpLib.o) (ftplDebug)
/usr/local/clas/devel/VxWorks55/ppc/target/lib/ppc/PPC604/common/libos.a(hashLib.o)
                              bootConfig.o (hashLibInit)
/usr/local/clas/devel/VxWorks55/ppc/target/lib/ppc/PPC604/common/libos.a(intLib.o)
                              /usr/local/clas/devel/VxWorks55/ppc/target/lib/ppc/PPC604/common/libarch.a(excArchLib.o) (intCnt)
/usr/local/clas/devel/VxWorks55/ppc/target/lib/ppc/PPC604/common/libos.a(ioLib.o)
                              bootConfig.o (open)
/usr/local/clas/devel/VxWorks55/ppc/target/lib/ppc/PPC604/common/libos.a(iosLib.o)
                              bootConfig.o (iosInit)
/usr/local/clas/devel/VxWorks55/ppc/target/lib/ppc/PPC604/common/libos.a(logLib.o)
                              bootConfig.o (logInit)
/usr/local/clas/devel/VxWorks55/ppc/target/lib/ppc/PPC604/common/libos.a(memLib.o)
                              tests/testtool.o (valloc)
/usr/local/clas/devel/VxWorks55/ppc/target/lib/ppc/PPC604/common/libos.a(memPartLib.o)
                              /usr/local/clas/devel/VxWorks55/ppc/target/lib/ppc/PPC604/common/libos.a(classLib.o) (memPartClassId)
/usr/local/clas/devel/VxWorks55/ppc/target/lib/ppc/PPC604/common/libos.a(objLib.o)
                              /usr/local/clas/devel/VxWorks55/ppc/target/lib/ppc/PPC604/common/libos.a(hashLib.o) (objAllocExtra)
/usr/local/clas/devel/VxWorks55/ppc/target/lib/ppc/PPC604/common/libos.a(pathLib.o)
                              /usr/local/clas/devel/VxWorks55/ppc/target/lib/ppc/PPC604/common/libos.a(ioLib.o) (pathCondense)
/usr/local/clas/devel/VxWorks55/ppc/target/lib/ppc/PPC604/common/libos.a(pipeDrv.o)
                              bootConfig.o (pipeDrv)
/usr/local/clas/devel/VxWorks55/ppc/target/lib/ppc/PPC604/common/libos.a(rebootLib.o)
                              bootConfig.o (reboot)
/usr/local/clas/devel/VxWorks55/ppc/target/lib/ppc/PPC604/common/libos.a(selectLib.o)
                              bootConfig.o (selectInit)
/usr/local/clas/devel/VxWorks55/ppc/target/lib/ppc/PPC604/common/libos.a(taskHookLib.o)
                              bootConfig.o (taskHookInit)
/usr/local/clas/devel/VxWorks55/ppc/target/lib/ppc/PPC604/common/libos.a(ttyDrv.o)
                              bootConfig.o (ttyDrv)
/usr/local/clas/devel/VxWorks55/ppc/target/lib/ppc/PPC604/common/libos.a(tyLib.o)
                              /usr/local/clas/devel/VxWorks55/ppc/target/lib/ppc/PPC604/common/libos.a(ttyDrv.o) (tyDevInit)
/usr/local/clas/devel/VxWorks55/ppc/target/lib/ppc/PPC604/common/libos.a(bootElfLib.o)
                              bootConfig.o (bootElfInit)
/usr/local/clas/devel/VxWorks55/ppc/target/lib/ppc/PPC604/common/libos.a(bootLoadLib.o)
                              /usr/local/clas/devel/VxWorks55/ppc/target/lib/ppc/PPC604/common/libos.a(bootElfLib.o) (bootLoadRoutine)
/usr/local/clas/devel/VxWorks55/ppc/target/lib/ppc/PPC604/common/libos.a(ramDrv.o)
                              sysRamDrv.o (ramDevCreate)
/usr/local/clas/devel/VxWorks55/ppc/target/lib/ppc/PPC604/common/libos.a(usrDosFsOld.o)
                              sysRamDrv.o (dosFsMkfs)
/usr/local/clas/devel/VxWorks55/ppc/target/lib/ppc/PPC604/common/libos.a(bLib.o)
                              /usr/local/clas/devel/VxWorks55/ppc/target/lib/ppc/PPC604/common/libnet.a(if.o) (bcmp)
/usr/local/clas/devel/VxWorks55/ppc/target/lib/ppc/PPC604/common/libos.a(bootLib.o)
                              bootConfig.o (bootStringToStruct)
/usr/local/clas/devel/VxWorks55/ppc/target/lib/ppc/PPC604/common/libos.a(cksumLib.o)
                              /usr/local/clas/devel/VxWorks55/ppc/target/lib/ppc/PPC604/common/libnet.a(icmpLib.o) (checksum)
/usr/local/clas/devel/VxWorks55/ppc/target/lib/ppc/PPC604/common/libos.a(dllLib.o)
                              /usr/local/clas/devel/VxWorks55/ppc/target/lib/ppc/PPC604/common/libos.a(iosLib.o) (dllInit)
/usr/local/clas/devel/VxWorks55/ppc/target/lib/ppc/PPC604/common/libos.a(lstLib.o)
                              /usr/local/clas/devel/VxWorks55/ppc/target/lib/ppc/PPC604/common/libdrv.a(endLib.o) (lstInit)
/usr/local/clas/devel/VxWorks55/ppc/target/lib/ppc/PPC604/common/libos.a(qFifoLib.o)
                              bootConfig.o (qFifoClassId)
/usr/local/clas/devel/VxWorks55/ppc/target/lib/ppc/PPC604/common/libos.a(qLib.o)
                              bootConfig.o (qInit)
/usr/local/clas/devel/VxWorks55/ppc/target/lib/ppc/PPC604/common/libos.a(qPriBMapLib.o)
                              bootConfig.o (qPriBMapClassId)
/usr/local/clas/devel/VxWorks55/ppc/target/lib/ppc/PPC604/common/libos.a(qPriListLib.o)
                              bootConfig.o (qPriListClassId)
/usr/local/clas/devel/VxWorks55/ppc/target/lib/ppc/PPC604/common/libos.a(rngLib.o)
                              /usr/local/clas/devel/VxWorks55/ppc/target/lib/ppc/PPC604/common/libnet.a(netLib.o) (rngCreate)
/usr/local/clas/devel/VxWorks55/ppc/target/lib/ppc/PPC604/common/libos.a(sllLib.o)
                              /usr/local/clas/devel/VxWorks55/ppc/target/lib/ppc/PPC604/common/libos.a(hashLib.o) (sllInit)
/usr/local/clas/devel/VxWorks55/ppc/target/lib/ppc/PPC604/common/libos.a(dcacheCbio.o)
                              /usr/local/clas/devel/VxWorks55/ppc/target/lib/ppc/PPC604/common/libos.a(usrDosFsOld.o) (dcacheDevCreate)
/usr/local/clas/devel/VxWorks55/ppc/target/lib/ppc/PPC604/common/libos.a(dosChkLib.o)
                              /usr/local/clas/devel/VxWorks55/ppc/target/lib/ppc/PPC604/common/libos.a(usrDosFsOld.o) (dosChkLibInit)
/usr/local/clas/devel/VxWorks55/ppc/target/lib/ppc/PPC604/common/libos.a(dosDirOldLib.o)
                              /usr/local/clas/devel/VxWorks55/ppc/target/lib/ppc/PPC604/common/libos.a(usrDosFsOld.o) (dosDirOldLibInit)
/usr/local/clas/devel/VxWorks55/ppc/target/lib/ppc/PPC604/common/libos.a(dosFsFat.o)
                              /usr/local/clas/devel/VxWorks55/ppc/target/lib/ppc/PPC604/common/libos.a(usrDosFsOld.o) (dosFsFatInit)
/usr/local/clas/devel/VxWorks55/ppc/target/lib/ppc/PPC604/common/libos.a(dosFsFmtLib.o)
                              /usr/local/clas/devel/VxWorks55/ppc/target/lib/ppc/PPC604/common/libos.a(usrDosFsOld.o) (dosFsVolFormat)
/usr/local/clas/devel/VxWorks55/ppc/target/lib/ppc/PPC604/common/libos.a(dosFsLib.o)
                              /usr/local/clas/devel/VxWorks55/ppc/target/lib/ppc/PPC604/common/libos.a(dosFsFat.o) (dosFatHdlrsList)
/usr/local/clas/devel/VxWorks55/ppc/target/lib/ppc/PPC604/common/libos.a(dosVDirLib.o)
                              /usr/local/clas/devel/VxWorks55/ppc/target/lib/ppc/PPC604/common/libos.a(usrDosFsOld.o) (dosVDirLibInit)
/usr/local/clas/devel/VxWorks55/ppc/target/lib/ppc/PPC604/common/libos.a(print64Lib.o)
                              /usr/local/clas/devel/VxWorks55/ppc/target/lib/ppc/PPC604/common/libos.a(dosChkLib.o) (print64Fine)
/usr/local/clas/devel/VxWorks55/ppc/target/lib/ppc/PPC604/common/libos.a(fgetc.o)
                              /usr/local/clas/devel/VxWorks55/ppc/target/lib/ppc/PPC604/common/libos.a(scanf.o) (fgetc)
/usr/local/clas/devel/VxWorks55/ppc/target/lib/ppc/PPC604/common/libos.a(flags.o)
                              /usr/local/clas/devel/VxWorks55/ppc/target/lib/ppc/PPC604/common/libos.a(fopen.o) (__sflags)
/usr/local/clas/devel/VxWorks55/ppc/target/lib/ppc/PPC604/common/libos.a(makebuf.o)
                              /usr/local/clas/devel/VxWorks55/ppc/target/lib/ppc/PPC604/common/libos.a(refill.o) (__smakebuf)
/usr/local/clas/devel/VxWorks55/ppc/target/lib/ppc/PPC604/common/libos.a(strncat.o)
                              /usr/local/clas/devel/VxWorks55/ppc/target/lib/ppc/PPC604/common/libos.a(pathLib.o) (strncat)
/usr/local/clas/devel/VxWorks55/ppc/target/lib/ppc/PPC604/common/libos.a(strpbrk.o)
                              /usr/local/clas/devel/VxWorks55/ppc/target/lib/ppc/PPC604/common/libos.a(strtok_r.o) (strpbrk)
/usr/local/clas/devel/VxWorks55/ppc/target/lib/ppc/PPC604/common/libos.a(strspn.o)
                              /usr/local/clas/devel/VxWorks55/ppc/target/lib/ppc/PPC604/common/libos.a(strtok_r.o) (strspn)
/usr/local/clas/devel/VxWorks55/ppc/target/lib/ppc/PPC604/common/libos.a(locTime.o)
                              /usr/local/clas/devel/VxWorks55/ppc/target/lib/ppc/PPC604/common/libos.a(localtime.o) (__loctime)
/usr/local/clas/devel/VxWorks55/ppc/target/lib/ppc/PPC604/common/libos.a(ctime.o)
                              /usr/local/clas/devel/VxWorks55/ppc/target/lib/ppc/PPC604/common/libos.a(dosChkLib.o) (ctime)
/usr/local/clas/devel/VxWorks55/ppc/target/lib/ppc/PPC604/common/libos.a(gmtime.o)
                              /usr/local/clas/devel/VxWorks55/ppc/target/lib/ppc/PPC604/common/libos.a(localtime.o) (__getTime)
/usr/local/clas/devel/VxWorks55/ppc/target/lib/ppc/PPC604/common/libos.a(mktime.o)
                              /usr/local/clas/devel/VxWorks55/ppc/target/lib/ppc/PPC604/common/libos.a(usrDosFsOld.o) (mktime)
/usr/local/clas/devel/VxWorks55/ppc/target/lib/ppc/PPC604/common/libos.a(cbioLib.o)
                              /usr/local/clas/devel/VxWorks55/ppc/target/lib/ppc/PPC604/common/libos.a(dcacheCbio.o) (cbioLibInit)
/usr/local/clas/devel/VxWorks55/ppc/target/lib/ppc/PPC604/common/libos.a(assert.o)
                              /usr/local/clas/devel/VxWorks55/ppc/target/lib/ppc/PPC604/common/libos.a(cbioLib.o) (__assert)
/usr/local/clas/devel/VxWorks55/ppc/target/lib/ppc/PPC604/common/libos.a(abort.o)
                              /usr/local/clas/devel/VxWorks55/ppc/target/lib/ppc/PPC604/common/libos.a(assert.o) (abort)
/usr/local/clas/devel/VxWorks55/ppc/target/lib/ppc/PPC604/common/libos.a(ldiv.o)
                              /usr/local/clas/devel/VxWorks55/ppc/target/lib/ppc/PPC604/common/libos.a(gmtime.o) (ldiv_r)
/usr/local/clas/devel/VxWorks55/ppc/target/lib/ppc/PPC604/common/libos.a(sigLib.o)
                              /usr/local/clas/devel/VxWorks55/ppc/target/lib/ppc/PPC604/common/libos.a(abort.o) (raise)
/usr/local/clas/devel/VxWorks55/ppc/target/lib/ppc/PPC604/common/libwind.a(eventLib.o)
                              bootConfig.o (eventLibInit)
/usr/local/clas/devel/VxWorks55/ppc/target/lib/ppc/PPC604/common/libwind.a(kernelLib.o)
                              bootConfig.o (activeQHead)
/usr/local/clas/devel/VxWorks55/ppc/target/lib/ppc/PPC604/common/libwind.a(msgQLib.o)
                              bootConfig.o (msgQLibInit)
/usr/local/clas/devel/VxWorks55/ppc/target/lib/ppc/PPC604/common/libwind.a(msgQShow.o)
                              /usr/local/clas/devel/VxWorks55/ppc/target/lib/ppc/PPC604/common/libos.a(pipeDrv.o) (msgQInfoGet)
/usr/local/clas/devel/VxWorks55/ppc/target/lib/ppc/PPC604/common/libwind.a(schedLib.o)
                              /usr/local/clas/devel/VxWorks55/ppc/target/lib/ppc/PPC604/common/libarch.a(intALib.o) (reschedule)
/usr/local/clas/devel/VxWorks55/ppc/target/lib/ppc/PPC604/common/libwind.a(semBLib.o)
                              bootConfig.o (semBLibInit)
/usr/local/clas/devel/VxWorks55/ppc/target/lib/ppc/PPC604/common/libwind.a(semCLib.o)
                              bootConfig.o (semCLibInit)
/usr/local/clas/devel/VxWorks55/ppc/target/lib/ppc/PPC604/common/libwind.a(semLib.o)
                              /usr/local/clas/devel/VxWorks55/ppc/target/lib/ppc/PPC604/common/libwind.a(semBLib.o) (semClassId)
/usr/local/clas/devel/VxWorks55/ppc/target/lib/ppc/PPC604/common/libwind.a(semMLib.o)
                              bootConfig.o (semMLibInit)
/usr/local/clas/devel/VxWorks55/ppc/target/lib/ppc/PPC604/common/libwind.a(taskInfo.o)
                              /usr/local/clas/devel/VxWorks55/ppc/target/lib/ppc/PPC604/common/libos.a(envLib.o) (taskOptionsSet)
/usr/local/clas/devel/VxWorks55/ppc/target/lib/ppc/PPC604/common/libwind.a(taskLib.o)
                              /usr/local/clas/devel/VxWorks55/ppc/target/lib/ppc/PPC604/common/libos.a(fioLib.o) (taskClassId)
/usr/local/clas/devel/VxWorks55/ppc/target/lib/ppc/PPC604/common/libwind.a(taskShow.o)
                              bootConfig.o (taskRegsShow)
/usr/local/clas/devel/VxWorks55/ppc/target/lib/ppc/PPC604/common/libwind.a(tickLib.o)
                              bootConfig.o (tickAnnounce)
/usr/local/clas/devel/VxWorks55/ppc/target/lib/ppc/PPC604/common/libwind.a(wdLib.o)
                              bootConfig.o (wdLibInit)
/usr/local/clas/devel/VxWorks55/ppc/target/lib/ppc/PPC604/common/libwind.a(windLib.o)
                              /usr/local/clas/devel/VxWorks55/ppc/target/lib/ppc/PPC604/common/libwind.a(taskLib.o) (windSpawn)
/usr/local/clas/devel/VxWorks55/ppc/target/lib/ppc/PPC604/common/libwind.a(workQLib.o)
                              bootConfig.o (workQInit)
/usr/local/clas/devel/VxWorks55/ppc/target/lib/ppc/PPC604/common/libwind.a(eventShow.o)
                              /usr/local/clas/devel/VxWorks55/ppc/target/lib/ppc/PPC604/common/libwind.a(taskShow.o) (eventTaskShow)
/usr/local/clas/devel/VxWorks55/ppc/target/lib/ppc/PPC604/common/libwind.a(msgQEvLib.o)
                              /usr/local/clas/devel/VxWorks55/ppc/target/lib/ppc/PPC604/common/libwind.a(msgQLib.o) (msgQEvLibInit)
/usr/local/clas/devel/VxWorks55/ppc/target/lib/ppc/PPC604/common/libwind.a(semEvLib.o)
                              /usr/local/clas/devel/VxWorks55/ppc/target/lib/ppc/PPC604/common/libwind.a(semLib.o) (semEvLibInit)
/usr/local/clas/devel/VxWorks55/ppc/target/lib/ppc/PPC604/common/libwindview.a(wvLib.o)
                              bootConfig.o (wvLibInit)
/usr/local/clas/devel/VxWorks55/ppc/target/lib/ppc/PPC604/common/libwindview.a(evtLogLib.o)
                              /usr/local/clas/devel/VxWorks55/ppc/target/lib/ppc/PPC604/common/libwindview.a(wvLib.o) (evtObjLogFuncBind)
/usr/local/clas/devel/VxWorks55/ppc/target/lib/ppc/PPC604/common/libarch.a(ffsALib.o)
                              /usr/local/clas/devel/VxWorks55/ppc/target/lib/ppc/PPC604/common/libnet.a(netBufLib.o) (ffsMsb)
/usr/local/clas/devel/VxWorks55/ppc/target/lib/ppc/PPC604/common/libarch.a(sigCtxALib.o)
                              /usr/local/clas/devel/VxWorks55/ppc/target/lib/ppc/PPC604/common/libos.a(sigLib.o) (_sigCtxLoad)
/usr/local/clas/devel/VxWorks55/ppc/target/lib/ppc/PPC604/common/libarch.a(sigCtxLib.o)
                              /usr/local/clas/devel/VxWorks55/ppc/target/lib/ppc/PPC604/common/libos.a(sigLib.o) (_sigfaulttable)
/usr/local/clas/devel/VxWorks55/ppc/target/lib/ppc/PPC604/common/libarch.a(taskArchLib.o)
                              /usr/local/clas/devel/VxWorks55/ppc/target/lib/ppc/PPC604/common/libwind.a(taskShow.o) (taskRegName)
/usr/local/clas/devel/VxWorks55/ppc/target/lib/ppc/PPC604/common/libarch.a(windALib.o)
                              /usr/local/clas/devel/VxWorks55/ppc/target/lib/ppc/PPC604/common/libos.a(sigLib.o) (windExit)
/usr/local/clas/devel/VxWorks55/ppc/target/lib/ppc/PPC604/common/libgcc.a(_x_gnu__ashldi3.o)
                              /usr/local/clas/devel/VxWorks55/ppc/target/lib/ppc/PPC604/common/libos.a(dosChkLib.o) (__ashldi3)
/usr/local/clas/devel/VxWorks55/ppc/target/lib/ppc/PPC604/common/libgcc.a(_x_gnu__ashrdi3.o)
                              /usr/local/clas/devel/VxWorks55/ppc/target/lib/ppc/PPC604/common/libos.a(dosFsLib.o) (__ashrdi3)
/usr/local/clas/devel/VxWorks55/ppc/target/lib/ppc/PPC604/common/libgcc.a(_x_gnu__divdi3.o)
                              /usr/local/clas/devel/VxWorks55/ppc/target/lib/ppc/PPC604/common/libos.a(dosChkLib.o) (__divdi3)
/usr/local/clas/devel/VxWorks55/ppc/target/lib/ppc/PPC604/common/libgcc.a(_x_gnu__udivdi3.o)
                              /usr/local/clas/devel/VxWorks55/ppc/target/lib/ppc/PPC604/common/libos.a(clockLib.o) (__udivdi3)
/usr/local/clas/devel/VxWorks55/ppc/target/lib/ppc/PPC604/common/libgcc.a(_x_gnu__umoddi3.o)
                              /usr/local/clas/devel/VxWorks55/ppc/target/lib/ppc/PPC604/common/libos.a(clockLib.o) (__umoddi3)
/usr/local/clas/devel/VxWorks55/ppc/target/lib/ppc/PPC604/common/libos.a(longjmp.o)
                              /usr/local/clas/devel/VxWorks55/ppc/target/lib/ppc/PPC604/common/libarch.a(sigCtxALib.o) (_setjmpSetup)
/usr/local/clas/devel/VxWorks55/ppc/target/lib/ppc/PPC604/common/libos.a(qJobLib.o)
                              /usr/local/clas/devel/VxWorks55/ppc/target/lib/ppc/PPC604/common/libwind.a(msgQLib.o) (qJobTerminate)

Allocating common symbols
Common symbol       size              file

_func_smObjObjShow  0x4               /usr/local/clas/devel/VxWorks55/ppc/target/lib/ppc/PPC604/common/libos.a(funcBind.o)
taskSwitchTable     0x44              /usr/local/clas/devel/VxWorks55/ppc/target/lib/ppc/PPC604/common/libwind.a(taskLib.o)
inetsw              0x340             /usr/local/clas/devel/VxWorks55/ppc/target/lib/ppc/PPC604/common/libnet.a(in_proto.o)
msgQDistShowRtn     0x4               /usr/local/clas/devel/VxWorks55/ppc/target/lib/ppc/PPC604/common/libos.a(funcBind.o)
_func_evtLogT1_noTS
                    0x4               /usr/local/clas/devel/VxWorks55/ppc/target/lib/ppc/PPC604/common/libos.a(funcBind.o)
mCastHashInfo       0x8               /usr/local/clas/devel/VxWorks55/ppc/target/lib/ppc/PPC604/common/libnet.a(in.o)
ifnet               0x4               /usr/local/clas/devel/VxWorks55/ppc/target/lib/ppc/PPC604/common/libnet.a(if.o)
_func_spyStop       0x4               /usr/local/clas/devel/VxWorks55/ppc/target/lib/ppc/PPC604/common/libos.a(funcBind.o)
workQWriteIx        0x1               /usr/local/clas/devel/VxWorks55/ppc/target/lib/ppc/PPC604/common/libwind.a(workQLib.o)
_func_excInfoShow   0x4               /usr/local/clas/devel/VxWorks55/ppc/target/lib/ppc/PPC604/common/libos.a(funcBind.o)
ip_id               0x2               /usr/local/clas/devel/VxWorks55/ppc/target/lib/ppc/PPC604/common/libnet.a(ip_input.o)
_func_evtLogReserveTaskName
                    0x4               /usr/local/clas/devel/VxWorks55/ppc/target/lib/ppc/PPC604/common/libos.a(funcBind.o)
drvTable            0x4               /usr/local/clas/devel/VxWorks55/ppc/target/lib/ppc/PPC604/common/libos.a(iosLib.o)
ip_protox           0x100             /usr/local/clas/devel/VxWorks55/ppc/target/lib/ppc/PPC604/common/libnet.a(ip_input.o)
DCACHE_CTRL         0x80              /usr/local/clas/devel/VxWorks55/ppc/target/lib/ppc/PPC604/common/libos.a(dcacheCbio.o)
global_emfloatstruct
                    0x18              tests/testtool.o
zeroin_addr         0x4               /usr/local/clas/devel/VxWorks55/ppc/target/lib/ppc/PPC604/common/libnet.a(in_pcb.o)
_func_trgCheck      0x4               /usr/local/clas/devel/VxWorks55/ppc/target/lib/ppc/PPC604/common/libos.a(funcBind.o)
pWvNetEventMap      0x4               /usr/local/clas/devel/VxWorks55/ppc/target/lib/ppc/PPC604/common/libos.a(funcBind.o)
frcSysBoardId       0x3               sysLib.o
workQReadIx         0x1               /usr/local/clas/devel/VxWorks55/ppc/target/lib/ppc/PPC604/common/libwind.a(workQLib.o)
use_result_dummy    0x4               tests/testtool.o
cbioClass           0x34              /usr/local/clas/devel/VxWorks55/ppc/target/lib/ppc/PPC604/common/libos.a(cbioLib.o)
ioDefPath           0x100             /usr/local/clas/devel/VxWorks55/ppc/target/lib/ppc/PPC604/common/libos.a(iosLib.o)
_func_taskCreateHookAdd
                    0x4               /usr/local/clas/devel/VxWorks55/ppc/target/lib/ppc/PPC604/common/libos.a(funcBind.o)
somaxconn           0x4               /usr/local/clas/devel/VxWorks55/ppc/target/lib/ppc/PPC604/common/libnet.a(uipc_sock.o)
_func_dspRegsListHook
                    0x4               /usr/local/clas/devel/VxWorks55/ppc/target/lib/ppc/PPC604/common/libos.a(funcBind.o)
_func_tmrConnect    0x4               /usr/local/clas/devel/VxWorks55/ppc/target/lib/ppc/PPC604/common/libos.a(funcBind.o)
max_protohdr        0x4               /usr/local/clas/devel/VxWorks55/ppc/target/lib/ppc/PPC604/common/libnet.a(uipc_dom.o)
_func_evtLogTSched  0x4               /usr/local/clas/devel/VxWorks55/ppc/target/lib/ppc/PPC604/common/libos.a(funcBind.o)
tcpstat             0xd0              /usr/local/clas/devel/VxWorks55/ppc/target/lib/ppc/PPC604/common/libnet.a(tcp_input.o)
vxIntStackBase      0x4               /usr/local/clas/devel/VxWorks55/ppc/target/lib/ppc/PPC604/common/libwind.a(kernelLib.o)
_func_dspTaskRegsShow
                    0x4               /usr/local/clas/devel/VxWorks55/ppc/target/lib/ppc/PPC604/common/libos.a(funcBind.o)
workQIsEmpty        0x4               /usr/local/clas/devel/VxWorks55/ppc/target/lib/ppc/PPC604/common/libwind.a(workQLib.o)
arp_allocated       0x4               /usr/local/clas/devel/VxWorks55/ppc/target/lib/ppc/PPC604/common/libnet.a(if_ether.o)
trgEvtClass         0x4               /usr/local/clas/devel/VxWorks55/ppc/target/lib/ppc/PPC604/common/libos.a(funcBind.o)
_func_selPtyDelete  0x4               /usr/local/clas/devel/VxWorks55/ppc/target/lib/ppc/PPC604/common/libos.a(funcBind.o)
taskSwapTable       0x44              /usr/local/clas/devel/VxWorks55/ppc/target/lib/ppc/PPC604/common/libwind.a(taskLib.o)
_func_evtLogO       0x4               /usr/local/clas/devel/VxWorks55/ppc/target/lib/ppc/PPC604/common/libos.a(funcBind.o)
_func_selWakeupListInit
                    0x4               /usr/local/clas/devel/VxWorks55/ppc/target/lib/ppc/PPC604/common/libos.a(funcBind.o)
global_ofile_name   0x3c              tests/testtool.o
rttrash             0x4               /usr/local/clas/devel/VxWorks55/ppc/target/lib/ppc/PPC604/common/libnet.a(route.o)
semMGiveKernWork    0x4               /usr/local/clas/devel/VxWorks55/ppc/target/lib/ppc/PPC604/common/libwind.a(semMLib.o)
trgCnt              0x4               /usr/local/clas/devel/VxWorks55/ppc/target/lib/ppc/PPC604/common/libos.a(funcBind.o)
errno               0x4               /usr/local/clas/devel/VxWorks55/ppc/target/lib/ppc/PPC604/common/libos.a(errnoLib.o)
pIntf               0x4               frcBibDrv.o
_func_ioTaskStdSet  0x4               /usr/local/clas/devel/VxWorks55/ppc/target/lib/ppc/PPC604/common/libos.a(funcBind.o)
_func_excIntHook    0x4               /usr/local/clas/devel/VxWorks55/ppc/target/lib/ppc/PPC604/common/libos.a(funcBind.o)
_func_selPtyAdd     0x4               /usr/local/clas/devel/VxWorks55/ppc/target/lib/ppc/PPC604/common/libos.a(funcBind.o)
tot_out_error       0x50              tests/testtool.o
kernelState         0x4               /usr/local/clas/devel/VxWorks55/ppc/target/lib/ppc/PPC604/common/libwind.a(windLib.o)
_func_evtLogM1      0x4               /usr/local/clas/devel/VxWorks55/ppc/target/lib/ppc/PPC604/common/libos.a(funcBind.o)
_func_sigExcKill    0x4               /usr/local/clas/devel/VxWorks55/ppc/target/lib/ppc/PPC604/common/libos.a(funcBind.o)
_func_wvNetPortFilterTest
                    0x4               /usr/local/clas/devel/VxWorks55/ppc/target/lib/ppc/PPC604/common/libos.a(funcBind.o)
average_error       0x8               tests/testtool.o
pciConfigAddr2      0x4               pciConfigLib.o
_func_bdall         0x4               /usr/local/clas/devel/VxWorks55/ppc/target/lib/ppc/PPC604/common/libos.a(funcBind.o)
hostList            0xc               /usr/local/clas/devel/VxWorks55/ppc/target/lib/ppc/PPC604/common/libnet.a(hostLib.o)
tickQHead           0x10              /usr/local/clas/devel/VxWorks55/ppc/target/lib/ppc/PPC604/common/libwind.a(kernelLib.o)
global_ofile        0x4               tests/testtool.o
mid_wt_cum_change   0x8c0             tests/testtool.o
_func_symNameGet    0x4               /usr/local/clas/devel/VxWorks55/ppc/target/lib/ppc/PPC604/common/libos.a(funcBind.o)
tcbinfo             0x10              /usr/local/clas/devel/VxWorks55/ppc/target/lib/ppc/PPC604/common/libnet.a(tcp_input.o)
_func_logMsg        0x4               /usr/local/clas/devel/VxWorks55/ppc/target/lib/ppc/PPC604/common/libos.a(funcBind.o)
mid_error           0x40              tests/testtool.o
tcpOutRsts          0x4               /usr/local/clas/devel/VxWorks55/ppc/target/lib/ppc/PPC604/common/libnet.a(tcp_input.o)
_func_tmrFreq       0x4               /usr/local/clas/devel/VxWorks55/ppc/target/lib/ppc/PPC604/common/libos.a(funcBind.o)
excMsgQId           0x4               /usr/local/clas/devel/VxWorks55/ppc/target/lib/ppc/PPC604/common/libos.a(excLib.o)
_clockRealtime      0x10              /usr/local/clas/devel/VxWorks55/ppc/target/lib/ppc/PPC604/common/libos.a(clockLib.o)
global_lustruct     0x18              tests/testtool.o
_func_tmrEnable     0x4               /usr/local/clas/devel/VxWorks55/ppc/target/lib/ppc/PPC604/common/libos.a(funcBind.o)
LUtempvv            0x4               tests/testtool.o
flash_index         0x4               flashDrv.o
_igmpQuerierTimeUpdateHook
                    0x4               /usr/local/clas/devel/VxWorks55/ppc/target/lib/ppc/PPC604/common/libnet.a(igmp.o)
numpats             0x4               tests/testtool.o
msgQDistNumMsgsRtn  0x4               /usr/local/clas/devel/VxWorks55/ppc/target/lib/ppc/PPC604/common/libwind.a(msgQLib.o)
sysFlags            0x4               sysLib.o
_func_excPanicHook  0x4               /usr/local/clas/devel/VxWorks55/ppc/target/lib/ppc/PPC604/common/libos.a(funcBind.o)
_func_spy           0x4               /usr/local/clas/devel/VxWorks55/ppc/target/lib/ppc/PPC604/common/libos.a(funcBind.o)
avg_out_error       0x50              tests/testtool.o
_func_fastUdpInput  0x4               /usr/local/clas/devel/VxWorks55/ppc/target/lib/ppc/PPC604/common/libos.a(funcBind.o)
_func_remCurIdGet   0x4               /usr/local/clas/devel/VxWorks55/ppc/target/lib/ppc/PPC604/common/libos.a(funcBind.o)
_func_ipsecFilterHook
                    0x4               /usr/local/clas/devel/VxWorks55/ppc/target/lib/ppc/PPC604/common/libnet.a(ip_input.o)
_igmpLeaveAlertHook
                    0x4               /usr/local/clas/devel/VxWorks55/ppc/target/lib/ppc/PPC604/common/libnet.a(igmp.o)
consoleName         0x14              bootConfig.o
smObjTcbFreeFailRtn
                    0x4               /usr/local/clas/devel/VxWorks55/ppc/target/lib/ppc/PPC604/common/libwind.a(taskLib.o)
taskBpHook          0x4               /usr/local/clas/devel/VxWorks55/ppc/target/lib/ppc/PPC604/common/libwind.a(taskLib.o)
sigEvtRtn           0x4               /usr/local/clas/devel/VxWorks55/ppc/target/lib/ppc/PPC604/common/libos.a(sigLib.o)
_func_ipsecOutput   0x4               /usr/local/clas/devel/VxWorks55/ppc/target/lib/ppc/PPC604/common/libnet.a(ip_output.o)
_m2IfTableUpdate    0x4               /usr/local/clas/devel/VxWorks55/ppc/target/lib/ppc/PPC604/common/libnet.a(if.o)
_func_selTyDelete   0x4               /usr/local/clas/devel/VxWorks55/ppc/target/lib/ppc/PPC604/common/libos.a(funcBind.o)
_func_pthread_setcanceltype
                    0x4               /usr/local/clas/devel/VxWorks55/ppc/target/lib/ppc/PPC604/common/libos.a(funcBind.o)
_func_evtLogT0      0x4               /usr/local/clas/devel/VxWorks55/ppc/target/lib/ppc/PPC604/common/libos.a(funcBind.o)
in_ifaddr           0x4               /usr/local/clas/devel/VxWorks55/ppc/target/lib/ppc/PPC604/common/libnet.a(ip_input.o)
max_hdr             0x4               /usr/local/clas/devel/VxWorks55/ppc/target/lib/ppc/PPC604/common/libnet.a(uipc_dom.o)
smMemPartShowRtn    0x4               /usr/local/clas/devel/VxWorks55/ppc/target/lib/ppc/PPC604/common/libos.a(funcBind.o)
_func_sseTaskRegsShow
                    0x4               /usr/local/clas/devel/VxWorks55/ppc/target/lib/ppc/PPC604/common/libos.a(funcBind.o)
busIoMemRanges      0x140             pciDevConfig.o
arpMaxEntries       0x4               /usr/local/clas/devel/VxWorks55/ppc/target/lib/ppc/PPC604/common/libnet.a(if_ether.o)
worst_error         0x8               tests/testtool.o
_func_tmrStampLock  0x4               /usr/local/clas/devel/VxWorks55/ppc/target/lib/ppc/PPC604/common/libos.a(funcBind.o)
taskDeleteTable     0x44              /usr/local/clas/devel/VxWorks55/ppc/target/lib/ppc/PPC604/common/libwind.a(taskLib.o)
rt_tables           0x6c              /usr/local/clas/devel/VxWorks55/ppc/target/lib/ppc/PPC604/common/libnet.a(route.o)
ipstat              0x60              /usr/local/clas/devel/VxWorks55/ppc/target/lib/ppc/PPC604/common/libnet.a(ip_input.o)
_func_valloc        0x4               /usr/local/clas/devel/VxWorks55/ppc/target/lib/ppc/PPC604/common/libos.a(funcBind.o)
global_numsortstruct
                    0x18              tests/testtool.o
s1                  0x4               tests/testtool.o
pciConfigAddr0      0x4               pciConfigLib.o
global_bitopstruct  0x18              tests/testtool.o
_igmpMessageHook    0x4               /usr/local/clas/devel/VxWorks55/ppc/target/lib/ppc/PPC604/common/libnet.a(igmp.o)
hourr               0x4               rtc.o
_func_evtLogM3      0x4               /usr/local/clas/devel/VxWorks55/ppc/target/lib/ppc/PPC604/common/libos.a(funcBind.o)
max_linkhdr         0x4               /usr/local/clas/devel/VxWorks55/ppc/target/lib/ppc/PPC604/common/libnet.a(uipc_dom.o)
loif                0x94              /usr/local/clas/devel/VxWorks55/ppc/target/lib/ppc/PPC604/common/libdrv.a(if_loop.o)
_func_fastUdpErrorNotify
                    0x4               /usr/local/clas/devel/VxWorks55/ppc/target/lib/ppc/PPC604/common/libos.a(funcBind.o)
consoleFd           0x4               bootConfig.o
_func_evtLogPoint   0x4               /usr/local/clas/devel/VxWorks55/ppc/target/lib/ppc/PPC604/common/libos.a(funcBind.o)
uflashBuf           0x40020           flashDrv.o
frc_vxworks_size    0x4               bootConfig.o
msgQSmShowRtn       0x4               /usr/local/clas/devel/VxWorks55/ppc/target/lib/ppc/PPC604/common/libos.a(funcBind.o)
_func_symValueGet   0x4               /usr/local/clas/devel/VxWorks55/ppc/target/lib/ppc/PPC604/common/libos.a(funcBind.o)
_func_spyClkStart   0x4               /usr/local/clas/devel/VxWorks55/ppc/target/lib/ppc/PPC604/common/libos.a(funcBind.o)
_func_excBaseHook   0x4               /usr/local/clas/devel/VxWorks55/ppc/target/lib/ppc/PPC604/common/libos.a(funcBind.o)
_func_tmrPeriod     0x4               /usr/local/clas/devel/VxWorks55/ppc/target/lib/ppc/PPC604/common/libos.a(funcBind.o)
dayr                0x4               rtc.o
secr                0x4               rtc.o
_func_altivecProbe  0x4               /usr/local/clas/devel/VxWorks55/ppc/target/lib/ppc/PPC604/common/libos.a(funcBind.o)
learned             0x4               tests/testtool.o
_func_tmrStamp      0x4               /usr/local/clas/devel/VxWorks55/ppc/target/lib/ppc/PPC604/common/libos.a(funcBind.o)
monr                0x4               rtc.o
msgQSmInfoGetRtn    0x4               /usr/local/clas/devel/VxWorks55/ppc/target/lib/ppc/PPC604/common/libos.a(funcBind.o)
_func_ftpLs         0x4               /usr/local/clas/devel/VxWorks55/ppc/target/lib/ppc/PPC604/common/libos.a(funcBind.o)
iteration_count     0x4               tests/testtool.o
sysBootFile         0xa0              sysLib.o
tcp_maxidle         0x4               /usr/local/clas/devel/VxWorks55/ppc/target/lib/ppc/PPC604/common/libnet.a(tcp_timer.o)
pmPartId            0x4               /usr/local/clas/devel/VxWorks55/ppc/target/lib/ppc/PPC604/common/libwindview.a(wvLib.o)
wvInstIsOn          0x4               /usr/local/clas/devel/VxWorks55/ppc/target/lib/ppc/PPC604/common/libos.a(funcBind.o)
sysPhysMemDescNumEnt
                    0x4               sysLib.o
mid_wt_change       0x8c0             tests/testtool.o
semClass            0x34              /usr/local/clas/devel/VxWorks55/ppc/target/lib/ppc/PPC604/common/libwind.a(semLib.o)
semInstClass        0x34              /usr/local/clas/devel/VxWorks55/ppc/target/lib/ppc/PPC604/common/libwind.a(semLib.o)
smObjTaskDeleteFailRtn
                    0x4               /usr/local/clas/devel/VxWorks55/ppc/target/lib/ppc/PPC604/common/libwind.a(taskLib.o)
_func_evtLogM2      0x4               /usr/local/clas/devel/VxWorks55/ppc/target/lib/ppc/PPC604/common/libos.a(funcBind.o)
pJobPool            0x400             /usr/local/clas/devel/VxWorks55/ppc/target/lib/ppc/PPC604/common/libwind.a(workQLib.o)
numpasses           0x4               tests/testtool.o
tcp_alpha           0x4               /usr/local/clas/devel/VxWorks55/ppc/target/lib/ppc/PPC604/common/libnet.a(tcp_input.o)
udpstat             0x28              /usr/local/clas/devel/VxWorks55/ppc/target/lib/ppc/PPC604/common/libnet.a(udp_usrreq.o)
mask_rnhead         0x4               /usr/local/clas/devel/VxWorks55/ppc/target/lib/ppc/PPC604/common/libnet.a(radix.o)
_func_evtLogT0_noInt
                    0x4               /usr/local/clas/devel/VxWorks55/ppc/target/lib/ppc/PPC604/common/libos.a(funcBind.o)
_func_spyReport     0x4               /usr/local/clas/devel/VxWorks55/ppc/target/lib/ppc/PPC604/common/libos.a(funcBind.o)
msgQDistInfoGetRtn  0x4               /usr/local/clas/devel/VxWorks55/ppc/target/lib/ppc/PPC604/common/libos.a(funcBind.o)
_func_selTyAdd      0x4               /usr/local/clas/devel/VxWorks55/ppc/target/lib/ppc/PPC604/common/libos.a(funcBind.o)
_igmpJoinAlertHook  0x4               /usr/local/clas/devel/VxWorks55/ppc/target/lib/ppc/PPC604/common/libnet.a(igmp.o)
_func_fclose        0x4               /usr/local/clas/devel/VxWorks55/ppc/target/lib/ppc/PPC604/common/libos.a(funcBind.o)
sysSymTbl           0x4               bootConfig.o
mem_array           0xa0              tests/testtool.o
evtBufferId         0x4               /usr/local/clas/devel/VxWorks55/ppc/target/lib/ppc/PPC604/common/libwindview.a(evtLogLib.o)
vxAbsTicks          0x8               /usr/local/clas/devel/VxWorks55/ppc/target/lib/ppc/PPC604/common/libwind.a(tickLib.o)
in_interfaces       0x4               /usr/local/clas/devel/VxWorks55/ppc/target/lib/ppc/PPC604/common/libnet.a(in.o)
ppGlobalEnviron     0x4               /usr/local/clas/devel/VxWorks55/ppc/target/lib/ppc/PPC604/common/libos.a(envLib.o)
smObjTcbFreeRtn     0x4               /usr/local/clas/devel/VxWorks55/ppc/target/lib/ppc/PPC604/common/libwind.a(taskLib.o)
msgQSmReceiveRtn    0x4               /usr/local/clas/devel/VxWorks55/ppc/target/lib/ppc/PPC604/common/libwind.a(msgQLib.o)
_m2SetIfLastChange  0x4               /usr/local/clas/devel/VxWorks55/ppc/target/lib/ppc/PPC604/common/libnet.a(if.o)
mid_out             0x40              tests/testtool.o
smMemPartOptionsSetRtn
                    0x4               /usr/local/clas/devel/VxWorks55/ppc/target/lib/ppc/PPC604/common/libos.a(memLib.o)
_func_spyClkStop    0x4               /usr/local/clas/devel/VxWorks55/ppc/target/lib/ppc/PPC604/common/libos.a(funcBind.o)
global_huffstruct   0x18              tests/testtool.o
yearr               0x4               rtc.o
mid_wts             0x8c0             tests/testtool.o
global_min_seconds  0x4               tests/testtool.o
wildcard            0x10              /usr/local/clas/devel/VxWorks55/ppc/target/lib/ppc/PPC604/common/libnet.a(route.o)
pciConfigAddr1      0x4               pciConfigLib.o
out_wt_cum_change   0x200             tests/testtool.o
pciActive           0x4               pciScan.o
pAltivecTaskIdPrevious
                    0x4               /usr/local/clas/devel/VxWorks55/ppc/target/lib/ppc/PPC604/common/libarch.a(altivecLib.o)
geidevices          0x14              pciDevConfig.o
tcp_msl             0x4               /usr/local/clas/devel/VxWorks55/ppc/target/lib/ppc/PPC604/common/libnet.a(tcp_input.o)
start_addr          0x4               tests/testtool.o
global_allstats     0x4               tests/testtool.o
msgQDistSendRtn     0x4               /usr/local/clas/devel/VxWorks55/ppc/target/lib/ppc/PPC604/common/libwind.a(msgQLib.o)
_func_tmrDisable    0x4               /usr/local/clas/devel/VxWorks55/ppc/target/lib/ppc/PPC604/common/libos.a(funcBind.o)
rn_mkfreelist       0x4               /usr/local/clas/devel/VxWorks55/ppc/target/lib/ppc/PPC604/common/libnet.a(radix.o)
global_strsortstruct
                    0x18              tests/testtool.o
global_min_ticks    0x4               tests/testtool.o
_func_evtLogString  0x4               /usr/local/clas/devel/VxWorks55/ppc/target/lib/ppc/PPC604/common/libos.a(funcBind.o)
tcp_beta            0x4               /usr/local/clas/devel/VxWorks55/ppc/target/lib/ppc/PPC604/common/libnet.a(tcp_input.o)
splSemId            0x4               /usr/local/clas/devel/VxWorks55/ppc/target/lib/ppc/PPC604/common/libnet.a(unixLib.o)
udb                 0x4               /usr/local/clas/devel/VxWorks55/ppc/target/lib/ppc/PPC604/common/libnet.a(udp_usrreq.o)
flashBuf            0x10000           bFlashDrv.o
arp_inuse           0x4               /usr/local/clas/devel/VxWorks55/ppc/target/lib/ppc/PPC604/common/libnet.a(if_ether.o)
altivecCreateHookRtn
                    0x4               /usr/local/clas/devel/VxWorks55/ppc/target/lib/ppc/PPC604/common/libarch.a(altivecLib.o)
write_to_file       0x4               tests/testtool.o
memsplit            0x4               tests/testtool.o
wvEvtClass          0x4               /usr/local/clas/devel/VxWorks55/ppc/target/lib/ppc/PPC604/common/libos.a(funcBind.o)
splTid              0x4               /usr/local/clas/devel/VxWorks55/ppc/target/lib/ppc/PPC604/common/libnet.a(unixLib.o)
taskIdCurrent       0x4               /usr/local/clas/devel/VxWorks55/ppc/target/lib/ppc/PPC604/common/libwind.a(taskLib.o)
ipintrq             0x14              /usr/local/clas/devel/VxWorks55/ppc/target/lib/ppc/PPC604/common/libnet.a(ip_input.o)
rootTaskId          0x4               /usr/local/clas/devel/VxWorks55/ppc/target/lib/ppc/PPC604/common/libwind.a(kernelLib.o)
_func_symFindSymbol
                    0x4               /usr/local/clas/devel/VxWorks55/ppc/target/lib/ppc/PPC604/common/libos.a(funcBind.o)
end_addr            0x4               tests/testtool.o
_func_printErr      0x4               /usr/local/clas/devel/VxWorks55/ppc/target/lib/ppc/PPC604/common/libos.a(funcBind.o)
roundRobinSlice     0x4               /usr/local/clas/devel/VxWorks55/ppc/target/lib/ppc/PPC604/common/libwind.a(kernelLib.o)
_func_ipsecInput    0x4               /usr/local/clas/devel/VxWorks55/ppc/target/lib/ppc/PPC604/common/libnet.a(ip_input.o)
dater               0x4               rtc.o
_func_evtLogT1      0x4               /usr/local/clas/devel/VxWorks55/ppc/target/lib/ppc/PPC604/common/libos.a(funcBind.o)
tcp_now             0x4               /usr/local/clas/devel/VxWorks55/ppc/target/lib/ppc/PPC604/common/libnet.a(tcp_input.o)
localToGlobalOffset
                    0x4               /usr/local/clas/devel/VxWorks55/ppc/target/lib/ppc/PPC604/common/libwind.a(windLib.o)
_func_taskDeleteHookAdd
                    0x4               /usr/local/clas/devel/VxWorks55/ppc/target/lib/ppc/PPC604/common/libos.a(funcBind.o)
netTaskId           0x4               /usr/local/clas/devel/VxWorks55/ppc/target/lib/ppc/PPC604/common/libnet.a(netLib.o)
out_out             0x40              tests/testtool.o
_func_netLsByName   0x4               /usr/local/clas/devel/VxWorks55/ppc/target/lib/ppc/PPC604/common/libos.a(funcBind.o)
vxTicks             0x4               /usr/local/clas/devel/VxWorks55/ppc/target/lib/ppc/PPC604/common/libwind.a(tickLib.o)
flocalBuf           0x20              flashDrv.o
bp2                 0x4               tests/testtool.o
count               0x4               tests/testtool.o
silent_test         0x4               tests/testtool.o
altivecDisplayHookRtn
                    0x4               /usr/local/clas/devel/VxWorks55/ppc/target/lib/ppc/PPC604/common/libarch.a(altivecLib.o)
_func_fppTaskRegsShow
                    0x4               /usr/local/clas/devel/VxWorks55/ppc/target/lib/ppc/PPC604/common/libos.a(funcBind.o)
_func_altivecTaskRegsGet
                    0x4               /usr/local/clas/devel/VxWorks55/ppc/target/lib/ppc/PPC604/common/libos.a(funcBind.o)
sdramSize           0x4               bootConfig.o
_func_symFindByValue
                    0x4               /usr/local/clas/devel/VxWorks55/ppc/target/lib/ppc/PPC604/common/libos.a(funcBind.o)
excExcepHook        0x4               /usr/local/clas/devel/VxWorks55/ppc/target/lib/ppc/PPC604/common/libos.a(excLib.o)
s2                  0x4               tests/testtool.o
smObjPoolMinusOne   0x4               /usr/local/clas/devel/VxWorks55/ppc/target/lib/ppc/PPC604/common/libwind.a(windLib.o)
minr                0x4               rtc.o
outBuffer           0x64              tests/testtool.o
mem_array_ents      0x4               tests/testtool.o
buf                 0x4               tests/testtool.o
tests_to_do         0x28              tests/testtool.o
ipforward_rt        0x14              /usr/local/clas/devel/VxWorks55/ppc/target/lib/ppc/PPC604/common/libnet.a(ip_input.o)
_func_selWakeupListTerm
                    0x4               /usr/local/clas/devel/VxWorks55/ppc/target/lib/ppc/PPC604/common/libos.a(funcBind.o)
msgQSmNumMsgsRtn    0x4               /usr/local/clas/devel/VxWorks55/ppc/target/lib/ppc/PPC604/common/libwind.a(msgQLib.o)
eventEvtRtn         0x4               /usr/local/clas/devel/VxWorks55/ppc/target/lib/ppc/PPC604/common/libwind.a(eventLib.o)
smMemPartFindMaxRtn
                    0x4               /usr/local/clas/devel/VxWorks55/ppc/target/lib/ppc/PPC604/common/libos.a(memLib.o)
vxIntStackEnd       0x4               /usr/local/clas/devel/VxWorks55/ppc/target/lib/ppc/PPC604/common/libwind.a(kernelLib.o)
_func_memalign      0x4               /usr/local/clas/devel/VxWorks55/ppc/target/lib/ppc/PPC604/common/libos.a(funcBind.o)
feidevices          0x28              pciDevConfig.o
ipDrvCtrl           0x188             bootConfig.o
rootMemNBytes       0x4               /usr/local/clas/devel/VxWorks55/ppc/target/lib/ppc/PPC604/common/libwind.a(kernelLib.o)
_func_evtLogM0      0x4               /usr/local/clas/devel/VxWorks55/ppc/target/lib/ppc/PPC604/common/libos.a(funcBind.o)
semSmShowRtn        0x4               /usr/local/clas/devel/VxWorks55/ppc/target/lib/ppc/PPC604/common/libos.a(funcBind.o)
_func_sigprocmask   0x4               /usr/local/clas/devel/VxWorks55/ppc/target/lib/ppc/PPC604/common/libos.a(funcBind.o)
_func_symTypeGet    0x4               /usr/local/clas/devel/VxWorks55/ppc/target/lib/ppc/PPC604/common/libos.a(funcBind.o)
out_wts             0x200             tests/testtool.o
_pSigQueueFreeHead  0x4               /usr/local/clas/devel/VxWorks55/ppc/target/lib/ppc/PPC604/common/libos.a(sigLib.o)
igmpstat            0x24              /usr/local/clas/devel/VxWorks55/ppc/target/lib/ppc/PPC604/common/libnet.a(igmp.o)
out_error           0x40              tests/testtool.o
cookieTbl           0x200             bootConfig.o
_func_altivecTaskRegsShow
                    0x4               /usr/local/clas/devel/VxWorks55/ppc/target/lib/ppc/PPC604/common/libos.a(funcBind.o)
tcp_saveti          0x28              /usr/local/clas/devel/VxWorks55/ppc/target/lib/ppc/PPC604/common/libnet.a(tcp_input.o)
tcpcb               0x4               /usr/local/clas/devel/VxWorks55/ppc/target/lib/ppc/PPC604/common/libnet.a(tcp_input.o)
arp_intimer         0x4               /usr/local/clas/devel/VxWorks55/ppc/target/lib/ppc/PPC604/common/libnet.a(if_ether.o)
_func_remCurIdSet   0x4               /usr/local/clas/devel/VxWorks55/ppc/target/lib/ppc/PPC604/common/libos.a(funcBind.o)
rtstat              0xa               /usr/local/clas/devel/VxWorks55/ppc/target/lib/ppc/PPC604/common/libnet.a(route.o)
taskCreateTable     0x44              /usr/local/clas/devel/VxWorks55/ppc/target/lib/ppc/PPC604/common/libwind.a(taskLib.o)
frcModNumBase       0x4               frcBibShow.o
global_align        0x4               tests/testtool.o
readyQHead          0x10              /usr/local/clas/devel/VxWorks55/ppc/target/lib/ppc/PPC604/common/libwind.a(kernelLib.o)
panicSuspend        0x4               /usr/local/clas/devel/VxWorks55/ppc/target/lib/ppc/PPC604/common/libnet.a(unixLib.o)
sysStartType        0x4               bootConfig.o
sysBootHost         0xa0              sysLib.o
_func_dspMregsHook  0x4               /usr/local/clas/devel/VxWorks55/ppc/target/lib/ppc/PPC604/common/libos.a(funcBind.o)
maxFiles            0x4               /usr/local/clas/devel/VxWorks55/ppc/target/lib/ppc/PPC604/common/libos.a(iosLib.o)
pCookie             0x4               bootConfig.o
_func_excJobAdd     0x4               /usr/local/clas/devel/VxWorks55/ppc/target/lib/ppc/PPC604/common/libos.a(funcBind.o)
_ipCfgFlags         0x4               /usr/local/clas/devel/VxWorks55/ppc/target/lib/ppc/PPC604/common/libnet.a(ip_input.o)
_func_spyTask       0x4               /usr/local/clas/devel/VxWorks55/ppc/target/lib/ppc/PPC604/common/libos.a(funcBind.o)
smMemPartReallocRtn
                    0x4               /usr/local/clas/devel/VxWorks55/ppc/target/lib/ppc/PPC604/common/libos.a(memLib.o)
global_custrun      0x4               tests/testtool.o
tcp_iss             0x4               /usr/local/clas/devel/VxWorks55/ppc/target/lib/ppc/PPC604/common/libnet.a(tcp_input.o)
pMibRtn             0x4               /usr/local/clas/devel/VxWorks55/ppc/target/lib/ppc/PPC604/common/libdrv.a(endLib.o)
endM2Tbl            0x204             bootConfig.o
_func_wvNetAddressFilterTest
                    0x4               /usr/local/clas/devel/VxWorks55/ppc/target/lib/ppc/PPC604/common/libos.a(funcBind.o)
taskSwapReference   0x44              /usr/local/clas/devel/VxWorks55/ppc/target/lib/ppc/PPC604/common/libwind.a(taskLib.o)
msgQSmSendRtn       0x4               /usr/local/clas/devel/VxWorks55/ppc/target/lib/ppc/PPC604/common/libwind.a(msgQLib.o)
global_assignstruct
                    0x18              tests/testtool.o
cenr                0x4               rtc.o
_func_fastUdpPortTest
                    0x4               /usr/local/clas/devel/VxWorks55/ppc/target/lib/ppc/PPC604/common/libos.a(funcBind.o)
_func_selWakeupAll  0x4               /usr/local/clas/devel/VxWorks55/ppc/target/lib/ppc/PPC604/common/libos.a(funcBind.o)
maxDrivers          0x4               /usr/local/clas/devel/VxWorks55/ppc/target/lib/ppc/PPC604/common/libos.a(iosLib.o)
usrflashBuf         0x10000           flashDrv.o
flashBufNV          0x2100            bFlashDrv.o
max_keylen          0x4               /usr/local/clas/devel/VxWorks55/ppc/target/lib/ppc/PPC604/common/libnet.a(radix.o)
excTaskId           0x4               /usr/local/clas/devel/VxWorks55/ppc/target/lib/ppc/PPC604/common/libos.a(excLib.o)
wvObjIsEnabled      0x4               /usr/local/clas/devel/VxWorks55/ppc/target/lib/ppc/PPC604/common/libos.a(funcBind.o)
ipq                 0x1c              /usr/local/clas/devel/VxWorks55/ppc/target/lib/ppc/PPC604/common/libnet.a(ip_input.o)
pRootMemStart       0x4               /usr/local/clas/devel/VxWorks55/ppc/target/lib/ppc/PPC604/common/libwind.a(kernelLib.o)
global_nnetstruct   0x18              tests/testtool.o
bp1                 0x4               tests/testtool.o
fdTable             0x4               /usr/local/clas/devel/VxWorks55/ppc/target/lib/ppc/PPC604/common/libos.a(iosLib.o)
global_ideastruct   0x18              tests/testtool.o
statSymTbl          0x4               bootConfig.o
roundRobinOn        0x4               /usr/local/clas/devel/VxWorks55/ppc/target/lib/ppc/PPC604/common/libwind.a(kernelLib.o)
readyQBMap          0x824             bootConfig.o
domains             0x4               /usr/local/clas/devel/VxWorks55/ppc/target/lib/ppc/PPC604/common/libnet.a(uipc_dom.o)
global_fourierstruct
                    0x18              tests/testtool.o
_func_sigTimeoutRecalc
                    0x4               /usr/local/clas/devel/VxWorks55/ppc/target/lib/ppc/PPC604/common/libos.a(funcBind.o)
icmpstat            0xb8              /usr/local/clas/devel/VxWorks55/ppc/target/lib/ppc/PPC604/common/libnet.a(ip_icmp.o)
kernelIsIdle        0x4               /usr/local/clas/devel/VxWorks55/ppc/target/lib/ppc/PPC604/common/libwind.a(windLib.o)
vxEventPendQ        0x10              /usr/local/clas/devel/VxWorks55/ppc/target/lib/ppc/PPC604/common/libwind.a(eventLib.o)
iosDvList           0x8               /usr/local/clas/devel/VxWorks55/ppc/target/lib/ppc/PPC604/common/libos.a(iosLib.o)
dcacheCtrl          0x800             /usr/local/clas/devel/VxWorks55/ppc/target/lib/ppc/PPC604/common/libos.a(dcacheCbio.o)
_func_symFindByValueAndType
                    0x4               /usr/local/clas/devel/VxWorks55/ppc/target/lib/ppc/PPC604/common/libos.a(funcBind.o)
semSmInfoRtn        0x4               /usr/local/clas/devel/VxWorks55/ppc/target/lib/ppc/PPC604/common/libos.a(funcBind.o)
udbinfo             0x10              /usr/local/clas/devel/VxWorks55/ppc/target/lib/ppc/PPC604/common/libnet.a(udp_usrreq.o)
membytes            0x4               tests/testtool.o
ftiming             0x4               tests/testtool.o
msgQDistReceiveRtn  0x4               /usr/local/clas/devel/VxWorks55/ppc/target/lib/ppc/PPC604/common/libwind.a(msgQLib.o)
_func_evtLogOIntLock
                    0x4               /usr/local/clas/devel/VxWorks55/ppc/target/lib/ppc/PPC604/common/libos.a(funcBind.o)
_func_taskRegsShowRtn
                    0x4               /usr/local/clas/devel/VxWorks55/ppc/target/lib/ppc/PPC604/common/libwind.a(taskShow.o)
out_wt_change       0x200             tests/testtool.o

Memory Configuration

Name             Origin             Length             Attributes
*default*        0x00000000         0xffffffff

Linker script and memory map

Address of section .text set to 0x400000
LOAD bootConfig.o
LOAD version.o
LOAD sysALib.o
LOAD sysLib.o
LOAD itab.o
LOAD pciConfigLib.o
LOAD pciDevConfig.o
LOAD pciScan.o
LOAD gtInitLib.o
LOAD gtIntControl.o
LOAD sysIntCtrl.o
LOAD userRsrvMem.o
LOAD gtCore.o
LOAD gtPci.o
LOAD gtMemory.o
LOAD gtDma.o
LOAD gtSram.o
LOAD vxGppIntCtrl.o
LOAD gtSmp.o
LOAD vxDbIntCtrl.o
LOAD gtCntmr.o
LOAD vxCntmrIntCtrl.o
LOAD vxDmaIntCtrl.o
LOAD vxWatchDog.o
LOAD ethernet.o
LOAD vxEthernetIntCtrl.o
LOAD mgiEnd.obj
LOAD brg.o
LOAD cunit.o
LOAD vxCunitIntCtrl.o
LOAD mpsc.o
LOAD vxMpscIntCtrl.o
LOAD sdma.o
LOAD vxSdmaIntCtrl.o
LOAD serialChan.o
LOAD vxMpscUart.o
LOAD dbgprints.o
LOAD sysRamDrv.o
LOAD bFlashDrv.o
LOAD flashDrv.o
LOAD i2cDrv.o
LOAD rtc.o
LOAD frcBibShow.o
LOAD frcBibDrv.o
LOAD bibSupport.o
LOAD pciBoot.o
LOAD regFileBurn.o
LOAD vpd.o
LOAD tests/testtool.o
LOAD usrDma.o
LOAD sysAUtil.o
START GROUP
LOAD /usr/local/clas/devel/VxWorks55/ppc/target/lib/ppc/PPC604/gnu/libcplus.a
LOAD /usr/local/clas/devel/VxWorks55/ppc/target/lib/ppc/PPC604/gnu/libgnucplus.a
LOAD /usr/local/clas/devel/VxWorks55/ppc/target/lib/ppc/PPC604/gnu/libvxcom.a
LOAD /usr/local/clas/devel/VxWorks55/ppc/target/lib/ppc/PPC604/common/libarch.a
LOAD /usr/local/clas/devel/VxWorks55/ppc/target/lib/ppc/PPC604/common/libcommoncc.a
LOAD /usr/local/clas/devel/VxWorks55/ppc/target/lib/ppc/PPC604/common/libdcc.a
LOAD /usr/local/clas/devel/VxWorks55/ppc/target/lib/ppc/PPC604/common/libdrv.a
LOAD /usr/local/clas/devel/VxWorks55/ppc/target/lib/ppc/PPC604/common/libgcc.a
LOAD /usr/local/clas/devel/VxWorks55/ppc/target/lib/ppc/PPC604/common/libnet.a
LOAD /usr/local/clas/devel/VxWorks55/ppc/target/lib/ppc/PPC604/common/libos.a
LOAD /usr/local/clas/devel/VxWorks55/ppc/target/lib/ppc/PPC604/common/librpc.a
LOAD /usr/local/clas/devel/VxWorks55/ppc/target/lib/ppc/PPC604/common/libtffs.a
LOAD /usr/local/clas/devel/VxWorks55/ppc/target/lib/ppc/PPC604/common/libwdb.a
LOAD /usr/local/clas/devel/VxWorks55/ppc/target/lib/ppc/PPC604/common/libwind.a
LOAD /usr/local/clas/devel/VxWorks55/ppc/target/lib/ppc/PPC604/common/libwindview.a
LOAD /usr/local/clas/devel/VxWorks55/ppc/target/lib/libPPC604gnuvx.a
END GROUP

.text           0x00400000    0xe55e0
                0x00400000                wrs_kernel_text_start=.
                0x00400000                _wrs_kernel_text_start=.
 *(.text)
 .text          0x00400000     0x255c bootConfig.o
                0x00400000                compressedEntry
                0x004001a8                usrRoot
                0x00400024                usrKernelInit
                0x004000c0                usrInit
                0x00400444                usrClock
 .text          0x0040255c      0x9a0 sysALib.o
                0x00402bcc                sysOutByte
                0x00402bb8                sysInByte
                0x00402d54                sysL2BackEnable
                0x00402d7c                sysL2BackDisable
                0x00402c38                __READ_FLASH64
                0x00402ae8                sysGetCpuVer
                0x00402bec                GET_THRM1
                0x00402db0                sysL2BackHWFlush
                0x00402988                _initialize_dbg_uart
                0x0040255c                _sysInit
                0x00402ebc                sysL1DcacheEnable
                0x00402c04                SET_THRM1
                0x00402ba8                sysL2crGet
                0x00402b98                sysGetL3CR
                0x00402bf8                GET_THRM3
                0x00402b08                sysSioRead
                0x00402e50                sysL2BackInit
                0x00402af4                sysGetCpuRev
                0x00402bb0                sysGetSDR1
                0x00402a90                sysMemProbeSup
                0x00402b24                sysSioWrite
                0x00402c24                __WRITE_FLASH64
                0x00402c4c                frccachePpcEnable
                0x00402b4c                sysRdCpuReg
                0x00402c9c                sysL2BackGlobalInv
                0x00402ba0                sysL2crPut
                0x00402ae8                sysGetPrid
                0x00402c14                SET_THRM3
                0x00402bdc                vxHid1Set
                0x00402ee4                sysL1DcacheDisable
                0x00402b90                sysGetL2CR
 .text          0x00402efc     0x253c sysLib.o
                0x0040435c                sysHwInit2
                0x0040321c                sysSerialHwInit
                0x00405178                readreg
                0x004038c0                frcPrintVariant
                0x00404a44                gtRegReadBlock
                0x00403154                sysTimestampFreq
                0x00403058                sysClkRateGet
                0x004044d8                sysProcNumSet
                0x00403394                sysSerialChanGet
                0x004037a4                frcGetBank1MemSize
                0x004043d8                sysOutWord
                0x00403064                sysClkRateSet
                0x004031a8                sysTimestampLock
                0x004051b8                sysHardReset
                0x00403b8c                frcPrintBoardInfo
                0x00403a7c                frcMv64360SiliconVersion
                0x00403160                sysTimestamp
                0x004032e4                sysSerialHwInit2
                0x004044e4                sysCpuCheck
                0x0040340c                frcGetPcbRev
                0x0040303c                sysClkDisable
                0x004037b4                frcPrintBank1MemSize
                0x004030a8                sysTimestampEnable
                0x00404a3c                sysVirtToPhys
                0x00403c40                sysModel
                0x00405238                pciIsr
                0x00405064                rdreg
                0x004046a4                sysMsDelay
                0x00404930                sysMmuPteShow
                0x004050b0                wrreg
                0x004038b0                frcGetVariant
                0x00404464                sysMemTop
                0x004036c4                frcGetBank0MemSize
                0x00404a84                gtRegWriteBlock
                0x0040341c                frcPrintPcbRev
                0x0040474c                sysNvRamGet
                0x00404150                sysBspRev
                0x004034f0                frcPrintBomRev
                0x0040415c                flashBootSectorInit
                0x00402ffc                sysClkEnable
                0x00404680                sysDelay
                0x00404ac4                memoryRead
                0x00403604                frcPrintUserFlashSize
                0x00404a40                sysPhysToVirt
                0x004052a0                sysBusToLocalAdrs
                0x00403104                sysTimestampDisable
                0x00404410                sysInWord
                0x00405348                hostName
                0x0040528c                sysGetBusSpd
                0x00404af4                showMap
                0x004043ec                sysOutLong
                0x004040dc                sysAltivecProbe
                0x004048d4                sysMmuMapAdd
                0x004044a8                sysToMonitor
                0x004053c0                targetName
                0x00403a6c                frcGetExtSramSize
                0x004050f8                memRead
                0x00403bc4                frcCPUClockGet
                0x00403afc                frcPrintMv64360Version
                0x004033d4                frcBoardIdInit
                0x00404458                sysPhysMemTop
                0x00402f70                sysClkConnect
                0x004052a4                sysUsDelay
                0x004036d4                frcPrintBank0MemSize
                0x004035f4                frcGetUserFlashSize
                0x004044cc                sysProcNumGet
                0x00404428                sysInLong
                0x00403148                sysTimestampPeriod
                0x00403a5c                frcGetFlashOrg
                0x004030a0                sysTimestampConnect
                0x00405298                intDisconnect
                0x004047e8                sysNvRamSet
                0x004041bc                sysHwInit
 .text          0x00405438     0x175c pciConfigLib.o
                0x00405b5c                pciConfigBdfPack
                0x004057c0                pciFindClass
                0x00406970                pciConfigModifyByte
                0x00406878                pciConfigModifyWord
                0x00405f6c                pciConfigInLong
                0x0040659c                pciConfigOutLong
                0x00406780                pciConfigModifyLong
                0x00405d6c                pciConfigInWord
                0x0040635c                pciConfigOutWord
                0x00405564                pciFindDevice
                0x0040549c                pciConfigLibInit
                0x00406a60                pciSpecialCycle
                0x00406128                pciConfigOutByte
                0x00405a0c                pciDevConfig
                0x00405b74                pciConfigInByte
 .text          0x00406b94     0x11b8 pciDevConfig.o
                0x00406f28                pciBusProbe
                0x00406b94                pciAutoConfig
                0x00407c90                sysPciConfigInsertLong
                0x00406c88                pciAutoConfigNonMonarch
 .text          0x00407d4c      0xad0 pciScan.o
                0x004084a8                frcPciConfigReadVPD
                0x00407de8                pciScan
                0x00408250                frcPciSetActive
                0x0040857c                frcPciShow
                0x00407d5c                gtPciGetMaxBusNo
                0x00408528                frcPciConfigWriteVPD
                0x00407d4c                gtPciCpuDevNum
                0x00407d64                gtPciIntrToVecNum
 .text          0x0040881c      0x4f8 gtInitLib.o
                0x00408ad8                gtInitSdramSize
                0x0040881c                gtInit
                0x00408c60                gtInitWindows
 .text          0x00408d14      0x89c gtIntControl.o
                0x004092dc                gtIntDisable
                0x00408d40                gtIntConnect
                0x00408d14                gtIntCtrlInit
                0x00408fe0                gtIntDisconnect
                0x0040921c                gtIntEnable
 .text          0x004095b0      0xbd4 sysIntCtrl.o
                0x00409700                sysMachChkExcpInit
                0x004095b0                sysIntCtrlInit
                0x00409908                sysMachChkExcpHand
                0x00409658                sysIntEnable
 .text          0x0040a184      0x104 userRsrvMem.o
                0x0040a224                userRsrvMemMallocAligned
                0x0040a184                userRsrvMemInit
                0x0040a1f4                userRsrvMemMalloc
 .text          0x0040a288        0x8 gtCore.o
                0x0040a288                __eabi
 .text          0x0040a290     0x23a4 gtPci.o
                0x0040b310                gtPci0MapMemoryBank2
                0x0040c4f0                gtPci0EnableBrokenAgentDetection
                0x0040a9a4                gtPci0GetMemory2Size
                0x0040c5d4                gtPci0GetBusMode
                0x0040b48c                gtPci0MapMemoryBank3
                0x0040bd74                gtPci0MapP2pMem0Space
                0x0040afc4                gtPci0MapInternalRegIOSpace
                0x0040a6d4                gtPci0MapMemory2space
                0x0040a65c                gtPci0MapMemory1space
                0x0040c06c                gtPci0MapP2pIoSpace
                0x0040a80c                gtPci0GetIOspaceSize
                0x0040a76c                gtPci0MapMemory3space
                0x0040c28c                gtPci0SetRegionFeatures
                0x0040b24c                gtPci0MapMemoryBank1DAC
                0x0040a894                gtPci0GetMemory0Size
                0x0040bfa8                gtPci0MapP2pMem1SpaceDAC
                0x0040bef0                gtPci0MapP2pMem1Space
                0x0040ba7c                gtPci0MapDevice3MemorySpace
                0x0040a86c                gtPci0GetMemory0Base
                0x0040c5a4                gtPci0P2PConfig
                0x0040c1c8                gtPci0MapCPUspaceDAC
                0x0040aa2c                gtPci0GetMemory3Size
                0x0040a97c                gtPci0GetMemory2Base
                0x0040aeb8                gtPci0MapInternalRegSpace
                0x0040a364                _frcPci0ReadConfigReg
                0x0040b034                gtPci0MapMemoryBank0
                0x0040bcb0                gtPci0MapBootDeviceMemorySpaceDAC
                0x0040aa8c                gtPci0ScanSelfBars
                0x0040a290                _frcPci0WriteConfigReg
                0x0040b3c8                gtPci0MapMemoryBank2DAC
                0x0040c330                gtPci0SetRegionFeaturesDAC
                0x0040a91c                gtPci0GetMemory1Size
                0x0040a7e4                gtPci0GetIOspaceBase
                0x0040a8f4                gtPci0GetMemory1Base
                0x0040c410                gtPci0DisableAccessRegion
                0x0040bbf8                gtPci0MapBootDeviceMemorySpace
                0x0040b9b8                gtPci0MapDevice2MemorySpaceDAC
                0x0040b544                gtPci0MapMemoryBank3DAC
                0x0040c110                gtPci0MapCPUspace
                0x0040b900                gtPci0MapDevice2MemorySpace
                0x0040bb34                gtPci0MapDevice3MemorySpaceDAC
                0x0040b194                gtPci0MapMemoryBank1
                0x0040a48c                gtPci0OverBridgeWriteConfigReg
                0x0040a4f4                gtPci0OverBridgeReadConfigReg
                0x0040a5e8                gtPci0MapMemory0space
                0x0040c574                gtPci0DisableBrokenAgentDetection
                0x0040b83c                gtPci0MapDevice1MemorySpaceDAC
                0x0040a3dc                frcPci0ReadConfigReg
                0x0040c460                gtPci0ArbiterDisable
                0x0040a574                gtPci0MapIOspace
                0x0040af38                gtPci0MapInternalRegSpaceDAC
                0x0040b6c0                gtPci0MapDevice0MemorySpaceDAC
                0x0040a2e0                frcPci0WriteConfigReg
                0x0040b0d0                gtPci0MapMemoryBank0DAC
                0x0040aa04                gtPci0GetMemory3Base
                0x0040be2c                gtPci0MapP2pMem0SpaceDAC
                0x0040b784                gtPci0MapDevice1MemorySpace
                0x0040c48c                gtPci0ParkingDisable
                0x0040c434                gtPci0ArbiterEnable
                0x0040b608                gtPci0MapDevice0MemorySpace
 .text          0x0040c634      0xc4c gtMemory.o
                0x0040cc20                gtMemoryMapDevice2Space
                0x0040c9f0                gtMemoryMapBank2
                0x0040ce60                gtMemorySetProtectRegion
                0x0040cb08                gtMemoryMapDevice0Space
                0x0040ce30                gtMemoryGetInternalSramBaseAddr
                0x0040ce48                gtMemorySetInternalSramBaseAddr
                0x0040ccac                gtMemoryMapDevice3Space
                0x0040d128                gtMemorySetDeviceParam
                0x0040ced8                gtMemoryDisableWindow
                0x0040ceb4                gtMemoryDisableProtectRegion
                0x0040c6a4                gtMemoryGetDeviceBaseAddress
                0x0040c7d8                gtMemoryGetDeviceSize
                0x0040c964                gtMemoryMapBank1
                0x0040ce00                gtMemoryGetInternalRegistersSpace
                0x0040cf68                gtMemorySetPciRemapValue
                0x0040d064                gtMemoryGetDeviceParam
                0x0040cdc4                gtMemoryMapInternalRegistersSpace
                0x0040cb94                gtMemoryMapDevice1Space
                0x0040c634                gtMemoryGetBankBaseAddress
                0x0040cd38                gtMemoryMapDeviceBootSpace
                0x0040ca7c                gtMemoryMapBank3
                0x0040c8d8                gtMemoryMapBank0
                0x0040cf10                gtMemoryEnableWindow
                0x0040cf48                gtMemoryGetMemWindowStatus
                0x0040c8a0                gtMemoryGetDeviceWidth
                0x0040c724                gtMemoryGetBankSize
 .text          0x0040d280      0x70c gtDma.o
                0x0040d70c                gtDmaUpdateArbiter
                0x0040d930                gtDmaSetEngineAccessProtect
                0x0040d694                gtDmaIsChannelActive
                0x0040d758                gtDmaSetMemorySpace
                0x0040d6d4                gtDmaEngineDisable
                0x0040d5cc                gtDmaStart
                0x0040d888                gtDmaSetMemorySpaceAttr
                0x0040d2b0                gtDmaTransfer
                0x0040d280                gtDmaCommand
 .text          0x0040d98c       0xc8 gtSram.o
                0x0040d9f0                gtSramMallocAligned
                0x0040d98c                gtSramInit
                0x0040d9c0                gtSramMalloc
 .text          0x0040da54      0xc30 vxGppIntCtrl.o
                0x0040da54                frcGppIntCtrlInit
                0x0040dee8                frcGppIntDisable
                0x0040e030                frcGppCPU1IntDisable
                0x0040df8c                frcGppCPU1IntEnable
                0x0040db38                frcGppIntConnect
                0x0040de44                frcGppIntEnable
 .text          0x0040e684      0x3c0 gtCntmr.o
                0x0040e718                gtCntmrDisable
                0x0040e95c                gtCntmrIsTerminate
                0x0040e78c                gtCntmrRead
                0x0040e898                gtCntmrSetMode
                0x0040e7d0                gtCntmrEnable
                0x0040e9ec                gtCntmrSetTCTclocks
                0x0040e830                gtCntmrLoad
                0x0040e684                gtCntmrStart
 .text          0x0040ea44      0x700 vxCntmrIntCtrl.o
                0x0040ee78                vxCntmrIntDisable
                0x0040eb20                vxCntmrIntConnect
                0x0040ea44                vxCntmrIntCtrlInit
                0x0040edb8                vxCntmrIntEnable
 .text          0x0040f144      0xaec vxDmaIntCtrl.o
                0x0040f240                frcDmaIntConnect
                0x0040f144                frcDmaIntCtrlInit
                0x0040f510                frcDmaIntEnable
                0x0040f64c                frcDmaIntDisable
 .text          0x0040fc30      0x160 vxWatchDog.o
                0x0040fc64                frcWatchdogLoad
                0x0040fd5c                frcWatchdogDisable
                0x0040fc30                frcWatchdogInit
                0x0040fd28                frcWatchdogEnable
                0x0040fcc4                frcWatchdogService
                0x0040fcf8                frcWatchdogNMILoad
 .text          0x0040fd90     0x1bb8 ethernet.o
                0x00410350                ethPortMcAddr
                0x004101f4                ethPortUcAddrSet
                0x00410f20                ethPortWriteSmiReg
                0x00411704                ethPortReceive
                0x00410b20                ethClearMibCounters
                0x00410df0                ethernetGetConfigReg
                0x004112ec                etherInitTxDescRing
                0x0040fffc                ethPortStart
                0x00410e1c                ethPortReadSmiReg
                0x00410d80                ethernetSetConfigReg
                0x00410b58                ethReadMibCounter
                0x004118d0                ethPortSetTxCoal
                0x00410db8                ethernetResetConfigReg
                0x0041164c                ethTxReturnDesc
                0x004117e4                ethRxReturnBuff
                0x00411468                ethPortSend
                0x0040fd90                ethPortInit
                0x0041187c                ethPortSetRxCoal
                0x00411150                etherInitRxDescRing
                0x0041191c                ethBCopy
                0x00410be4                ethernetPhyReset
                0x00410c80                ethPortReset
 .text          0x00411948      0x960 vxEthernetIntCtrl.o
                0x00411a60                vxEthernetIntConnect
                0x00412210                vxEthernetIntEnable
                0x00412178                vxEthernetIntDisable
                0x00411948                vxEthernetIntCntlInit
 .text          0x004122a8     0x1780 mgiEnd.obj
                0x004122a8                mgiEndLoad
 .text          0x00413a28      0x288 brg.o
                0x00413aa4                brgStart
                0x00413c10                brgSetCdv
                0x00413a28                brgInit
                0x00413b24                brgDbg
 .text          0x00413cb0      0x298 cunit.o
                0x00413cb0                cunitInit
                0x00413cf8                cunitSetAccessControl
 .text          0x00413f48      0x64c vxCunitIntCtrl.o
                0x0041439c                vxCunitIntClear
                0x004142f0                vxCunitIntDisable
                0x00413f48                vxCunitIntCtrlInit
                0x00413fc0                vxCunitIntConnect
                0x00414244                vxCunitIntEnable
 .text          0x00414594      0x77c mpsc.o
                0x00414be4                mpscChanStopTxRx
                0x00414b60                mpscChanStopRx
                0x00414864                mpscDbg
                0x00414adc                mpscChanStopTx
                0x004145a0                mpscChanStart
                0x00414594                mpscChanInit
                0x00414c40                mpscChanSetCdv
 .text          0x00414d10      0x768 vxMpscIntCtrl.o
                0x00414dc0                vxMpscIntConnect
                0x00414d10                vxMpscIntCntlInit
                0x004150d4                vxMpscIntDisable
                0x0041515c                vxMpscIntClear
                0x0041504c                vxMpscIntEnable
 .text          0x00415478      0x854 sdma.o
                0x00415bcc                sdmaChanReceive
                0x00415b30                sdmaTxReturnDesc
                0x004154fc                sdmaChanStart
                0x00415820                sdmaChanStopTxRx
                0x00415c60                sdmaRxReturnBuff
                0x0041598c                sdmaChanSend
                0x00415478                sdmaChanInit
                0x004157a8                sdmaChanStopTx
                0x0041558c                sdmaDbg
                0x0041572c                sdmaChanStopRx
 .text          0x00415ccc      0x73c vxSdmaIntCtrl.o
                0x00415d70                vxSdmaIntConnect
                0x00416140                vxSdmaIntClear
                0x00415ff0                vxSdmaIntEnable
                0x00416098                vxSdmaIntDisable
                0x00415ccc                vxSdmaIntCtrlInit
 .text          0x00416408      0x410 serialChan.o
                0x00416638                serialChanStart
                0x004166e0                serialChanSetBaudRate
                0x00416694                serialChanStop
                0x00416408                serialChanInit
 .text          0x00416818      0x93c vxMpscUart.o
                0x00416cac                vxMpscUartTxInt
                0x00416fd4                gtUartBaudRateChange
                0x00416818                vxMpscUartDevInit
                0x00416bbc                vxMpscUartRxInt
                0x00416954                vxMpscUartDevReset
 .text          0x00417154       0x8c sysRamDrv.o
                0x00417154                sysRamDrvConfig
 .text          0x004171e0     0x1000 bFlashDrv.o
                0x00417c40                bootFlashErase
                0x004181dc                correctaddr
                0x004177e8                bootFlashProgram1byte
                0x004179ec                bootFlashGetSectorOff
                0x00417b30                frcBootFlashProgram
                0x00417350                bootEraseOrProgramOk
                0x00417548                bootFlashParamWrite
                0x004171e0                bootFlashAutoSelect
                0x004172b4                bootFlashGetProtect
                0x00417e18                frcBootFlashFile
                0x00417888                frcBootFlashVerify
                0x0041796c                frcbootFlashReadRst
                0x004176b0                bootFlashParamsProgram
                0x00417a64                frcBootFlashSectorErase
                0x00418054                frcBootFlashFileV
                0x004173fc                bootFlashParamRead
 .text          0x004181e0     0x1584 flashDrv.o
                0x00418210                frcFlashReadRst
                0x00418aa0                frcFlashErase
                0x0041861c                operation_fail
                0x00418204                __READ_FLASH16
                0x0041879c                frcFlashProgram
                0x004181e0                __WRITE_FLASH32
                0x00419490                frcFlashReadIdCommand
                0x00419414                frcFlashLock
                0x00418524                compare_error
                0x00418e84                frcFlashBlockWrite
                0x004181f8                __WRITE_FLASH16
                0x00418e10                frcFlashRead
                0x004186c4                print_status
                0x004181ec                __READ_FLASH32
                0x00418d48                frcFlashGetInfo
                0x004182e4                frcFlashAutoSelect
                0x004191b4                frcFlashBlockErase
                0x00419398                frcFlashUnlock
                0x00418580                operation_complete
                0x00419624                flashAutoDetect
 .text          0x00419764     0x18d0 i2cDrv.o
                0x0041abac                frcMACWrite
                0x004198d4                frcEEPROMWrite16
                0x00419764                frcEEPROMWrite8
                0x00419a4c                frcEEPROMRead8
                0x0041a9dc                frcRTCWrite
                0x00419f3c                frcI2CRead
                0x0041a834                frcRTCRead
                0x0041ab04                frcMACRead
                0x00419b24                frcEEPROMRead16
                0x0041a4e0                frcEEPROMDummyWrite16
                0x0041acb8                EEPROMDetect
                0x0041a7e0                isIntFlagSet
                0x0041afd4                setI2cReady
                0x00419bfc                frcI2cReset
                0x0041a280                frcEEPROMDummyWrite
                0x00419c14                frcI2CWrite
                0x0041b004                setI2cBusy
                0x0041ad6c                frcRTCDummyWrite
                0x0041a808                clearIntFlag
 .text          0x0041b034      0xe50 rtc.o
                0x0041bb48                ismin
                0x0041bbf8                issec
                0x0041bcb0                isyear
                0x0041b9dc                isdate
                0x0041ba98                ishour
                0x0041bdd0                rtccall
                0x0041b27c                settime
                0x0041b8a8                ismon
                0x0041b780                isday
                0x0041b034                gettime
 .text          0x0041be84     0x1758 frcBibShow.o
                0x0041be84                frcBibShow
                0x0041cb40                frcBibDataShow
 .text          0x0041d5dc      0xd3c frcBibDrv.o
                0x0041d930                frcBibDetach
                0x0041d980                frcBibRead
                0x0041d9a4                frcBibWrite
                0x0041ddc0                frcBibDrvShow
                0x0041d5dc                frcBibAttach
 .text          0x0041e318      0x700 bibSupport.o
                0x0041e4bc                frcBibDataWrite
                0x0041e3ec                bibReadIntf
                0x0041e318                bibWriteIntf
                0x0041e8c4                ctohex
 .text          0x0041ea18      0x4a8 pciBoot.o
                0x0041ee98                frcCheckSum
                0x0041ea18                frcPCIDataWrite
 .text          0x0041eec0      0x18c regFileBurn.o
                0x0041eec0                frcBootRegFileBurn
 .text          0x0041f04c      0x538 vpd.o
                0x0041f374                frcVPDRead
                0x0041f12c                frcVPDWrite
                0x0041f04c                frcVPDInit
 .text          0x0041f584    0x295ec tests/testtool.o
                0x004368d8                frcTestBaudRate
                0x004470e8                frcIdmaTestInit0
                0x00433ac4                morefds
                0x00437318                frcTestAltivec
                0x00432764                use_int
                0x004328c0                get_results
                0x00432560                p64
                0x00437388                frcTestPciScan
                0x00427fc0                ramTest32bit
                0x00433d48                fst
                0x004341bc                prtMVReg
                0x004367e8                frcTestBootFlash
                0x00428c1c                test_checkerboard_comparison
                0x00437744                isPMC280TwoOnBoardEth
                0x0043773c                isPMC280BootFlashPresent
                0x00446588                parse8
                0x004378d4                detectUserFlash
                0x00434788                frcTestSerialInfo
                0x004381bc                mpsc_regs_dump
                0x00429b94                memTest_Basic
                0x004289d8                test_or_comparison
                0x00435e70                frcTestIntLatHard
                0x00433d6c                frcSysTest
                0x00432928                save_minimum
                0x00428e28                test_walkbits_comparison
                0x004311ac                now
                0x00431ee0                nano
                0x00435924                frcTestLatInitialization
                0x00433ac8                touch
                0x00446934                ctohex1
                0x00447064                frcAlignedMalloc
                0x0042958c                release_mem
                0x0042e010                rdwr
                0x004324ac                usecs_spent
                0x004367b8                frcTestVPD
                0x00431458                bandwidth_val
                0x004270bc                MoveMemory
                0x00434ce4                frcTestSerial
                0x0041fbc4                RoundInternalFPF
                0x0042a334                getpagesize_lmbench
                0x004319d0                mb
                0x00431710                bandwidth_n
                0x00433d08                print_bytes
                0x00427418                TicksToSecs
                0x00433538                get_enough
                0x00432778                use_pointer
                0x00436e38                frcTestMACAddr
                0x00437078                getPLLCoreMultiplier
                0x00433f1c                frcTestTbReset
                0x004379d0                DCD_regs_dump
                0x00447f34                frcDmaTestStart1
                0x004340c4                getOption
                0x004326c8                last
                0x00435c78                frcTestIntLatSoft
                0x00446dc0                mem_perf
                0x00436a98                atox
                0x00446124                frcEEPROMTestRead
                0x0043440c                testmem_perf
                0x00436a3c                frcTestIsMonarch
                0x0043774c                getPMC280BoardInfo
                0x00428f50                test_bitspread_comparison
                0x00434360                frcTestIDMAScrubChk
                0x00428798                test_verify_success
                0x00446d74                frcTestSwitch
                0x004293ac                extendedTestError
                0x004288dc                test_mul_comparison
                0x00446388                frcTestRTCWrite
                0x00428870                test_sub_comparison
                0x00435fc8                frcTestIntLatency
                0x004469f8                TestIntConnect
                0x00439434                MV64360_regs_dump
                0x00424570                DoIDEA
                0x004483f0                wdValueReg
                0x0043299c                save_median
                0x004274ec                ramTestPrintDot
                0x0042a580                bwMem
                0x0042a33c                frcLmbench
                0x00433c68                frcTestlatMemRead
                0x0043246c                tvsub
                0x00427538                ramTest8bit
                0x0043315c                t_overhead
                0x004271dc                ReportError
                0x00428ac0                test_seqinc_comparison
                0x004262e8                DoLU
                0x00434044                frcTestGettimeUsec
                0x0043259c                p64sz
                0x00434900                frcTestStressSerial
                0x0042746c                printDramErr
                0x00448150                watchdogTest
                0x00427344                StartStopwatch
                0x004313c4                get_n
                0x004458a0                frcTestDispMemMap
                0x00428804                test_xor_comparison
                0x0041f584                SetupCPUEmFloatArrays
                0x00429a3c                memTest_Basic_Ever
                0x0043618c                frcTestDMA
                0x0043789c                isPMC280Monarch
                0x0042723c                ErrorExit
                0x00422cdc                DoBitops
                0x00436470                frcTestDualCPU
                0x004311fc                Now
                0x00448438                frcTestUserFlash
                0x00446d54                frcTestDisable
                0x004313d0                lmbench_settime
                0x00429640                parse_opts
                0x00435840                frcTestMPP18ISR_hard
                0x004270dc                InitMemArray
                0x00447e34                frcDmaCompleteAppIntHandler1
                0x0042705c                FreeMemory
                0x0043000c                loads_i
                0x004231b8                DoEmFloat
                0x0042e944                fcp
                0x004270ec                AddMemArray
                0x00446d28                frcTestConnect
                0x004326e0                bytes
                0x004369dc                frcTestAllTests
                0x0043132c                Delta
                0x004365d4                frcTestBIB
                0x004292d4                test_moving_inv32
                0x00428948                test_div_comparison
                0x00431dcc                context
                0x004294e4                print_summary
                0x00429590                get_mem
                0x0043427c                frcTestChkECC
                0x004379ac                frcDispBoardInfo
                0x00448074                frcTestWatchDogAppStart
                0x004296ac                memtest_extended
                0x00436098                frcTestDispReg
                0x00436a0c                frcTestSummary
                0x0042a21c                tbReset_lmbench
                0x00437700                isPMC280UsrFlashPresent
                0x00426f50                AllocateMemory
                0x00432308                ptime
                0x00447eb0                frcDmaTestStart0
                0x00424d94                DoHuffman
                0x0042944c                print_test_name
                0x0042942c                memboundary_check
                0x0042233c                DoStringSort
                0x0042e2ec                fwr
                0x00435fa4                lat_h
                0x00428d30                test_blockseq_comparison
                0x00428a44                test_and_comparison
                0x0042ed60                latMemRead
                0x004475d0                frcDmaTestTaskEntry0
                0x00427430                TicksToFracSecs
                0x0042728c                gettimeofday
                0x0042e1d0                cpy
                0x004294a8                memtest_usage
                0x004364a0                frcTestI2C_EEPROM
                0x00420760                abs_randwc
                0x00420798                randnum
                0x00431270                delta
                0x0043562c                frcTestEthernet
                0x0044735c                frcIdmaTestInit1
                0x00434688                frcTestMemPerf
                0x00447db8                frcDmaCompleteAppIntHandler0
                0x00427468                sysUserLEDSet
                0x0042081c                dblprint
                0x00436ff0                frcTestDispFreq
                0x00420714                randwc
                0x004368e0                frcTestRTC
                0x004271d8                CreateFile
                0x00433f44                frcTestgettimeofday
                0x00434de4                frcTestSubsysVendID
                0x00434fe4                frcTestConfigEthPorts
                0x004318b8                kb
                0x00421e9c                DoNumSort
                0x004328f0                save_results
                0x0042de38                rd
                0x0042e508                frd
                0x00437d88                mpsc_cause_regs_dump
                0x00435438                frcTestEthModeSet
                0x004358c4                frcTestMPP18ISR_soft
                0x0043241c                tvdelta
                0x004299e0                get_word
                0x0042ff28                step
                0x0042712c                RemoveMemArray
                0x00437980                detectRAMsize
                0x00438f0c                SDMA_RXBD_regs_dump
                0x00423468                DoFourier
                0x00445e20                frcEEPROMTestWrite
                0x004320e8                micromb
                0x004480f4                frcTestWatchDogAppStop
                0x00437574                frcTestEthPHYTestMode
                0x00432f40                l_overhead
                0x00431fe8                micro
                0x00447fb8                watchDogApp
                0x0042df74                wr
                0x00429d94                getParams
                0x004310e0                timing
                0x004372f8                testRdReg
                0x0043278c                insertinit
                0x00427260                tbReset
                0x004457f8                frcTestDispAllPCI0Reg
                0x0042089c                nbench
                0x004466c4                parse16
                0x004324dc                timespent
                0x00431ae8                latency
                0x00437b44                PCI_DCD_regs_dump
                0x0042a244                gettimeofday_lmbench
                0x00437fb8                brg_regs_dump
                0x00425704                DoNNET
                0x00428b24                test_solidbits_comparison
                0x004291d0                test_stuck_address
                0x004310ec                start
                0x00433b40                frcTestbwMem
                0x004313b8                save_n
                0x00432244                milli
                0x00448044                watchDogIsr
                0x0042edec                loads
                0x004449f4                pcicfg0_regs_dump
                0x00431144                stop
                0x00429e30                frcMemTest
                0x004290b8                test_bitflip_comparison
                0x00446cbc                testIsr
                0x004391a0                SDMA_TXBD_regs_dump
                0x00427ab0                ramTest16bit
                0x0041f678                DoEmFloatIteration
                0x0043424c                frcTestWhoAmI
                0x00437ca0                PCI_REMAP_regs_dump
                0x00447a04                frcDmaTestTaskEntry1
                0x0042a128                frcTestMemTest
                0x004327c4                insertsort
                0x00421e44                doubleTest
                0x004376c8                isPMC280DualCPU
                0x00431554                bandwidth
                0x004273a0                StopStopwatch
                0x00434e80                frcTestEthLinkDetails
                0x00436440                frcTestMV64360Semaphore
                0x00423a10                DoAssign
                0x00446514                frcTestRTCRead
 .text          0x00448b70      0x2f4 usrDma.o
                0x00448ca0                myfill
                0x00448d94                usrPci2PciDmaStart
                0x00448b70                usrDmaInit
                0x00448d1c                usrMem2MemDmaStart
                0x00448dec                usrReadGPR
                0x00448d44                usrPci2MemDmaStart
                0x00448d6c                usrMem2PciDmaStart
                0x00448e28                usrWriteGPR
                0x00448dbc                usrDmaDone
 .text          0x00448e64       0x18 sysAUtil.o
                0x00448e74                sysTimeBaseLGet
                0x00448e64                sysTimeBaseLPut
 .text          0x00448e7c      0x22c /usr/local/clas/devel/VxWorks55/ppc/target/lib/ppc/PPC604/common/libarch.a(altivecArchLib.o)
                0x00449060                altivecRegsToCtx
                0x00448eac                altivecArchTaskCreateInit
                0x00449024                altivecProbe
                0x00448ed4                altivecTaskRegsGet
                0x00448e7c                altivecArchInit
                0x00448f7c                altivecTaskRegsSet
                0x00449084                altivecCtxToRegs
 .text          0x004490a8      0x1b4 /usr/local/clas/devel/VxWorks55/ppc/target/lib/ppc/PPC604/common/libarch.a(altivecLib.o)
                0x004490a8                altivecInit
 .text          0x0044925c       0xe4 /usr/local/clas/devel/VxWorks55/ppc/target/lib/ppc/PPC604/common/libarch.a(altivecShow.o)
                0x0044925c                altivecShowInit
                0x00449294                altivecTaskRegsShow
 .text          0x00449340      0x2c0 /usr/local/clas/devel/VxWorks55/ppc/target/lib/ppc/PPC604/common/libarch.a(bALib.o)
                0x004495d8                swab
                0x004495bc                bfillBytes
                0x0044953c                bcopyLongs
                0x004494f4                bcopyBytes
                0x00449514                bcopyWords
                0x00449340                bcopy
                0x00449564                bfill
 .text          0x00449600      0x674 /usr/local/clas/devel/VxWorks55/ppc/target/lib/ppc/PPC604/common/libarch.a(cacheArchLib.o)
                0x00449a90                cacheArchDmaMalloc
                0x00449944                cacheArchDisableFromMmu
                0x00449718                cacheArchEnable
                0x00449600                cacheArchLibInit
                0x00449a18                cacheErrnoSet
                0x00449bc0                cacheArchDmaFree
                0x0044983c                cacheArchDisable
 .text          0x00449c74      0xcb0 /usr/local/clas/devel/VxWorks55/ppc/target/lib/ppc/PPC604/common/libarch.a(excArchLib.o)
                0x0044a480                excVecBaseGet
                0x0044a26c                excVecSet
                0x00449c74                excVecInit
                0x0044a48c                excExcHandle
                0x0044a438                excVecBaseSet
                0x00449fa8                excRelocIntConnect
                0x0044a3a8                excVecGet
                0x00449e2c                vecOffRelocMatchRev
                0x00449e98                excRelocConnect
                0x0044a778                excIntHandle
                0x00449e74                excConnect
                0x00449dc0                vecOffRelocMatch
                0x00449f84                excIntConnect
 .text          0x0044a924      0x45c /usr/local/clas/devel/VxWorks55/ppc/target/lib/ppc/PPC604/common/libarch.a(excArchShow.o)
                0x0044a924                excShowInit
 .text          0x0044ad80      0x4c4 /usr/local/clas/devel/VxWorks55/ppc/target/lib/ppc/PPC604/common/libarch.a(intALib.o)
                0x0044b22c                intUnlock
                0x0044b218                intLock
                0x0044af54                intExit
                0x0044ad80                intEnt
 .text          0x0044b244      0x210 /usr/local/clas/devel/VxWorks55/ppc/target/lib/ppc/PPC604/common/libarch.a(intArchLib.o)
                0x0044b2f0                intVecBaseSet
                0x0044b41c                intLockLevelSet
                0x0044b43c                intRegsUnlock
                0x0044b39c                intEnable
                0x0044b280                intVecSet
                0x0044b3dc                intDisable
                0x0044b428                intRegsLock
                0x0044b244                intConnect
                0x0044b420                intLockLevelGet
                0x0044b324                intVecBaseGet
                0x0044b360                intLevelSet
                0x0044b2b4                intVecGet
 .text          0x0044b454      0x834 /usr/local/clas/devel/VxWorks55/ppc/target/lib/ppc/PPC604/common/libarch.a(trcLib.o)
                0x0044b454                trcStack
 .text          0x0044bc88      0x228 /usr/local/clas/devel/VxWorks55/ppc/target/lib/ppc/PPC604/common/libarch.a(vxALib.o)
                0x0044bd60                vxHid0Set
                0x0044bcf4                vxDsisrSet
                0x0044bddc                vxTimeBaseGet
                0x0044bda8                vxFpscrGet
                0x0044bcc0                vxMsrSet
                0x0044be88                vmpxx
                0x0044bcb8                vxMsrGet
                0x0044bcdc                vxSrr0Get
                0x0044bcec                vxDarSet
                0x0044bd24                vxPowerDown
                0x0044bd80                vxFpscrSet
                0x0044bdfc                vxDecSet
                0x0044bdc8                vxTimeBaseSet
                0x0044bd70                vxHid0Get
                0x0044bcd4                vxDsisrGet
                0x0044bcfc                vxSrr0Set
                0x0044bc88                vxTas
                0x0044be90                vxGhsFlagSet
                0x0044bd1c                vxEieio
                0x0044be04                vxDecGet
                0x0044bccc                vxDarGet
                0x0044bd0c                vxFirstBit
                0x0044be2c                vxMemProbeSup
                0x0044bd14                vxPvrGet
                0x0044bea4                vxImmrDevGet
                0x0044be0c                vxDecReload
                0x0044be98                vxImmrIsbGet
                0x0044bd04                vxSrr1Set
                0x0044bce4                vxSrr1Get
                0x0044bd78                vxHid1Get
 .text          0x0044beb0      0x234 /usr/local/clas/devel/VxWorks55/ppc/target/lib/ppc/PPC604/common/libarch.a(vxLib.o)
                0x0044bec4                vxMemArchProbe
                0x0044c0d8                vxPowerModeGet
                0x0044c08c                vxPowerModeSet
                0x0044c050                vxMemProbe
 *fill*         0x0044c0e4        0x4
 .text          0x0044c0e8      0xd2c /usr/local/clas/devel/VxWorks55/ppc/target/lib/ppc/PPC604/common/libarch.a(pow.o)
                0x0044cab4                log
                0x0044c0e8                pow
                0x0044cc58                log10
                0x0044c700                exp
 *fill*         0x0044ce14        0x4
 .text          0x0044ce18      0x208 /usr/local/clas/devel/VxWorks55/ppc/target/lib/ppc/PPC604/common/libarch.a(sqrt.o)
                0x0044ce18                sqrt
 .text          0x0044d020      0x1c4 /usr/local/clas/devel/VxWorks55/ppc/target/lib/ppc/PPC604/common/libarch.a(trig.o)
                0x0044d1d0                cos
                0x0044d020                sin
 .text          0x0044d1e4      0x280 /usr/local/clas/devel/VxWorks55/ppc/target/lib/ppc/PPC604/common/libarch.a(altivecALib.o)
                0x0044d328                altivecRestore
                0x0044d1e4                altivecSave
 .text          0x0044d464      0x1f0 /usr/local/clas/devel/VxWorks55/ppc/target/lib/ppc/PPC604/common/libarch.a(cacheALib.o)
                0x0044d5f0                cacheArchTextUpdate
                0x0044d464                cachePpcEnable
                0x0044d644                cacheArchPipeFlush
                0x0044d594                cacheArchInvalidate
                0x0044d5cc                cacheArchFlush
                0x0044d4a8                cachePpcDisable
 .text          0x0044d654      0x21c /usr/local/clas/devel/VxWorks55/ppc/target/lib/ppc/PPC604/common/libarch.a(excALib.o)
                0x0044d784                excExit
                0x0044d654                excEnt
                0x0044d84c                excEPSet
 .text          0x0044d870     0x10a8 /usr/local/clas/devel/VxWorks55/ppc/target/lib/ppc/PPC604/common/libdrv.a(endLib.o)
                0x0044e478                endEtherPacketDataGet
                0x0044d8e4                tkRcvRtnCall
                0x0044d9f8                endFlagsClr
                0x0044e28c                endEtherAddressForm
                0x0044de84                endObjInit
                0x0044dc00                endMibIfInit
                0x0044daf0                endMultiLstFirst
                0x0044da38                endFlagsSet
                0x0044daa4                endMultiLstCnt
                0x0044e61c                endEtherPacketAddrGet
                0x0044db80                endDevName
                0x0044db3c                endMultiLstNext
                0x0044d978                endTxSemTake
                0x0044d9bc                endTxSemGive
                0x0044e018                end8023AddressForm
                0x0044dfd4                endObjFlagSet
                0x0044d870                endRcvRtnCall
                0x0044da74                endFlagsGet
                0x0044dd0c                mib2Init
                0x0044ddb0                mib2ErrorAdd
                0x0044e814                endPollStatsInit
                0x0044dbb0                endObjectUnload
 .text          0x0044e918      0x5b0 /usr/local/clas/devel/VxWorks55/ppc/target/lib/ppc/PPC604/common/libdrv.a(if_loop.o)
                0x0044e918                loattach
                0x0044ea14                looutput
 .text          0x0044eec8     0x1f84 /usr/local/clas/devel/VxWorks55/ppc/target/lib/ppc/PPC604/common/libnet.a(if.o)
                0x0044f024                ifreset
                0x0044f1f8                if_attach
                0x00450214                if_slowtimoRestart
                0x004501b8                if_qflush
                0x0044fea0                link_rtrequest
                0x0044ff88                if_down
                0x0044fb58                ifaof_ifpforaddr
                0x0044efcc                ifreset2
                0x0044f10c                ifresetImmediate
                0x004508ac                ifconf
                0x004500c0                if_up
                0x0044fc94                ifa_ifwithroute
                0x0044eec8                ifinit
                0x0044f8b4                ifa_ifwithdstaddr
                0x0044f964                ifa_ifwithnet
                0x0044fda8                ifafree
                0x00450b04                ifpromisc
                0x0044f7e8                ifa_ifwithaddr
                0x0044f788                ifIndexToIfp
                0x0044fb08                ifa_ifwithaf
                0x004503f0                ifioctl
                0x0044f520                if_dettach
                0x00450250                if_slowtimo
 .text          0x00450e4c     0x29bc /usr/local/clas/devel/VxWorks55/ppc/target/lib/ppc/PPC604/common/libnet.a(if_ether.o)
                0x00451878                arpresolve
                0x00451d6c                arpintr
                0x0045341c                ether_sprintf
                0x004532c8                _arpCmd
                0x00453774                _db_show_arptab
                0x0045290c                arptfree
                0x004537e0                db_show_arptab
                0x004533bc                arpEntryDelete
                0x00451598                arpwhohas
                0x00451068                arp_rtrequest
                0x0045102c                ipEtherResolvRtn
                0x00452b1c                arpioctl
                0x00453484                db_print_sa
                0x00450ff4                ipToEtherMCastMap
 .text          0x00453808     0x1a54 /usr/local/clas/devel/VxWorks55/ppc/target/lib/ppc/PPC604/common/libnet.a(if_subr.o)
                0x00454b50                copyFromMbufs
                0x00454e9c                set_if_addr
                0x00454f40                ether_attach
                0x00453808                ether_output
                0x00454364                ether_addmulti
                0x004551a8                netTypeDelete
                0x00454b28                bcopy_to_mbufs
                0x0045422c                ether_ifattach
                0x00454e44                do_protocol_with_type
                0x00454d28                build_cluster
                0x00454b24                check_trailer
                0x0045508c                netTypeAdd
                0x004547ac                ether_delmulti
                0x00454084                ether_input
                0x00455234                netTypeInit
 .text          0x0045525c     0x1f04 /usr/local/clas/devel/VxWorks55/ppc/target/lib/ppc/PPC604/common/libnet.a(in.o)
                0x00456f90                mcastHashTblInsert
                0x0045639c                in_ifscrub
                0x00456d30                in_delmulti
                0x00455538                in_control
                0x0045694c                in_broadcast
                0x0045525c                inet_netmatch
                0x00455364                in_localaddr
                0x004564bc                in_ifinit
                0x004552cc                in_netof
                0x004569e8                in_addmulti
                0x00457068                mcastHashTblLookup
                0x004553ec                in_canforward
                0x00455454                in_socktrim
                0x00456f20                in_iaonnetof
                0x00456830                in_ifaddr_remove
                0x00456f54                mcastHashInit
                0x0045548c                in_lnaof
                0x00457014                mcastHashTblDelete
 .text          0x00457160     0x2304 /usr/local/clas/devel/VxWorks55/ppc/target/lib/ppc/PPC604/common/libnet.a(ip_input.o)
                0x004587f4                ip_drain
                0x00458870                ip_dooptions
                0x00458e1c                ip_stripoptions
                0x004573ec                ipintr
                0x00457160                ip_init
                0x0045869c                ip_slowtimo
                0x00458eb0                ip_forward
                0x00458d44                ip_rtaddr
                0x00458610                iptime
                0x004584cc                ip_freef
 .text          0x00459464     0x2478 /usr/local/clas/devel/VxWorks55/ppc/target/lib/ppc/PPC604/common/libnet.a(ip_output.o)
                0x00459464                ip_output
                0x0045aa1c                ip_ctloutput
                0x0045b6e4                ip_mloopback
                0x0045a914                ip_optcopy
                0x0045b54c                ip_getmoptions
                0x0045af44                ip_pcbopts
                0x0045b67c                ip_freemoptions
 .text          0x0045b8dc     0x214c /usr/local/clas/devel/VxWorks55/ppc/target/lib/ppc/PPC604/common/libnet.a(radix.o)
                0x0045cafc                rn_delete
                0x0045b8dc                rn_search
                0x0045bbac                rn_match
                0x0045bef8                rn_insert
                0x0045beb0                rn_newpair
                0x0045d520                rn_walktree
                0x0045c06c                rn_addmask
                0x0045d370                rn_walksubtree
                0x0045b958                rn_refines
                0x0045d75c                rn_destroyhead
                0x0045b914                rn_search_m
                0x0045d790                rn_init
                0x0045ba30                rn_lookup
                0x0045c628                rn_addroute
                0x0045d610                rn_inithead
 .text          0x0045da28     0x278c /usr/local/clas/devel/VxWorks55/ppc/target/lib/ppc/PPC604/common/libnet.a(route.o)
                0x0045fcfc                rt_maskedcopy
                0x0045e47c                rtfree
                0x0045fa2c                rt_fixdelete
                0x0045da9c                route_init
                0x0045e938                rtredirect
                0x0045deb0                routeDrain
                0x0045f030                rtrequest
                0x0045df98                rtalloc1
                0x0045fa88                rt_setgate
                0x0045fd9c                rtinit
                0x0045f7a8                routeSwap
                0x0045da28                rtable_init
                0x0045ed20                rtioctl
                0x0045df38                rtalloc
 .text          0x004601b4     0x22c8 /usr/local/clas/devel/VxWorks55/ppc/target/lib/ppc/PPC604/common/libnet.a(udp_usrreq.o)
                0x00461b94                udp_output
                0x00461f90                udp_usrreq
                0x004602bc                udp_input
                0x004601b4                udp_init
                0x00461a10                udp_ctlinput
 .text          0x0046247c      0x540 /usr/local/clas/devel/VxWorks55/ppc/target/lib/ppc/PPC604/common/libnet.a(uipc_dom.o)
                0x00462780                pfctlinput
                0x0046247c                addDomain
                0x004626bc                net_sysctl
                0x00462590                pffindtype
                0x004624a4                domaininit
                0x00462600                pffindproto
 .text          0x004629bc      0xcb8 /usr/local/clas/devel/VxWorks55/ppc/target/lib/ppc/PPC604/common/libnet.a(uipc_mbuf.o)
                0x00462b80                mbinit
                0x00463164                m_pullup
                0x00462e04                mHdrClGet
                0x00462ff0                m_adj
                0x00462fcc                m_cat
                0x00462d50                mBufClGet
                0x00462ecc                m_getclr
                0x00462f10                m_prepend
                0x00463394                m_devget
 .text          0x00463674     0x17d8 /usr/local/clas/devel/VxWorks55/ppc/target/lib/ppc/PPC604/common/libnet.a(uipc_sock2.o)
                0x00463b48                soqremque
                0x00464b6c                sbdrop
                0x00463c08                socantrcvmore
                0x00463778                soisdisconnecting
                0x00463cac                sbseldequeue
                0x00463fd8                soreserve
                0x004640f8                sbrelease
                0x00464dcc                sbdroprecord
                0x00463df0                sb_lock
                0x00463688                soisconnected
                0x0046408c                sbreserve
                0x00463e48                sbwakeup
                0x00464140                sbappend
                0x004641b0                sbappendrecord
                0x004645d0                sbappendcontrol
                0x00463c68                sbselqueue
                0x004637f8                soisdisconnected
                0x00463ac4                soqinsque
                0x00463f7c                sowakeup
                0x004649ac                sbflush
                0x00463880                sonewconn1
                0x00464358                sbappendaddr
                0x00463bd0                socantsendmore
                0x00463674                soisconnecting
                0x004647d8                sbcompress
                0x00463d08                sbwait
                0x00464278                sbinsertoob
 .text          0x00464e4c      0x4dc /usr/local/clas/devel/VxWorks55/ppc/target/lib/ppc/PPC604/common/libnet.a(unixLib.o)
                0x004650b4                _insque
                0x00464f4c                splimp
                0x004651c4                _netFree
                0x00465094                wakeup
                0x004650e8                panic
                0x0046516c                _netMalloc
                0x00464ee4                splnet2
                0x00464e7c                splnet
                0x00464fb4                splx
                0x00464fec                ksleep
                0x004650cc                _remque
                0x004651f0                hashinit
                0x00464e4c                splSemInit
 .text          0x00465328     0x21ec /usr/local/clas/devel/VxWorks55/ppc/target/lib/ppc/PPC604/common/libnet.a(ipProto.o)
                0x004665e8                ipDetach
                0x004659c8                ipTkError
                0x00465b88                ipAttach
                0x004674dc                ipMuxCookieGet
 .text          0x00467514     0x1cec /usr/local/clas/devel/VxWorks55/ppc/target/lib/ppc/PPC604/common/libnet.a(bsdSockLib.o)
                0x00468d6c                bsdGetsockopt
                0x00468c80                bsdSetsockopt
                0x004684c4                bsdRecvfrom
                0x0046908c                bsdGetpeername
                0x00467514                bsdSockLibInit
                0x00467f60                bsdSend
                0x004691b0                bsdShutdown
                0x00468f80                bsdGetsockname
                0x00467d88                bsdSendto
                0x00468900                bsdRecvmsg
                0x0046771c                bsdBind
                0x004686b8                bsdRecv
                0x004677c0                bsdListen
                0x004681c4                bsdSendmsg
                0x00467a4c                bsdConnect
                0x00467820                bsdAccept
                0x004675c8                bsdSocket
                0x004691f8                bsdZbufSockRtn
                0x00467bdc                bsdConnectWithTimeout
 .text          0x00469200      0x358 /usr/local/clas/devel/VxWorks55/ppc/target/lib/ppc/PPC604/common/libnet.a(etherMultiLib.o)
                0x00469200                etherMultiAdd
                0x004693ac                etherMultiDel
                0x00469454                etherMultiGet
 .text          0x00469558     0x1e08 /usr/local/clas/devel/VxWorks55/ppc/target/lib/ppc/PPC604/common/libnet.a(ftpLib.o)
                0x0046a5c8                ftpLogin
                0x0046a07c                ftpReplyGet
                0x00469558                ftpCommand
                0x0046b120                ftpTransientConfigGet
                0x0046b0fc                ftpLibDebugOptionsSet
                0x0046959c                ftpCommandEnhanced
                0x00469770                ftpXfer
                0x0046a6f4                ftpDataConnInitPassiveMode
                0x0046a0bc                ftpReplyGetEnhanced
                0x0046b180                ftpTransientFatalInstall
                0x0046af24                ftpDataConnGet
                0x0046aa50                ftpDataConnInit
                0x0046a370                ftpHookup
                0x0046af88                ftpLs
                0x0046b108                ftpTransientConfigSet
 .text          0x0046b360      0x810 /usr/local/clas/devel/VxWorks55/ppc/target/lib/ppc/PPC604/common/libnet.a(hostLib.o)
                0x0046b360                hostTblInit
                0x0046b828                hostGetByName
                0x0046bab0                sethostname
                0x0046b740                hostTblSearchByName
                0x0046b57c                hostDelete
                0x0046b3b4                hostAdd
                0x0046bb04                gethostname
                0x0046b8c0                hostTblSearchByAddr
                0x0046b994                hostGetByAddr
 .text          0x0046bb70      0x8c8 /usr/local/clas/devel/VxWorks55/ppc/target/lib/ppc/PPC604/common/libnet.a(icmpLib.o)
                0x0046bb70                icmpLibInit
                0x0046c2fc                ipHeaderCreate
                0x0046c3b4                ipHeaderVerify
                0x0046bc60                icmpMaskGet
 .text          0x0046c438     0x11d4 /usr/local/clas/devel/VxWorks55/ppc/target/lib/ppc/PPC604/common/libnet.a(ifLib.o)
                0x0046d3f0                ifRouteEnable
                0x0046d2c4                ifIndexToIfName
                0x0046c7c8                ifMaskGet
                0x0046c604                ifAddrDelete
                0x0046c630                ifAddrGet
                0x0046c8cc                ifFlagSet
                0x0046cd18                ifRouteDelete
                0x0046c8f8                ifFlagGet
                0x0046d108                ifunit
                0x0046d260                ifNameToIfIndex
                0x0046c6e0                ifDstAddrGet
                0x0046c950                ifMetricGet
                0x0046c7f4                ifFlagChange
                0x0046c65c                ifBroadcastSet
                0x0046c6b4                ifDstAddrSet
                0x0046d5cc                ifRouteCleanup
                0x0046c438                ifAddrAdd
                0x0046c924                ifMetricSet
                0x0046d034                ifAllRoutesDelete
                0x0046d4fc                ifRouteDisable
                0x0046c79c                ifMaskSet
                0x0046c688                ifBroadcastGet
                0x0046c5d8                ifAddrSet
 .text          0x0046d60c       0xf4 /usr/local/clas/devel/VxWorks55/ppc/target/lib/ppc/PPC604/common/libnet.a(igmpLib.o)
                0x0046d60c                igmpLibInit
 .text          0x0046d700      0x694 /usr/local/clas/devel/VxWorks55/ppc/target/lib/ppc/PPC604/common/libnet.a(inetLib.o)
                0x0046da80                inet_netof_string
                0x0046d974                inet_makeaddr_b
                0x0046dc6c                inet_ntoa_b
                0x0046d928                inet_lnaof
                0x0046d9d4                inet_makeaddr
                0x0046da34                inet_netof
                0x0046d700                inet_addr
                0x0046dad8                inet_network
                0x0046dd08                inet_aton
                0x0046dcb4                inet_ntoa
 .text          0x0046dd94      0x2d8 /usr/local/clas/devel/VxWorks55/ppc/target/lib/ppc/PPC604/common/libnet.a(ipLib.o)
                0x0046ddb8                ipLibMultiInit
                0x0046dee0                rawIpLibInit
                0x0046dd94                ipLibInit
                0x0046dfa4                rawLibInit
 .text          0x0046e06c     0x2b88 /usr/local/clas/devel/VxWorks55/ppc/target/lib/ppc/PPC604/common/libnet.a(muxLib.o)
                0x00470850                muxPollDevDel
                0x0046f600                muxLinkHeaderCreate
                0x0046ff80                muxDevStopAll
                0x00470218                muxPollTask
                0x0046feb0                muxAddrResFuncDel
                0x004703b8                muxTaskPrioritySet
                0x0046f1b0                muxMCastAddrAdd
                0x0046fa28                endFindByName
                0x0046e504                muxShow
                0x0046ee48                muxPollReceive
                0x0046f2b8                muxUnbind
                0x00470394                muxTaskDelayGet
                0x0046f260                muxMCastAddrGet
                0x0046e7b8                muxBind
                0x00470604                muxPollEnd
                0x0046fd08                muxAddrResFuncAdd
                0x0046ea80                muxSend
                0x0047016c                muxDevStartAll
                0x00470374                muxTaskDelaySet
                0x0046fe28                muxAddrResFuncGet
                0x0046fb24                muxTxRestart
                0x0046eea0                muxIoctl
                0x0046e3d0                muxDevStart
                0x0046f40c                muxDevUnload
                0x0046e178                muxDevLoad
                0x0046f930                muxPacketDataGet
                0x0046ed64                muxPollSend
                0x0046f7a0                muxAddressForm
                0x0046eb90                muxReceive
                0x00470ab4                muxIterateByName
                0x0046faf8                muxDevExists
                0x0047046c                muxPollStart
                0x0046fc0c                muxError
                0x00470448                muxTaskPriorityGet
                0x0046f208                muxMCastAddrDel
                0x0046e4ac                muxDevStop
                0x0046e06c                muxLibInit
                0x0046f99c                muxPacketAddrGet
                0x00470718                muxPollDevAdd
                0x004709c4                muxPollDevStat
 .text          0x00470bf4     0x18ac /usr/local/clas/devel/VxWorks55/ppc/target/lib/ppc/PPC604/common/libnet.a(muxTkLib.o)
                0x00471734                muxTkSend
                0x004717f4                muxTkPollReceive
                0x004722e4                muxTkBindUpdate
                0x004723b8                muxTkUnloadUpdate
                0x00471250                muxTkReceive
                0x00470d94                muxTkBind
                0x00472134                muxTkDevLoadUpdate
                0x0047179c                muxTkPollSend
                0x004722c4                muxTkUnbindUpdate
                0x00472058                muxTkBibInit
                0x00470cc8                muxTkCookieGet
                0x00471eb4                muxTkBibShow
                0x00471960                muxTkPollReceive2
                0x00470bf4                muxTkDrvCheck
 .text          0x004724a0      0x300 /usr/local/clas/devel/VxWorks55/ppc/target/lib/ppc/PPC604/common/libnet.a(netLib.o)
                0x00472644                netTask
                0x004726d0                netJobAdd
                0x004724a0                netLibGeneralInit
                0x00472520                netLibInit
                0x00472780                netErrnoSet
 .text          0x004727a0      0xaa0 /usr/local/clas/devel/VxWorks55/ppc/target/lib/ppc/PPC604/common/libnet.a(pingLib.o)
                0x004727f0                ping
                0x004727a0                pingLibInit
 .text          0x00473240      0x7f0 /usr/local/clas/devel/VxWorks55/ppc/target/lib/ppc/PPC604/common/libnet.a(remLib.o)
                0x0047324c                rcmd
                0x00473240                remLibInit
                0x0047389c                iam
                0x0047377c                remCurIdGet
                0x004738dc                whoami
                0x004737d0                remCurIdSet
                0x004736e4                rresvport
                0x00473934                bindresvport
 .text          0x00473a30      0x928 /usr/local/clas/devel/VxWorks55/ppc/target/lib/ppc/PPC604/common/libnet.a(routeLib.o)
                0x00473c04                routeCmd
                0x00473fc8                mRouteEntryAdd
                0x00473a30                routeAdd
                0x00474250                mRouteDelete
                0x00473c98                routeEntryFill
                0x00473d94                mRouteAdd
                0x00473b34                routeDelete
                0x00473fec                mRouteEntryDelete
                0x00473e2c                mPrivRouteEntryAdd
                0x00474194                mPrivRouteEntryDelete
                0x00473a58                routeNetAdd
 .text          0x00474358      0x2f4 /usr/local/clas/devel/VxWorks55/ppc/target/lib/ppc/PPC604/common/libnet.a(routeCommonLib.o)
                0x0047454c                routeMetricSet
                0x00474414                rtrequestDelEqui
                0x0047444c                routeAgeSet
                0x00474358                rtrequestAddEqui
 .text          0x0047464c      0xdcc /usr/local/clas/devel/VxWorks55/ppc/target/lib/ppc/PPC604/common/libnet.a(sockLib.o)
                0x00474ed0                recv
                0x00474a38                connect
                0x004746d0                sockLibAdd
                0x00474de0                recvfrom
                0x0047478c                socket
                0x0047464c                sockLibInit
                0x00474c90                send
                0x0047496c                accept
                0x0047483c                bind
                0x00475028                setsockopt
                0x00474d3c                sendmsg
                0x00474ba0                sendto
                0x004748dc                listen
                0x00475334                shutdown
                0x0047527c                getpeername
                0x004750ec                getsockopt
                0x00474ae4                connectWithTimeout
                0x004753cc                sockFdtosockFunc
                0x00474f84                recvmsg
                0x004751c4                getsockname
 .text          0x00475418      0x23c /usr/local/clas/devel/VxWorks55/ppc/target/lib/ppc/PPC604/common/libnet.a(tcpLib.o)
                0x00475418                tcpLibInit
 .text          0x00475654     0x19d4 /usr/local/clas/devel/VxWorks55/ppc/target/lib/ppc/PPC604/common/libnet.a(tftpLib.o)
                0x00476b14                tftpErrorCreate
                0x00475bc4                tftpModeSet
                0x004759a8                tftpCopy
                0x00476468                tftpQuit
                0x00475654                tftpXfer
                0x004764c0                tftpSend
                0x00475af0                tftpInit
                0x0047636c                tftpInfoShow
                0x00476094                tftpGet
                0x004758f8                tftpTask
                0x00475cbc                tftpPeerSet
                0x00475dec                tftpPut
 .text          0x00477028      0x13c /usr/local/clas/devel/VxWorks55/ppc/target/lib/ppc/PPC604/common/libnet.a(udpLib.o)
                0x00477028                udpLibInit
 .text          0x00477164     0x19dc /usr/local/clas/devel/VxWorks55/ppc/target/lib/ppc/PPC604/common/libnet.a(netBufLib.o)
                0x00478184                netClFree
                0x004781c8                netMblkClFree
                0x00478294                netClBlkGet
                0x00478674                netMblkChainDup
                0x00478454                netClBlkJoin
                0x00477fc8                netPoolKheapInit
                0x004785bc                netMblkDup
                0x00478138                netClBlkFree
                0x00478a50                netTupleGet2
                0x00477f64                netBufLibInit
                0x004780f4                netMblkFree
                0x0047852c                netMblkToBufCopy
                0x0047832c                netMblkClGet
                0x00478208                netMblkClChainFree
                0x00478024                netPoolDelete
                0x00478378                netTupleGet
                0x00477f6c                netPoolInit
                0x004788b8                netMblkOffsetToBufCopy
                0x00478248                netMblkGet
                0x004782e0                netClusterGet
                0x004784e0                netClPoolIdGet
                0x004784a0                netMblkClJoin
 .text          0x00478b40      0x1b4 /usr/local/clas/devel/VxWorks55/ppc/target/lib/ppc/PPC604/common/libnet.a(ifIndexLib.o)
                0x00478c74                ifIndexTest
                0x00478bf0                ifIndexAlloc
                0x00478b8c                ifIndexLibShutdown
                0x00478b40                ifIndexLibInit
 .text          0x00478cf4     0x1238 /usr/local/clas/devel/VxWorks55/ppc/target/lib/ppc/PPC604/common/libnet.a(igmp.o)
                0x004799bc                igmp_fasttimo
                0x00479b7c                igmp_slowtimo
                0x00478efc                igmp_input
                0x00478cf4                igmp_init
 .text          0x00479f2c      0x300 /usr/local/clas/devel/VxWorks55/ppc/target/lib/ppc/PPC604/common/libnet.a(in_cksum.o)
                0x00479f2c                in_cksum
 .text          0x0047a22c     0x1a24 /usr/local/clas/devel/VxWorks55/ppc/target/lib/ppc/PPC604/common/libnet.a(in_pcb.o)
                0x0047a22c                in_pcballoc
                0x0047bb4c                in_pcbinshash
                0x0047b3f8                in_pcbnotify
                0x0047b7c8                in_rtchange
                0x0047b808                in_pcblookup
                0x0047a38c                in_pcbbind
                0x0047b378                in_setpeeraddr
                0x0047b650                in_losing
                0x0047a958                in_pcbladdr
                0x0047b2f8                in_setsockaddr
                0x0047b244                in_pcbdetach
                0x0047b96c                in_pcblookuphash
                0x0047af0c                in_pcbconnect
                0x0047b14c                in_pcbdisconnect
                0x0047bba8                in_pcbrehash
 .text          0x0047bc50     0x1644 /usr/local/clas/devel/VxWorks55/ppc/target/lib/ppc/PPC604/common/libnet.a(ip_icmp.o)
                0x0047d17c                icmp_ctloutput
                0x0047c2a0                icmp_input
                0x0047bc50                icmp_init
 .text          0x0047d294     0x12fc /usr/local/clas/devel/VxWorks55/ppc/target/lib/ppc/PPC604/common/libnet.a(raw_ip.o)
                0x0047df0c                rip_usrreq
                0x0047d938                rip_output
                0x0047db74                rip_ctloutput
                0x0047d294                rip_init
                0x0047d398                rip_input
 .text          0x0047e590      0x564 /usr/local/clas/devel/VxWorks55/ppc/target/lib/ppc/PPC604/common/libnet.a(sys_socket.o)
                0x0047e7f8                soo_select
                0x0047e9c8                soo_unselect
                0x0047e590                soo_ioctl
 .text          0x0047eaf4     0x3698 /usr/local/clas/devel/VxWorks55/ppc/target/lib/ppc/PPC604/common/libnet.a(tcp_input.o)
                0x00481c6c                tcp_pulloutofband
                0x00481ee8                tcp_mss
                0x00481a74                tcp_dooptions
                0x0047eaf4                tcp_reass
                0x00481dec                tcp_xmit_timer
                0x0047ef7c                tcp_input
 .text          0x0048218c      0xdc0 /usr/local/clas/devel/VxWorks55/ppc/target/lib/ppc/PPC604/common/libnet.a(tcp_output.o)
                0x00482e98                tcp_setpersist
                0x0048218c                tcp_output
 .text          0x00482f4c     0x11f4 /usr/local/clas/devel/VxWorks55/ppc/target/lib/ppc/PPC604/common/libnet.a(tcp_subr.o)
                0x00482f4c                tcpRandHookAdd
                0x004837a4                tcp_close
                0x00483248                tcp_respond
                0x00483f24                tcp_rtlookup
                0x00483a80                tcp_notify
                0x00483d58                tcp_ctlinput
                0x00483a7c                tcp_drain
                0x00483fa0                tcp_updatemtu
                0x00483f0c                tcp_quench
                0x00482f80                tcp_init
                0x00483178                tcp_template
                0x00482f6c                tcpRandHookDelete
                0x00483544                tcp_newtcpcb
                0x00483624                tcp_drop
 .text          0x00484140      0x7a8 /usr/local/clas/devel/VxWorks55/ppc/target/lib/ppc/PPC604/common/libnet.a(tcp_timer.o)
                0x004844c0                tcp_canceltimers
                0x00484140                tcp_fasttimo
                0x00484280                tcp_slowtimo
                0x004844e0                tcp_timers
 .text          0x004848e8     0x1018 /usr/local/clas/devel/VxWorks55/ppc/target/lib/ppc/PPC604/common/libnet.a(tcp_usrreq.o)
                0x004854ec                tcp_attach
                0x00485708                tcp_disconnect
                0x00485854                tcp_usrclosed
                0x004848e8                tcp_usrreq
                0x004851b0                tcp_ctloutput
 .text          0x00485900     0x2d38 /usr/local/clas/devel/VxWorks55/ppc/target/lib/ppc/PPC604/common/libnet.a(uipc_sock.o)
                0x00487338                soreceive
                0x004865d4                soaccept
                0x00487e08                soshutdown
                0x004864e4                soabort
                0x00485ea0                sofree
                0x004869bc                soconnect2
                0x00488020                sosetopt
                0x00488524                uiomove
                0x004867b4                soconnect
                0x00487f30                sorflush
                0x00485d20                solisten
                0x00486a48                sodisconnect
                0x00485c04                sobind
                0x004860f0                soclose
                0x004882e8                sogetopt
                0x00486b84                sosend
                0x00485900                socreate
                0x00488520                sohasoutofband
 .text          0x00488638      0x51c /usr/local/clas/devel/VxWorks55/ppc/target/lib/ppc/PPC604/common/libnet.a(random.o)
                0x00488a94                random
                0x00488910                setstate
                0x00488738                initstate
                0x00488638                srandom
 .text          0x00488b54       0xa8 /usr/local/clas/devel/VxWorks55/ppc/target/lib/ppc/PPC604/common/libos.a(fabs.o)
                0x00488b54                fabs
 .text          0x00488bfc      0x120 /usr/local/clas/devel/VxWorks55/ppc/target/lib/ppc/PPC604/common/libos.a(fclose.o)
                0x00488bfc                fclose
 .text          0x00488d1c      0x178 /usr/local/clas/devel/VxWorks55/ppc/target/lib/ppc/PPC604/common/libos.a(fflush.o)
                0x00488d1c                fflush
                0x00488d9c                __sflush
 .text          0x00488e94      0x18c /usr/local/clas/devel/VxWorks55/ppc/target/lib/ppc/PPC604/common/libos.a(fgets.o)
                0x00488e94                fgets
 .text          0x00489020       0xb0 /usr/local/clas/devel/VxWorks55/ppc/target/lib/ppc/PPC604/common/libos.a(fopen.o)
                0x00489020                fopen
 .text          0x004890d0       0xf8 /usr/local/clas/devel/VxWorks55/ppc/target/lib/ppc/PPC604/common/libos.a(fprintf.o)
                0x004890d0                fprintf
 .text          0x004891c8      0x124 /usr/local/clas/devel/VxWorks55/ppc/target/lib/ppc/PPC604/common/libos.a(gets.o)
                0x004891c8                gets
 .text          0x004892ec       0x90 /usr/local/clas/devel/VxWorks55/ppc/target/lib/ppc/PPC604/common/libos.a(perror.o)
                0x004892ec                perror
 .text          0x0048937c      0x1a0 /usr/local/clas/devel/VxWorks55/ppc/target/lib/ppc/PPC604/common/libos.a(refill.o)
                0x004893b8                __srefill
 .text          0x0048951c       0x58 /usr/local/clas/devel/VxWorks55/ppc/target/lib/ppc/PPC604/common/libos.a(rget.o)
                0x0048951c                __srget
 .text          0x00489574       0xf4 /usr/local/clas/devel/VxWorks55/ppc/target/lib/ppc/PPC604/common/libos.a(scanf.o)
                0x00489574                scanf
 .text          0x00489668      0x160 /usr/local/clas/devel/VxWorks55/ppc/target/lib/ppc/PPC604/common/libos.a(stdio.o)
                0x00489734                __sseek
                0x00489668                __sread
                0x00489788                __sclose
                0x004896bc                __swrite
 .text          0x004897c8      0x400 /usr/local/clas/devel/VxWorks55/ppc/target/lib/ppc/PPC604/common/libos.a(stdioLib.o)
                0x004897c8                stdioInit
                0x00489b80                __stderr
                0x00489af0                __stdin
                0x00489840                stdioFpCreate
                0x004898f4                stdioFpDestroy
                0x00489b38                __stdout
                0x00489a98                stdioFp
 .text          0x00489bc8      0x278 /usr/local/clas/devel/VxWorks55/ppc/target/lib/ppc/PPC604/common/libos.a(ungetc.o)
                0x00489cb4                ungetc
 .text          0x00489e40       0xf4 /usr/local/clas/devel/VxWorks55/ppc/target/lib/ppc/PPC604/common/libos.a(wbuf.o)
                0x00489e40                __swbuf
 .text          0x00489f34       0xec /usr/local/clas/devel/VxWorks55/ppc/target/lib/ppc/PPC604/common/libos.a(wsetup.o)
                0x00489f34                __swsetup
 .text          0x0048a020      0x324 /usr/local/clas/devel/VxWorks55/ppc/target/lib/ppc/PPC604/common/libos.a(vfprintf.o)
                0x0048a020                vfprintf
 .text          0x0048a344       0x10 /usr/local/clas/devel/VxWorks55/ppc/target/lib/ppc/PPC604/common/libos.a(abs.o)
                0x0048a344                abs
 .text          0x0048a354       0x24 /usr/local/clas/devel/VxWorks55/ppc/target/lib/ppc/PPC604/common/libos.a(atof.o)
                0x0048a354                atof
 .text          0x0048a378       0x28 /usr/local/clas/devel/VxWorks55/ppc/target/lib/ppc/PPC604/common/libos.a(atoi.o)
                0x0048a378                atoi
 .text          0x0048a3a0       0x28 /usr/local/clas/devel/VxWorks55/ppc/target/lib/ppc/PPC604/common/libos.a(atol.o)
                0x0048a3a0                atol
 .text          0x0048a3c8      0x564 /usr/local/clas/devel/VxWorks55/ppc/target/lib/ppc/PPC604/common/libos.a(strtod.o)
                0x0048a894                __exp10
                0x0048a3c8                strtod
 .text          0x0048a92c      0x264 /usr/local/clas/devel/VxWorks55/ppc/target/lib/ppc/PPC604/common/libos.a(strtol.o)
                0x0048a92c                strtol
 .text          0x0048ab90      0x230 /usr/local/clas/devel/VxWorks55/ppc/target/lib/ppc/PPC604/common/libos.a(strtoul.o)
                0x0048ab90                strtoul
 .text          0x0048adc0       0x34 /usr/local/clas/devel/VxWorks55/ppc/target/lib/ppc/PPC604/common/libos.a(memchr.o)
                0x0048adc0                memchr
 .text          0x0048adf4       0x48 /usr/local/clas/devel/VxWorks55/ppc/target/lib/ppc/PPC604/common/libos.a(memcpy.o)
                0x0048adf4                memcpy
 .text          0x0048ae3c       0x60 /usr/local/clas/devel/VxWorks55/ppc/target/lib/ppc/PPC604/common/libos.a(memmove.o)
                0x0048ae3c                memmove
 .text          0x0048ae9c       0x4c /usr/local/clas/devel/VxWorks55/ppc/target/lib/ppc/PPC604/common/libos.a(memset.o)
                0x0048ae9c                memset
 .text          0x0048aee8       0x3c /usr/local/clas/devel/VxWorks55/ppc/target/lib/ppc/PPC604/common/libos.a(strcat.o)
                0x0048aee8                strcat
 .text          0x0048af24       0x34 /usr/local/clas/devel/VxWorks55/ppc/target/lib/ppc/PPC604/common/libos.a(strchr.o)
                0x0048af24                strchr
 .text          0x0048af58       0x40 /usr/local/clas/devel/VxWorks55/ppc/target/lib/ppc/PPC604/common/libos.a(strcmp.o)
                0x0048af58                strcmp
 .text          0x0048af98       0x28 /usr/local/clas/devel/VxWorks55/ppc/target/lib/ppc/PPC604/common/libos.a(strcpy.o)
                0x0048af98                strcpy
 .text          0x0048afc0      0x174 /usr/local/clas/devel/VxWorks55/ppc/target/lib/ppc/PPC604/common/libos.a(strerror.o)
                0x0048afe0                strerror
                0x0048afc0                strerror_r
 .text          0x0048b134       0x1c /usr/local/clas/devel/VxWorks55/ppc/target/lib/ppc/PPC604/common/libos.a(strlen.o)
                0x0048b134                strlen
 .text          0x0048b150       0x4c /usr/local/clas/devel/VxWorks55/ppc/target/lib/ppc/PPC604/common/libos.a(strncmp.o)
                0x0048b150                strncmp
 .text          0x0048b19c       0x60 /usr/local/clas/devel/VxWorks55/ppc/target/lib/ppc/PPC604/common/libos.a(strncpy.o)
                0x0048b19c                strncpy
 .text          0x0048b1fc       0x68 /usr/local/clas/devel/VxWorks55/ppc/target/lib/ppc/PPC604/common/libos.a(strstr.o)
                0x0048b1fc                strstr
 .text          0x0048b264       0xa4 /usr/local/clas/devel/VxWorks55/ppc/target/lib/ppc/PPC604/common/libos.a(strtok_r.o)
                0x0048b264                strtok_r
 .text          0x0048b308       0x84 /usr/local/clas/devel/VxWorks55/ppc/target/lib/ppc/PPC604/common/libos.a(asctime.o)
                0x0048b308                asctime
                0x0048b358                asctime_r
 .text          0x0048b38c      0x120 /usr/local/clas/devel/VxWorks55/ppc/target/lib/ppc/PPC604/common/libos.a(localtime.o)
                0x0048b38c                localtime
                0x0048b3d0                localtime_r
 .text          0x0048b4ac      0xbf8 /usr/local/clas/devel/VxWorks55/ppc/target/lib/ppc/PPC604/common/libos.a(strftime.o)
                0x0048bc6c                __getDstInfo
                0x0048b4ac                strftime
                0x0048bf54                __getZoneInfo
 .text          0x0048c0a4       0x58 /usr/local/clas/devel/VxWorks55/ppc/target/lib/ppc/PPC604/common/libos.a(time.o)
                0x0048c0a4                time
 .text          0x0048c0fc      0x168 /usr/local/clas/devel/VxWorks55/ppc/target/lib/ppc/PPC604/common/libos.a(fpType.o)
                0x0048c0fc                fpTypeGet
 .text          0x0048c264      0x554 /usr/local/clas/devel/VxWorks55/ppc/target/lib/ppc/PPC604/common/libos.a(cacheLib.o)
                0x0048c6c8                cacheDrvFlush
                0x0048c3c4                cacheInvalidate
                0x0048c344                cacheUnlock
                0x0048c264                cacheLibInit
                0x0048c404                cacheClear
                0x0048c510                cacheDmaFree
                0x0048c780                cacheDrvPhysToVirt
                0x0048c284                cacheEnable
                0x0048c384                cacheFlush
                0x0048c444                cachePipeFlush
                0x0048c708                cacheDrvInvalidate
                0x0048c2c4                cacheDisable
                0x0048c4d0                cacheDmaMalloc
                0x0048c748                cacheDrvVirtToPhys
                0x0048c554                cacheFuncsSet
                0x0048c480                cacheTextUpdate
                0x0048c304                cacheLock
 .text          0x0048c7b8      0x3d4 /usr/local/clas/devel/VxWorks55/ppc/target/lib/ppc/PPC604/common/libos.a(classLib.o)
                0x0048c9d0                classInstConnect
                0x0048c94c                classShowConnect
                0x0048ca34                classMemPartIdSet
                0x0048c898                classInit
                0x0048c91c                classDestroy
                0x0048c7b8                classLibInit
                0x0048c804                classCreate
                0x0048cac0                classInstrument
 .text          0x0048cb8c      0x454 /usr/local/clas/devel/VxWorks55/ppc/target/lib/ppc/PPC604/common/libos.a(clockLib.o)
                0x0048cc90                clock_gettime
                0x0048ce10                clock_settime
                0x0048cc88                clock_setres
                0x0048cc10                clock_getres
                0x0048ceb8                clock_show
                0x0048cb8c                clockLibInit
 .text          0x0048cfe0      0x8ac /usr/local/clas/devel/VxWorks55/ppc/target/lib/ppc/PPC604/common/libos.a(envLib.o)
                0x0048d624                getenv
                0x0048d2f8                envPrivateCreate
                0x0048cfe0                envLibInit
                0x0048d498                putenv
                0x0048d42c                envPrivateDestroy
                0x0048d7cc                envShow
 .text          0x0048d88c       0xfc /usr/local/clas/devel/VxWorks55/ppc/target/lib/ppc/PPC604/common/libos.a(errnoLib.o)
                0x0048d904                errnoSet
                0x0048d88c                __errno
                0x0048d898                errnoGet
                0x0048d8a4                errnoOfTaskGet
                0x0048d914                errnoOfTaskSet
 .text          0x0048d988      0x284 /usr/local/clas/devel/VxWorks55/ppc/target/lib/ppc/PPC604/common/libos.a(excLib.o)
                0x0048d988                excInit
                0x0048da48                excHookAdd
                0x0048da54                excJobAdd
                0x0048daf4                excTask
 .text          0x0048dc0c     0x360c /usr/local/clas/devel/VxWorks55/ppc/target/lib/ppc/PPC604/common/libos.a(fioLib.o)
                0x0048e3c0                fioFormatV
                0x0048dc34                printf
                0x0048e36c                vsprintf
                0x0048dd0c                printErr
                0x0048fc04                fioRead
                0x0048dc0c                fioLibInit
                0x0048fca4                fioRdString
                0x0048e2ec                vprintf
                0x0048dde4                printExc
                0x0049032c                scanField
                0x0048fd90                sscanf
                0x0048dc20                fioFltInstall
                0x0048e208                sprintf
                0x00490c34                scanCharSet
                0x0048e130                fdprintf
                0x0048e328                vfdprintf
                0x0048fe94                fioScanV
 .text          0x00491218      0x6cc /usr/local/clas/devel/VxWorks55/ppc/target/lib/ppc/PPC604/common/libos.a(hashLib.o)
                0x004916f8                hashTblEach
                0x004913c0                hashTblDelete
                0x004917f0                hashFuncIterScale
                0x004918b4                hashKeyStrCmp
                0x0049189c                hashKeyCmp
                0x00491408                hashTblDestroy
                0x00491634                hashTblRemove
                0x00491294                hashTblCreate
                0x004913e4                hashTblTerminate
                0x004914a4                hashTblPut
                0x00491218                hashLibInit
                0x00491824                hashFuncModulo
                0x00491840                hashFuncMultiply
                0x0049154c                hashTblFind
                0x00491328                hashTblInit
 .text          0x004918e4       0x6c /usr/local/clas/devel/VxWorks55/ppc/target/lib/ppc/PPC604/common/libos.a(intLib.o)
                0x004918e4                intRestrict
                0x0049192c                intContext
                0x00491944                intCount
 .text          0x00491950      0xe3c /usr/local/clas/devel/VxWorks55/ppc/target/lib/ppc/PPC604/common/libos.a(ioLib.o)
                0x00491ff8                ioctl
                0x00492200                writev
                0x00492678                ioGlobalStdGet
                0x00491950                creat
                0x00491c88                remove
                0x00492758                isatty
                0x00492018                lseek
                0x00491e0c                rename
                0x00491f54                write
                0x00492124                readv
                0x00492434                chdir
                0x00491eb0                read
                0x004926f0                ioTaskStdGet
                0x0049265c                ioGlobalStdSet
                0x00491c68                unlink
                0x0049240c                ioDefPathGet
                0x0049269c                ioTaskStdSet
                0x00492380                ioDefPathSet
                0x00492454                getcwd
                0x004922d4                ioFullFileNameGet
                0x004925b4                ioDefDevGet
                0x00492608                ioDefDirGet
                0x00491978                open
                0x004924d4                getwd
                0x00491d88                close
                0x0049251c                ioDefPathCat
 .text          0x0049278c     0x100c /usr/local/clas/devel/VxWorks55/ppc/target/lib/ppc/PPC604/common/libos.a(iosLib.o)
                0x004932e4                iosOpen
                0x00493290                iosDelete
                0x0049310c                iosFdNew
                0x00493524                iosWrite
                0x0049302c                iosFdSet
                0x00492e10                iosNextDevGet
                0x00493430                iosRead
                0x00493240                iosCreate
                0x00492c84                iosDevDelete
                0x00492e2c                iosFdValue
                0x00492a48                iosDrvRemove
                0x00492bc4                iosDevAdd
                0x00492914                iosDrvInstall
                0x00493338                iosClose
                0x00493618                iosIoctl
                0x00492eac                iosFdDevFind
                0x00492794                iosInit
                0x00492f2c                iosFdFree
                0x00492cdc                iosDevFind
 .text          0x00493798      0x700 /usr/local/clas/devel/VxWorks55/ppc/target/lib/ppc/PPC604/common/libos.a(logLib.o)
                0x00493a1c                logFdAdd
                0x00493990                logFdSet
                0x00493b88                logTask
                0x00493798                logInit
                0x00493aa0                logFdDelete
                0x0049389c                logMsg
                0x00493dd4                logShow
 .text          0x00493e98      0xa50 /usr/local/clas/devel/VxWorks55/ppc/target/lib/ppc/PPC604/common/libos.a(memLib.o)
                0x00494894                memFindMax
                0x0049456c                memPartFindMax
                0x004947b0                memOptionsSet
                0x004947dc                calloc
                0x004941d4                memPartRealloc
                0x00493f90                memPartOptionsSet
                0x00493f3c                memInit
                0x00494834                realloc
                0x00493e98                memLibInit
                0x00494138                memalign
                0x00494868                cfree
                0x00494164                valloc
 .text          0x004948e8      0xfa0 /usr/local/clas/devel/VxWorks55/ppc/target/lib/ppc/PPC604/common/libos.a(memPartLib.o)
                0x00494adc                memPartInit
                0x004957d4                memAddToPool
                0x00495510                memPartBlockIsValid
                0x00495804                malloc
                0x00494e10                memPartAlignedAlloc
                0x004949b0                memPartCreate
                0x00495198                memPartAlloc
                0x00494bd0                memPartAddToPool
                0x004948e8                memPartLibInit
                0x00495214                memPartFree
                0x00495830                free
 .text          0x00495888      0x268 /usr/local/clas/devel/VxWorks55/ppc/target/lib/ppc/PPC604/common/libos.a(objLib.o)
                0x00495a34                objFree
                0x00495888                objShow
                0x00495940                objAllocExtra
                0x00495ad4                objCoreTerminate
                0x00495ac0                objCoreInit
                0x00495a0c                objAlloc
 .text          0x00495af0      0x828 /usr/local/clas/devel/VxWorks55/ppc/target/lib/ppc/PPC604/common/libos.a(pathLib.o)
                0x00495c58                pathCondense
                0x0049624c                pathSplit
                0x00495af0                pathParse
                0x00495de8                pathBuild
                0x00495f4c                pathCat
                0x00496160                pathLastNamePtr
                0x0049619c                pathLastName
 .text          0x00496318      0x6d8 /usr/local/clas/devel/VxWorks55/ppc/target/lib/ppc/PPC604/common/libos.a(pipeDrv.o)
                0x00496394                pipeDevCreate
                0x004964b4                pipeDevDelete
                0x00496318                pipeDrv
 .text          0x004969f0      0x13c /usr/local/clas/devel/VxWorks55/ppc/target/lib/ppc/PPC604/common/libos.a(rebootLib.o)
                0x00496a98                rebootHookAdd
                0x004969f0                reboot
 .text          0x00496b2c      0xd24 /usr/local/clas/devel/VxWorks55/ppc/target/lib/ppc/PPC604/common/libos.a(selectLib.o)
                0x00496b2c                selectInit
                0x00497384                selNodeAdd
                0x00496d14                select
                0x00496ca8                selTaskDeleteHookAdd
                0x00497560                selWakeupListTerm
                0x00497510                selWakeupListInit
                0x00497580                selWakeupListLen
                0x004972b8                selWakeupAll
                0x004975a4                selWakeupType
                0x0049722c                selWakeup
                0x00497450                selNodeDelete
 .text          0x00497850      0x7a8 /usr/local/clas/devel/VxWorks55/ppc/target/lib/ppc/PPC604/common/libos.a(taskHookLib.o)
                0x004978cc                taskSwitchHookAdd
                0x00497874                taskCreateHookAdd
                0x00497924                taskSwapHookAdd
                0x00497bcc                taskSwapHookDelete
                0x004979ac                taskSwapHookAttach
                0x004978f8                taskSwitchHookDelete
                0x004978a0                taskCreateHookDelete
                0x00497ac8                taskSwapHookDetach
                0x00497c6c                taskDeleteHookAdd
                0x00497cf8                taskDeleteHookDelete
                0x00497850                taskHookInit
 .text          0x00497ff8      0x358 /usr/local/clas/devel/VxWorks55/ppc/target/lib/ppc/PPC604/common/libos.a(ttyDrv.o)
                0x00497ff8                ttyDrv
                0x00498074                ttyDevCreate
 .text          0x00498350     0x11b4 /usr/local/clas/devel/VxWorks55/ppc/target/lib/ppc/PPC604/common/libos.a(tyLib.o)
                0x00498438                tyDevRemove
                0x00498658                tyAbortFuncSet
                0x00498670                tyBackspaceSet
                0x0049867c                tyDeleteLineSet
                0x00498da0                tyIRd
                0x00498688                tyEOFSet
                0x00498350                tyDevInit
                0x00498c20                tyITx
                0x00498664                tyAbortSet
                0x004988f8                tyWrite
                0x00498694                tyMonitorTrapSet
                0x00498a20                tyRead
                0x004986a0                tyIoctl
 .text          0x00499504      0x434 /usr/local/clas/devel/VxWorks55/ppc/target/lib/ppc/PPC604/common/libos.a(bootElfLib.o)
                0x00499920                bootElfInit
 .text          0x00499938       0x4c /usr/local/clas/devel/VxWorks55/ppc/target/lib/ppc/PPC604/common/libos.a(bootLoadLib.o)
                0x00499938                bootLoadModule
 .text          0x00499984      0x254 /usr/local/clas/devel/VxWorks55/ppc/target/lib/ppc/PPC604/common/libos.a(ramDrv.o)
                0x00499984                ramDrv
                0x0049998c                ramDevCreate
 .text          0x00499bd8      0x338 /usr/local/clas/devel/VxWorks55/ppc/target/lib/ppc/PPC604/common/libos.a(usrDosFsOld.o)
                0x00499e08                dosFsConfigShow
                0x00499e44                dosFsVolOptionsSet
                0x00499e2c                dosFsModeChange
                0x00499e30                dosFsReadyChange
                0x00499e34                dosFsVolOptionsGet
                0x00499e00                dosFsConfigGet
                0x00499d5c                dosFsDevInitOptionsSet
                0x00499c44                dosFsDevInit
                0x00499d64                dosFsMkfs
                0x00499bd8                dosFsInit
                0x00499de8                dosFsMkfsOptionsSet
                0x00499df8                dosFsConfigInit
                0x00499e4c                dosFsDateTimeInstall
 .text          0x00499f10      0x198 /usr/local/clas/devel/VxWorks55/ppc/target/lib/ppc/PPC604/common/libos.a(bLib.o)
                0x00499f10                bcmp
                0x00499f84                bswap
                0x00499fe8                bzero
                0x0049a048                rindex
                0x0049a00c                index
                0x00499fb0                uswab
                0x00499f50                binvert
 .text          0x0049a0a8     0x1934 /usr/local/clas/devel/VxWorks55/ppc/target/lib/ppc/PPC604/common/libos.a(bootLib.o)
                0x0049b87c                bootScanNum
                0x0049adb8                bootBpAnchorExtract
                0x0049a494                bootStructToString
                0x0049abe8                bootLeaseExtract
                0x0049aba8                bootParamsErrorPrint
                0x0049a9b8                bootParamsPrompt
                0x0049ad08                bootNetmaskExtract
                0x0049a0a8                bootStringToStruct
                0x0049a824                bootParamsShow
 .text          0x0049b9dc       0x58 /usr/local/clas/devel/VxWorks55/ppc/target/lib/ppc/PPC604/common/libos.a(cksumLib.o)
                0x0049b9dc                checksum
 .text          0x0049ba34      0x204 /usr/local/clas/devel/VxWorks55/ppc/target/lib/ppc/PPC604/common/libos.a(dllLib.o)
                0x0049bbc8                dllEach
                0x0049bac0                dllInsert
                0x0049bba0                dllCount
                0x0049bab8                dllTerminate
                0x0049ba34                dllCreate
                0x0049ba94                dllDelete
                0x0049bafc                dllAdd
                0x0049bb24                dllRemove
                0x0049bb68                dllGet
                0x0049ba7c                dllInit
 .text          0x0049bc38      0x418 /usr/local/clas/devel/VxWorks55/ppc/target/lib/ppc/PPC604/common/libos.a(lstLib.o)
                0x0049bf6c                lstFind
                0x0049be1c                lstInsert
                0x0049bd4c                lstExtract
                0x0049be6c                lstNext
                0x0049bdd0                lstFirst
                0x0049bc50                lstAdd
                0x0049bc78                lstConcat
                0x0049bdd8                lstGet
                0x0049bef0                lstNStep
                0x0049bcf4                lstCount
                0x0049bee8                lstPrevious
                0x0049bfdc                lstFree
                0x0049bc3c                lstInit
                0x0049bcfc                lstDelete
                0x0049bc38                lstLibInit
                0x0049be74                lstNth
                0x0049be64                lstLast
 .text          0x0049c050      0x208 /usr/local/clas/devel/VxWorks55/ppc/target/lib/ppc/PPC604/common/libos.a(qFifoLib.o)
                0x0049c0b8                qFifoDelete
                0x0049c114                qFifoGet
                0x0049c1e0                qFifoEach
                0x0049c14c                qFifoRemove
                0x0049c0dc                qFifoPut
                0x0049c050                qFifoCreate
                0x0049c094                qFifoInit
                0x0049c170                qFifoInfo
 .text          0x0049c258      0x580 /usr/local/clas/devel/VxWorks55/ppc/target/lib/ppc/PPC604/common/libos.a(qLib.o)
                0x0049c748                qCalibrate
                0x0049c7a8                qEach
                0x0049c6e0                qGetExpired
                0x0049c5f0                qPut
                0x0049c3e8                qInit
                0x0049c650                qRemove
                0x0049c5e8                qFirst
                0x0049c594                qTerminate
                0x0049c778                qInfo
                0x0049c6b0                qAdvance
                0x0049c548                qDelete
                0x0049c620                qGet
                0x0049c680                qResort
                0x0049c710                qKey
                0x0049c258                qCreate
 .text          0x0049c7d8      0x66c /usr/local/clas/devel/VxWorks55/ppc/target/lib/ppc/PPC604/common/libos.a(qPriBMapLib.o)
                0x0049c998                qPriBMapDelete
                0x0049cb24                qPriBMapResort
                0x0049c83c                qPriBMapCreate
                0x0049c7d8                qPriBMapListCreate
                0x0049cb8c                qPriBMapInfo
                0x0049cb84                qPriBMapKey
                0x0049c8c0                qPriBMapInit
                0x0049c818                qPriBMapListDelete
                0x0049c9bc                qPriBMapPut
                0x0049ca40                qPriBMapGet
                0x0049cc88                qPriBMapEach
                0x0049ca7c                qPriBMapRemove
 .text          0x0049ce44      0x3c0 /usr/local/clas/devel/VxWorks55/ppc/target/lib/ppc/PPC604/common/libos.a(qPriListLib.o)
                0x0049ce44                qPriListCreate
                0x0049cfd4                qPriListRemove
                0x0049d124                qPriListInfo
                0x0049cff8                qPriListResort
                0x0049d08c                qPriListAdvance
                0x0049ce88                qPriListInit
                0x0049d090                qPriListGetExpired
                0x0049ceac                qPriListDelete
                0x0049d194                qPriListEach
                0x0049ced0                qPriListTerminate
                0x0049cf9c                qPriListGet
                0x0049d100                qPriListKey
                0x0049d0d8                qPriListCalibrate
                0x0049ced8                qPriListPut
                0x0049cf3c                qPriListPutFromTail
 .text          0x0049d204      0x468 /usr/local/clas/devel/VxWorks55/ppc/target/lib/ppc/PPC604/common/libos.a(rngLib.o)
                0x0049d5e0                rngNBytes
                0x0049d2d4                rngBufGet
                0x0049d58c                rngIsFull
                0x0049d408                rngBufPut
                0x0049d638                rngMoveAhead
                0x0049d204                rngCreate
                0x0049d2c4                rngFlush
                0x0049d5bc                rngFreeBytes
                0x0049d600                rngPutAhead
                0x0049d574                rngIsEmpty
                0x0049d27c                rngDelete
 .text          0x0049d66c      0x224 /usr/local/clas/devel/VxWorks55/ppc/target/lib/ppc/PPC604/common/libos.a(sllLib.o)
                0x0049d7ec                sllCount
                0x0049d6f0                sllTerminate
                0x0049d66c                sllCreate
                0x0049d7a0                sllPrevious
                0x0049d6b4                sllInit
                0x0049d814                sllEach
                0x0049d71c                sllPutAtTail
                0x0049d74c                sllGet
                0x0049d768                sllRemove
                0x0049d6f8                sllPutAtHead
                0x0049d6cc                sllDelete
 .text          0x0049d890     0x2810 /usr/local/clas/devel/VxWorks55/ppc/target/lib/ppc/PPC604/common/libos.a(dcacheCbio.o)
                0x0049e898                dcacheDevEnable
                0x0049e7e0                dcacheDevDisable
                0x0049fd88                dcacheShow
                0x0049d890                dcacheDevCreate
                0x0049f980                dcacheDevMemResize
                0x0049fc40                dcacheUpd
                0x0049f8a4                dcacheDevTune
 .text          0x004a00a0     0x23b0 /usr/local/clas/devel/VxWorks55/ppc/target/lib/ppc/PPC604/common/libos.a(dosChkLib.o)
                0x004a02cc                dosChkEntryMark
                0x004a0f40                dosFsChkTree
                0x004a1498                dosChkDsk
                0x004a1958                dosChkLibInit
 .text          0x004a2450     0x21f0 /usr/local/clas/devel/VxWorks55/ppc/target/lib/ppc/PPC604/common/libos.a(dosDirOldLib.o)
                0x004a45f8                dosDirOldLibInit
 .text          0x004a4640     0x1f48 /usr/local/clas/devel/VxWorks55/ppc/target/lib/ppc/PPC604/common/libos.a(dosFsFat.o)
                0x004a61d8                fat16VolMount
                0x004a60f8                fat16ClustValueGet
                0x004a5f2c                fat16ClustValueSet
                0x004a6540                dosFsFatInit
 .text          0x004a6588     0x177c /usr/local/clas/devel/VxWorks55/ppc/target/lib/ppc/PPC604/common/libos.a(dosFsFmtLib.o)
                0x004a7cf0                dosFsFmtLibInit
                0x004a792c                dosFsVolFormat
 .text          0x004a7d04     0x4e80 /usr/local/clas/devel/VxWorks55/ppc/target/lib/ppc/PPC604/common/libos.a(dosFsLib.o)
                0x004ac258                dosFsDevCreate
                0x004aca0c                dosFsHdlrInstall
                0x004a8aa8                dosFsVolIsFat12
                0x004ac548                dosFsShow
                0x004a8014                dosFsChkDsk
                0x004ac190                dosFsLastAccessDateEnable
                0x004a7efc                dosFsVolUnmount
                0x004a7d04                dosSetVolCaseSens
                0x004ac1d4                dosFsLibInit
                0x004a7d90                dosFsVolDescGet
 .text          0x004acb84     0x30e4 /usr/local/clas/devel/VxWorks55/ppc/target/lib/ppc/PPC604/common/libos.a(dosVDirLib.o)
                0x004afc20                dosVDirLibInit
 .text          0x004afc68      0x378 /usr/local/clas/devel/VxWorks55/ppc/target/lib/ppc/PPC604/common/libos.a(print64Lib.o)
                0x004aff00                print64Mult
                0x004afc68                print64
                0x004afe9c                print64Fine
                0x004afedc                print64Row
 .text          0x004affe0       0x94 /usr/local/clas/devel/VxWorks55/ppc/target/lib/ppc/PPC604/common/libos.a(fgetc.o)
                0x004affe0                fgetc
 .text          0x004b0074      0x150 /usr/local/clas/devel/VxWorks55/ppc/target/lib/ppc/PPC604/common/libos.a(flags.o)
                0x004b0074                __sflags
 .text          0x004b01c4      0x16c /usr/local/clas/devel/VxWorks55/ppc/target/lib/ppc/PPC604/common/libos.a(makebuf.o)
                0x004b01c4                __smakebuf
 .text          0x004b0330       0x58 /usr/local/clas/devel/VxWorks55/ppc/target/lib/ppc/PPC604/common/libos.a(strncat.o)
                0x004b0330                strncat
 .text          0x004b0388       0x54 /usr/local/clas/devel/VxWorks55/ppc/target/lib/ppc/PPC604/common/libos.a(strpbrk.o)
                0x004b0388                strpbrk
 .text          0x004b03dc       0x6c /usr/local/clas/devel/VxWorks55/ppc/target/lib/ppc/PPC604/common/libos.a(strspn.o)
                0x004b03dc                strspn
 .text          0x004b0448       0x8c /usr/local/clas/devel/VxWorks55/ppc/target/lib/ppc/PPC604/common/libos.a(ctime.o)
                0x004b0448                ctime
                0x004b047c                ctime_r
 .text          0x004b04d4      0x350 /usr/local/clas/devel/VxWorks55/ppc/target/lib/ppc/PPC604/common/libos.a(gmtime.o)
                0x004b0724                __daysSinceEpoch
                0x004b053c                __getTime
                0x004b0518                gmtime_r
                0x004b0774                __julday
                0x004b04d4                gmtime
 .text          0x004b0824      0x2d4 /usr/local/clas/devel/VxWorks55/ppc/target/lib/ppc/PPC604/common/libos.a(mktime.o)
                0x004b0824                mktime
 .text          0x004b0af8     0x1898 /usr/local/clas/devel/VxWorks55/ppc/target/lib/ppc/PPC604/common/libos.a(cbioLib.o)
                0x004b0fd4                cbioLock
                0x004b1028                cbioUnlock
                0x004b0e5c                cbioModeSet
                0x004b0ef0                cbioRdyChgdGet
                0x004b0ba0                cbioBlkRW
                0x004b0f7c                cbioRdyChgdSet
                0x004b10fc                cbioRdyChk
                0x004b0d70                cbioIoctl
                0x004b0af8                cbioLibInit
                0x004b0cf0                cbioBlkCopy
                0x004b145c                cbioWrapBlkDev
                0x004b15c0                cbioDevCreate
                0x004b0c40                cbioBytesRW
                0x004b11b8                cbioShow
                0x004b106c                cbioParamsGet
                0x004b13d8                cbioDevVerify
                0x004b0de0                cbioModeGet
 .text          0x004b2390       0x38 /usr/local/clas/devel/VxWorks55/ppc/target/lib/ppc/PPC604/common/libos.a(assert.o)
                0x004b2390                __assert
 .text          0x004b23c8       0x2c /usr/local/clas/devel/VxWorks55/ppc/target/lib/ppc/PPC604/common/libos.a(abort.o)
                0x004b23c8                abort
 .text          0x004b23f4       0x8c /usr/local/clas/devel/VxWorks55/ppc/target/lib/ppc/PPC604/common/libos.a(ldiv.o)
                0x004b2448                ldiv_r
                0x004b23f4                ldiv
 .text          0x004b2480     0x2228 /usr/local/clas/devel/VxWorks55/ppc/target/lib/ppc/PPC604/common/libos.a(sigLib.o)
                0x004b432c                sigPendInit
                0x004b2dc8                pause
                0x004b2650                sigemptyset
                0x004b2670                sigaddset
                0x004b4344                sigPendDestroy
                0x004b2480                sigInit
                0x004b35ac                kill
                0x004b3444                sigvec
                0x004b33d0                sigwaitinfo
                0x004b41fc                sigPendKill
                0x004b250c                sigqueueInit
                0x004b2768                signal
                0x004b2660                sigfillset
                0x004b27e8                sigaction
                0x004b34c8                sigreturn
                0x004b3034                sigtimedwait
                0x004b354c                sigblock
                0x004b37a4                sigqueue
                0x004b2718                sigismember
                0x004b26c4                sigdelset
                0x004b2ae4                sigpending
                0x004b3518                sigsetmask
                0x004b33f4                sigwait
                0x004b2b2c                sigsuspend
                0x004b3580                raise
                0x004b29e8                sigprocmask
 .text          0x004b46a8      0xdb8 /usr/local/clas/devel/VxWorks55/ppc/target/lib/ppc/PPC604/common/libwind.a(eventLib.o)
                0x004b5074                eventRsrcSend
                0x004b47e0                eventReceive
                0x004b46f0                eventTerminate
                0x004b46a8                eventLibInit
                0x004b531c                eventStart
                0x004b46dc                eventInit
                0x004b52c4                eventClear
                0x004b4cb4                eventSend
 .text          0x004b5460      0x1c4 /usr/local/clas/devel/VxWorks55/ppc/target/lib/ppc/PPC604/common/libwind.a(kernelLib.o)
                0x004b55e8                kernelVersion
                0x004b5460                kernelInit
                0x004b55f4                kernelTimeSlice
 .text          0x004b5624     0x1270 /usr/local/clas/devel/VxWorks55/ppc/target/lib/ppc/PPC604/common/libwind.a(msgQLib.o)
                0x004b5864                msgQInit
                0x004b56c4                msgQCreate
                0x004b67b0                msgQNumMsgs
                0x004b5a7c                msgQDelete
                0x004b5fa0                msgQSend
                0x004b5a58                msgQTerminate
                0x004b63dc                msgQReceive
                0x004b5624                msgQLibInit
 .text          0x004b6894      0x954 /usr/local/clas/devel/VxWorks55/ppc/target/lib/ppc/PPC604/common/libwind.a(msgQShow.o)
                0x004b6894                msgQShowInit
                0x004b6950                msgQInfoGet
                0x004b6b74                msgQShow
 .text          0x004b71e8      0x330 /usr/local/clas/devel/VxWorks55/ppc/target/lib/ppc/PPC604/common/libwind.a(schedLib.o)
                0x004b71e8                reschedule
 .text          0x004b7518      0x87c /usr/local/clas/devel/VxWorks55/ppc/target/lib/ppc/PPC604/common/libwind.a(semBLib.o)
                0x004b77c8                semBCoreInit
                0x004b7894                semBGive
                0x004b7c68                semBGiveDefer
                0x004b7740                semBInit
                0x004b7518                semBLibInit
                0x004b75d4                semBCreate
                0x004b7a94                semBTake
 .text          0x004b7d94      0x820 /usr/local/clas/devel/VxWorks55/ppc/target/lib/ppc/PPC604/common/libwind.a(semCLib.o)
                0x004b8034                semCCoreInit
                0x004b7fac                semCInit
                0x004b8494                semCGiveDefer
                0x004b82c4                semCTake
                0x004b7e50                semCCreate
                0x004b7d94                semCLibInit
                0x004b80d0                semCGive
 .text          0x004b85b4      0xcc0 /usr/local/clas/devel/VxWorks55/ppc/target/lib/ppc/PPC604/common/libwind.a(semLib.o)
                0x004b890c                semFlush
                0x004b8ac4                semDestroy
                0x004b8dd0                semGiveDefer
                0x004b8ef0                semInvalid
                0x004b8a7c                semDelete
                0x004b87b8                semTake
                0x004b8e60                semFlushDefer
                0x004b8aa0                semTerminate
                0x004b864c                semGive
                0x004b91a0                semQFlushDefer
                0x004b8f58                semIntRestrict
                0x004b85b4                semLibInit
                0x004b904c                semQFlush
                0x004b8fa4                semQInit
 .text          0x004b9274      0xd54 /usr/local/clas/devel/VxWorks55/ppc/target/lib/ppc/PPC604/common/libwind.a(semMLib.o)
                0x004b9274                semMLibInit
                0x004b94dc                semMCoreInit
                0x004b9c18                semMGiveKern
                0x004b92e8                semMCreate
                0x004b9eac                semMPendQPut
                0x004b955c                semMGive
                0x004b9754                semMTake
                0x004b98dc                semMGiveForce
                0x004b9444                semMInit
 .text          0x004b9fc8      0x428 /usr/local/clas/devel/VxWorks55/ppc/target/lib/ppc/PPC604/common/libwind.a(taskInfo.o)
                0x004ba218                taskNameToId
                0x004ba184                taskRegsSet
                0x004ba0f8                taskBpHookSet
                0x004b9fc8                taskOptionsSet
                0x004ba35c                taskIdListGet
                0x004ba1d4                taskName
                0x004ba324                taskIsSuspended
                0x004ba2e8                taskIsReady
                0x004ba104                taskRegsGet
                0x004ba0b0                taskOptionsGet
                0x004ba2cc                taskIdDefault
 .text          0x004ba3f0     0x2630 /usr/local/clas/devel/VxWorks55/ppc/target/lib/ppc/PPC604/common/libwind.a(taskLib.o)
                0x004bad30                taskDeleteForce
                0x004ba48c                taskSpawn
                0x004bc400                taskUnsafe
                0x004ba738                taskInit
                0x004bc950                taskTcb
                0x004bc2c0                taskSafe
                0x004bba1c                taskRestart
                0x004ba534                taskCreat
                0x004bc5fc                taskDelay
                0x004bac5c                taskActivate
                0x004bc9c0                taskStackAllot
                0x004bc050                taskLock
                0x004bb834                taskResume
                0x004bad88                taskDestroy
                0x004bc8dc                taskIdVerify
                0x004bc8d0                taskIdSelf
                0x004bc008                taskPriorityGet
                0x004bc118                taskUnlock
                0x004ba3f0                taskLibInit
                0x004bad04                taskDelete
                0x004bc7e8                taskUndelay
                0x004bb624                taskSuspend
                0x004bac7c                exit
                0x004bad5c                taskTerminate
                0x004bbdb4                taskPrioritySet
 .text          0x004bca20      0xb10 /usr/local/clas/devel/VxWorks55/ppc/target/lib/ppc/PPC604/common/libwind.a(taskShow.o)
                0x004bd004                taskIdListSort
                0x004bcc0c                taskShow
                0x004bd0bc                taskRegsShow
                0x004bca20                taskShowInit
                0x004bd244                taskStatusString
                0x004bd3ac                taskOptionsString
                0x004bca84                taskInfoGet
 .text          0x004bd530      0x208 /usr/local/clas/devel/VxWorks55/ppc/target/lib/ppc/PPC604/common/libwind.a(tickLib.o)
                0x004bd530                tickAnnounce
                0x004bd678                tick64Set
                0x004bd6d8                tick64Get
                0x004bd610                tickSet
                0x004bd66c                tickGet
 .text          0x004bd738      0x928 /usr/local/clas/devel/VxWorks55/ppc/target/lib/ppc/PPC604/common/libwind.a(wdLib.o)
                0x004be05c                wdTick
                0x004bd9f8                wdTerminate
                0x004bd7f4                wdCreate
                0x004bd738                wdLibInit
                0x004bdcf4                wdStart
                0x004bda1c                wdDestroy
                0x004bdedc                wdCancel
                0x004bd944                wdInit
                0x004bd9d4                wdDelete
 .text          0x004be060     0x1c0c /usr/local/clas/devel/VxWorks55/ppc/target/lib/ppc/PPC604/common/libwind.a(windLib.o)
                0x004be320                windSuspend
                0x004befac                windUndelay
                0x004bf674                windPendQFlush
                0x004be540                windPrioritySet
                0x004bf4d8                windReadyQPut
                0x004bf9f8                windPendQRemove
                0x004bee38                windDelay
                0x004bf82c                windPendQPut
                0x004bf294                windWdCancel
                0x004bf578                windReadyQRemove
                0x004be418                windResume
                0x004bf388                windPendQGet
                0x004bf0f0                windWdStart
                0x004be060                windSpawn
                0x004be148                windDelete
                0x004be514                windPriNormalSet
                0x004be7dc                windSemDelete
                0x004be96c                windTickAnnounce
                0x004bfa90                windPendQTerminate
 .text          0x004bfc6c      0x370 /usr/local/clas/devel/VxWorks55/ppc/target/lib/ppc/PPC604/common/libwind.a(workQLib.o)
                0x004bfc94                workQAdd0
                0x004bfc6c                workQInit
                0x004bfd2c                workQAdd1
                0x004bff74                workQPanic
                0x004bfea4                workQDoWork
                0x004bfde0                workQAdd2
 .text          0x004bffdc      0x1e0 /usr/local/clas/devel/VxWorks55/ppc/target/lib/ppc/PPC604/common/libwind.a(eventShow.o)
                0x004c00c0                eventRsrcShow
                0x004bffdc                eventTaskShow
 .text          0x004c01bc      0x280 /usr/local/clas/devel/VxWorks55/ppc/target/lib/ppc/PPC604/common/libwind.a(msgQEvLib.o)
                0x004c01bc                msgQEvLibInit
                0x004c01c0                msgQEvStart
                0x004c0358                msgQEvStop
 .text          0x004c043c      0x29c /usr/local/clas/devel/VxWorks55/ppc/target/lib/ppc/PPC604/common/libwind.a(semEvLib.o)
                0x004c043c                semEvLibInit
                0x004c05f4                semEvStop
                0x004c0440                semEvStart
 .text          0x004c06d8     0x1810 /usr/local/clas/devel/VxWorks55/ppc/target/lib/ppc/PPC604/common/libwindview.a(wvLib.o)
                0x004c08e4                wvEvtClassClearAll
                0x004c1310                wvLogHeaderCreate
                0x004c08b0                wvEvtClassSet
                0x004c0c54                wvSigInst
                0x004c1930                wvTaskNamesBufAdd
                0x004c12fc                wvUploadTaskConfig
                0x004c0718                wvEvtLogInit
                0x004c16a4                wvEvtBufferGet
                0x004c17ac                wvTaskNamesUpload
                0x004c0cd4                wvEvent
                0x004c0c94                wvEventInst
                0x004c08f4                wvObjInstModeSet
                0x004c07e8                wvEvtLogStop
                0x004c160c                wvLogHeaderUpload
                0x004c06f8                wvLibInit2
                0x004c08d0                wvEvtClassClear
                0x004c1108                wvUploadStart
                0x004c06d8                wvLibInit
                0x004c0958                wvObjInst
                0x004c16b0                wvTaskNamesPreserve
                0x004c1274                wvUploadStop
                0x004c08c4                wvEvtClassGet
                0x004c075c                wvEvtLogStart
 .text          0x004c1ee8      0xcf4 /usr/local/clas/devel/VxWorks55/ppc/target/lib/ppc/PPC604/common/libwindview.a(evtLogLib.o)
                0x004c2344                evtLogM2
                0x004c24c4                evtLogOInt
                0x004c1ee8                evtObjLogFuncBind
                0x004c2174                evtLogT1
                0x004c23f8                evtLogM3
                0x004c2b64                evtLogT1_noTS
                0x004c2918                evtLogTasks
                0x004c222c                evtLogM0
                0x004c29f0                evtsched
                0x004c27ec                evtLogPoint
                0x004c2574                evtLogO
                0x004c22ac                evtLogM1
                0x004c204c                evtLogT0
                0x004c26c0                evtLogString
                0x004c20f0                evtLogT0_noInt
                0x004c2040                evtBufferBind
                0x004c1f0c                evtLogFuncBind
 .text          0x004c2bdc        0xc /usr/local/clas/devel/VxWorks55/ppc/target/lib/ppc/PPC604/common/libarch.a(ffsALib.o)
                0x004c2bdc                ffsMsb
 .text          0x004c2be8       0xf4 /usr/local/clas/devel/VxWorks55/ppc/target/lib/ppc/PPC604/common/libarch.a(sigCtxALib.o)
                0x004c2be8                sigsetjmp
                0x004c2c18                setjmp
                0x004c2c48                _sigCtxSave
                0x004c2c80                _sigCtxLoad
 .text          0x004c2cdc       0xc0 /usr/local/clas/devel/VxWorks55/ppc/target/lib/ppc/PPC604/common/libarch.a(sigCtxLib.o)
                0x004c2cdc                _sigCtxRtnValSet
                0x004c2cec                _sigCtxSetup
                0x004c2ce4                _sigCtxStackEnd
 .text          0x004c2d9c      0x18c /usr/local/clas/devel/VxWorks55/ppc/target/lib/ppc/PPC604/common/libarch.a(taskArchLib.o)
                0x004c2d9c                vxTaskEntry
                0x004c2ee4                taskMsrSet
                0x004c2ec4                taskArgsGet
                0x004c2e9c                taskArgsSet
                0x004c2ebc                taskRtnValueSet
                0x004c2e14                taskRegsInit
 .text          0x004c2f28      0x3fc /usr/local/clas/devel/VxWorks55/ppc/target/lib/ppc/PPC604/common/libarch.a(windALib.o)
                0x004c3094                windExit
                0x004c321c                windLoadContext
                0x004c32f4                windIntStackSet
 .text          0x004c3324       0x40 /usr/local/clas/devel/VxWorks55/ppc/target/lib/ppc/PPC604/common/libgcc.a(_x_gnu__ashldi3.o)
                0x004c3324                __ashldi3
 .text          0x004c3364       0x40 /usr/local/clas/devel/VxWorks55/ppc/target/lib/ppc/PPC604/common/libgcc.a(_x_gnu__ashrdi3.o)
                0x004c3364                __ashrdi3
 .text          0x004c33a4      0x5cc /usr/local/clas/devel/VxWorks55/ppc/target/lib/ppc/PPC604/common/libgcc.a(_x_gnu__divdi3.o)
                0x004c33a4                __divdi3
 .text          0x004c3970      0x53c /usr/local/clas/devel/VxWorks55/ppc/target/lib/ppc/PPC604/common/libgcc.a(_x_gnu__udivdi3.o)
                0x004c3970                __udivdi3
 .text          0x004c3eac      0x4fc /usr/local/clas/devel/VxWorks55/ppc/target/lib/ppc/PPC604/common/libgcc.a(_x_gnu__umoddi3.o)
                0x004c3eac                __umoddi3
 .text          0x004c43a8       0xf4 /usr/local/clas/devel/VxWorks55/ppc/target/lib/ppc/PPC604/common/libos.a(longjmp.o)
                0x004c43e8                longjmp
                0x004c43a8                _setjmpSetup
 .text          0x004c449c      0x92c /usr/local/clas/devel/VxWorks55/ppc/target/lib/ppc/PPC604/common/libos.a(qJobLib.o)
                0x004c45b0                qJobTerminate
                0x004c4568                qJobDelete
                0x004c45d8                qJobPut
                0x004c4c94                qJobInfo
                0x004c4d34                qJobEach
                0x004c49e0                qJobGet
                0x004c449c                qJobCreate
                0x004c4500                qJobInit
 *(.text.*)
 *(.stub)
 *(.gnu.warning)
 *(.gnu.linkonce.t*)
 *(.init)
 *(.fini)
 *(.glue_7t)
 *(.glue_7)
 *(.rdata)
 *(.mips16.fn.*)
 *(.mips16.call.*)
 *(.reginfo)
 *(.rodata)
 *fill*         0x004c4dc8        0x8
 .rodata        0x004c4dd0      0xe70 bootConfig.o
 .rodata        0x004c5c40       0x38 version.o
 *fill*         0x004c5c78        0x8
 .rodata        0x004c5c80      0xe00 sysLib.o
 .rodata        0x004c6a80      0x110 pciDevConfig.o
 .rodata        0x004c6b90      0x210 pciScan.o
 .rodata        0x004c6da0       0x90 gtInitLib.o
 .rodata        0x004c6e30      0x218 gtIntControl.o
 .rodata        0x004c7048      0x43c sysIntCtrl.o
 *fill*         0x004c7484        0xc
 .rodata        0x004c7490       0x60 gtMemory.o
 .rodata        0x004c74f0      0x1c8 vxGppIntCtrl.o
 .rodata        0x004c76b8      0x138 vxCntmrIntCtrl.o
 .rodata        0x004c77f0      0x130 vxDmaIntCtrl.o
 .rodata        0x004c7920       0x3c vxWatchDog.o
 .rodata        0x004c795c       0x7c vxEthernetIntCtrl.o
 .rodata        0x004c79d8       0x80 mgiEnd.obj
 *fill*         0x004c7a58        0x8
 .rodata        0x004c7a60       0x80 brg.o
 .rodata        0x004c7ae0      0x168 vxCunitIntCtrl.o
 .rodata        0x004c7c48      0x124 mpsc.o
 .rodata        0x004c7d6c      0x10c vxMpscIntCtrl.o
 .rodata        0x004c7e78      0x10c sdma.o
 .rodata        0x004c7f84      0x140 vxSdmaIntCtrl.o
 *fill*         0x004c80c4        0xc
 .rodata        0x004c80d0       0x20 vxMpscUart.o
 .rodata        0x004c80f0       0x94 sysRamDrv.o
 .rodata        0x004c8184      0x3dc bFlashDrv.o
 .rodata        0x004c8560      0x13c flashDrv.o
 .rodata        0x004c869c      0x474 i2cDrv.o
 .rodata        0x004c8b10      0x108 rtc.o
 *fill*         0x004c8c18        0x8
 .rodata        0x004c8c20     0x1380 frcBibShow.o
 .rodata        0x004c9fa0      0x1f8 frcBibDrv.o
 .rodata        0x004ca198      0x124 bibSupport.o
 .rodata        0x004ca2bc       0xb4 pciBoot.o
 .rodata        0x004ca370       0x78 regFileBurn.o
 .rodata        0x004ca3e8       0xa0 vpd.o
 *fill*         0x004ca488        0x8
 .rodata        0x004ca490    0x14950 tests/testtool.o
 .rodata        0x004dede0       0x50 /usr/local/clas/devel/VxWorks55/ppc/target/lib/ppc/PPC604/common/libarch.a(altivecShow.o)
 .rodata        0x004dee30       0x48 /usr/local/clas/devel/VxWorks55/ppc/target/lib/ppc/PPC604/common/libarch.a(excArchLib.o)
 .rodata        0x004dee78      0x508 /usr/local/clas/devel/VxWorks55/ppc/target/lib/ppc/PPC604/common/libarch.a(excArchShow.o)
 .rodata        0x004df380       0x48 /usr/local/clas/devel/VxWorks55/ppc/target/lib/ppc/PPC604/common/libarch.a(trcLib.o)
 *fill*         0x004df3c8        0x8
 .rodata        0x004df3d0       0x40 /usr/local/clas/devel/VxWorks55/ppc/target/lib/ppc/PPC604/common/libarch.a(vxLib.o)
 .rodata        0x004df410       0x30 /usr/local/clas/devel/VxWorks55/ppc/target/lib/ppc/PPC604/common/libdrv.a(if_loop.o)
 .rodata        0x004df440       0x3c /usr/local/clas/devel/VxWorks55/ppc/target/lib/ppc/PPC604/common/libnet.a(if.o)
 .rodata        0x004df47c      0x2fc /usr/local/clas/devel/VxWorks55/ppc/target/lib/ppc/PPC604/common/libnet.a(if_ether.o)
 .rodata        0x004df778       0x54 /usr/local/clas/devel/VxWorks55/ppc/target/lib/ppc/PPC604/common/libnet.a(if_subr.o)
 .rodata        0x004df7cc       0x54 /usr/local/clas/devel/VxWorks55/ppc/target/lib/ppc/PPC604/common/libnet.a(in.o)
 .rodata        0x004df820      0x120 /usr/local/clas/devel/VxWorks55/ppc/target/lib/ppc/PPC604/common/libnet.a(ip_input.o)
 .rodata        0x004df940       0xe0 /usr/local/clas/devel/VxWorks55/ppc/target/lib/ppc/PPC604/common/libnet.a(ip_output.o)
 .rodata        0x004dfa20      0x158 /usr/local/clas/devel/VxWorks55/ppc/target/lib/ppc/PPC604/common/libnet.a(radix.o)
 .rodata        0x004dfb78       0x94 /usr/local/clas/devel/VxWorks55/ppc/target/lib/ppc/PPC604/common/libnet.a(route.o)
 *fill*         0x004dfc0c        0x4
 .rodata        0x004dfc10       0xa0 /usr/local/clas/devel/VxWorks55/ppc/target/lib/ppc/PPC604/common/libnet.a(udp_usrreq.o)
 .rodata        0x004dfcb0       0x50 /usr/local/clas/devel/VxWorks55/ppc/target/lib/ppc/PPC604/common/libnet.a(uipc_mbuf.o)
 .rodata        0x004dfd00       0x54 /usr/local/clas/devel/VxWorks55/ppc/target/lib/ppc/PPC604/common/libnet.a(uipc_sock2.o)
 .rodata        0x004dfd54       0x24 /usr/local/clas/devel/VxWorks55/ppc/target/lib/ppc/PPC604/common/libnet.a(unixLib.o)
 *fill*         0x004dfd78        0x8
 .rodata        0x004dfd80      0x220 /usr/local/clas/devel/VxWorks55/ppc/target/lib/ppc/PPC604/common/libnet.a(ipProto.o)
 .rodata        0x004dffa0       0x14 /usr/local/clas/devel/VxWorks55/ppc/target/lib/ppc/PPC604/common/libnet.a(bsdSockLib.o)
 .rodata        0x004dffb4       0x84 /usr/local/clas/devel/VxWorks55/ppc/target/lib/ppc/PPC604/common/libnet.a(etherMultiLib.o)
 .rodata        0x004e0038      0xb80 /usr/local/clas/devel/VxWorks55/ppc/target/lib/ppc/PPC604/common/libnet.a(ftpLib.o)
 .rodata        0x004e0bb8       0x20 /usr/local/clas/devel/VxWorks55/ppc/target/lib/ppc/PPC604/common/libnet.a(icmpLib.o)
 .rodata        0x004e0bd8        0x8 /usr/local/clas/devel/VxWorks55/ppc/target/lib/ppc/PPC604/common/libnet.a(ifLib.o)
 .rodata        0x004e0be0        0xc /usr/local/clas/devel/VxWorks55/ppc/target/lib/ppc/PPC604/common/libnet.a(inetLib.o)
 .rodata        0x004e0bec      0x1c0 /usr/local/clas/devel/VxWorks55/ppc/target/lib/ppc/PPC604/common/libnet.a(muxLib.o)
 .rodata        0x004e0dac      0x158 /usr/local/clas/devel/VxWorks55/ppc/target/lib/ppc/PPC604/common/libnet.a(muxTkLib.o)
 .rodata        0x004e0f04       0xa0 /usr/local/clas/devel/VxWorks55/ppc/target/lib/ppc/PPC604/common/libnet.a(netLib.o)
 .rodata        0x004e0fa4      0x208 /usr/local/clas/devel/VxWorks55/ppc/target/lib/ppc/PPC604/common/libnet.a(pingLib.o)
 .rodata        0x004e11ac       0x2c /usr/local/clas/devel/VxWorks55/ppc/target/lib/ppc/PPC604/common/libnet.a(remLib.o)
 .rodata        0x004e11d8       0x78 /usr/local/clas/devel/VxWorks55/ppc/target/lib/ppc/PPC604/common/libnet.a(tcpLib.o)
 .rodata        0x004e1250      0x310 /usr/local/clas/devel/VxWorks55/ppc/target/lib/ppc/PPC604/common/libnet.a(tftpLib.o)
 .rodata        0x004e1560       0x14 /usr/local/clas/devel/VxWorks55/ppc/target/lib/ppc/PPC604/common/libnet.a(in_cksum.o)
 .rodata        0x004e1574        0xc /usr/local/clas/devel/VxWorks55/ppc/target/lib/ppc/PPC604/common/libnet.a(in_proto.o)
 .rodata        0x004e1580       0xb0 /usr/local/clas/devel/VxWorks55/ppc/target/lib/ppc/PPC604/common/libnet.a(ip_icmp.o)
 .rodata        0x004e1630       0x80 /usr/local/clas/devel/VxWorks55/ppc/target/lib/ppc/PPC604/common/libnet.a(raw_ip.o)
 .rodata        0x004e16b0       0x60 /usr/local/clas/devel/VxWorks55/ppc/target/lib/ppc/PPC604/common/libnet.a(tcp_input.o)
 .rodata        0x004e1710       0x20 /usr/local/clas/devel/VxWorks55/ppc/target/lib/ppc/PPC604/common/libnet.a(tcp_output.o)
 .rodata        0x004e1730        0xc /usr/local/clas/devel/VxWorks55/ppc/target/lib/ppc/PPC604/common/libnet.a(tcp_subr.o)
 *fill*         0x004e173c        0x4
 .rodata        0x004e1740       0x80 /usr/local/clas/devel/VxWorks55/ppc/target/lib/ppc/PPC604/common/libnet.a(tcp_usrreq.o)
 .rodata        0x004e17c0       0x34 /usr/local/clas/devel/VxWorks55/ppc/target/lib/ppc/PPC604/common/libnet.a(uipc_sock.o)
 .rodata        0x004e17f4       0x5c /usr/local/clas/devel/VxWorks55/ppc/target/lib/ppc/PPC604/common/libnet.a(random.o)
 .rodata        0x004e1850      0x104 /usr/local/clas/devel/VxWorks55/ppc/target/lib/ppc/PPC604/common/libos.a(__ctype_tab.o)
 *fill*         0x004e1954        0xc
 .rodata        0x004e1960       0x30 /usr/local/clas/devel/VxWorks55/ppc/target/lib/ppc/PPC604/common/libos.a(fabs.o)
 .rodata        0x004e1990        0xc /usr/local/clas/devel/VxWorks55/ppc/target/lib/ppc/PPC604/common/libos.a(perror.o)
 *fill*         0x004e199c        0x4
 .rodata        0x004e19a0       0x38 /usr/local/clas/devel/VxWorks55/ppc/target/lib/ppc/PPC604/common/libos.a(strtod.o)
 .rodata        0x004e19d8       0x10 /usr/local/clas/devel/VxWorks55/ppc/target/lib/ppc/PPC604/common/libos.a(strerror.o)
 .rodata        0x004e19e8       0x18 /usr/local/clas/devel/VxWorks55/ppc/target/lib/ppc/PPC604/common/libos.a(asctime.o)
 .rodata        0x004e1a00      0x1a0 /usr/local/clas/devel/VxWorks55/ppc/target/lib/ppc/PPC604/common/libos.a(strftime.o)
 .rodata        0x004e1ba0      0x104 /usr/local/clas/devel/VxWorks55/ppc/target/lib/ppc/PPC604/common/libos.a(clockLib.o)
 .rodata        0x004e1ca4       0xa4 /usr/local/clas/devel/VxWorks55/ppc/target/lib/ppc/PPC604/common/libos.a(copyright.o)
                0x004e1ca4                copyright_wind_river
 .rodata        0x004e1d48       0x70 /usr/local/clas/devel/VxWorks55/ppc/target/lib/ppc/PPC604/common/libos.a(envLib.o)
 .rodata        0x004e1db8       0x64 /usr/local/clas/devel/VxWorks55/ppc/target/lib/ppc/PPC604/common/libos.a(excLib.o)
 *fill*         0x004e1e1c        0x4
 .rodata        0x004e1e20      0x440 /usr/local/clas/devel/VxWorks55/ppc/target/lib/ppc/PPC604/common/libos.a(fioLib.o)
 .rodata        0x004e2260        0x4 /usr/local/clas/devel/VxWorks55/ppc/target/lib/ppc/PPC604/common/libos.a(ioLib.o)
 .rodata        0x004e2264       0xc0 /usr/local/clas/devel/VxWorks55/ppc/target/lib/ppc/PPC604/common/libos.a(logLib.o)
 .rodata        0x004e2324       0x70 /usr/local/clas/devel/VxWorks55/ppc/target/lib/ppc/PPC604/common/libos.a(memLib.o)
 .rodata        0x004e2394        0xc /usr/local/clas/devel/VxWorks55/ppc/target/lib/ppc/PPC604/common/libos.a(memPartLib.o)
 .rodata        0x004e23a0       0x18 /usr/local/clas/devel/VxWorks55/ppc/target/lib/ppc/PPC604/common/libos.a(pathLib.o)
 *fill*         0x004e23b8        0x8
 .rodata        0x004e23c0       0x80 /usr/local/clas/devel/VxWorks55/ppc/target/lib/ppc/PPC604/common/libos.a(pipeDrv.o)
 .rodata        0x004e2440       0xac /usr/local/clas/devel/VxWorks55/ppc/target/lib/ppc/PPC604/common/libos.a(selectLib.o)
 *fill*         0x004e24ec        0x4
 .rodata        0x004e24f0       0x80 /usr/local/clas/devel/VxWorks55/ppc/target/lib/ppc/PPC604/common/libos.a(tyLib.o)
 .rodata        0x004e2570       0x64 /usr/local/clas/devel/VxWorks55/ppc/target/lib/ppc/PPC604/common/libos.a(bootElfLib.o)
 *fill*         0x004e25d4        0xc
 .rodata        0x004e25e0      0x210 /usr/local/clas/devel/VxWorks55/ppc/target/lib/ppc/PPC604/common/libos.a(bootLib.o)
 .rodata        0x004e27f0      0x37c /usr/local/clas/devel/VxWorks55/ppc/target/lib/ppc/PPC604/common/libos.a(dcacheCbio.o)
 *fill*         0x004e2b6c        0x4
 .rodata        0x004e2b70      0x5e0 /usr/local/clas/devel/VxWorks55/ppc/target/lib/ppc/PPC604/common/libos.a(dosChkLib.o)
 .rodata        0x004e3150      0x2e0 /usr/local/clas/devel/VxWorks55/ppc/target/lib/ppc/PPC604/common/libos.a(dosDirOldLib.o)
 .rodata        0x004e3430       0xb0 /usr/local/clas/devel/VxWorks55/ppc/target/lib/ppc/PPC604/common/libos.a(dosFsFat.o)
 .rodata        0x004e34e0      0x2d8 /usr/local/clas/devel/VxWorks55/ppc/target/lib/ppc/PPC604/common/libos.a(dosFsFmtLib.o)
 .rodata        0x004e37b8      0x908 /usr/local/clas/devel/VxWorks55/ppc/target/lib/ppc/PPC604/common/libos.a(dosFsLib.o)
 .rodata        0x004e40c0      0x400 /usr/local/clas/devel/VxWorks55/ppc/target/lib/ppc/PPC604/common/libos.a(dosVDirLib.o)
 .rodata        0x004e44c0       0x34 /usr/local/clas/devel/VxWorks55/ppc/target/lib/ppc/PPC604/common/libos.a(print64Lib.o)
 .rodata        0x004e44f4      0x134 /usr/local/clas/devel/VxWorks55/ppc/target/lib/ppc/PPC604/common/libos.a(locTime.o)
 .rodata        0x004e4628      0x2a4 /usr/local/clas/devel/VxWorks55/ppc/target/lib/ppc/PPC604/common/libos.a(cbioLib.o)
 .rodata        0x004e48cc        0x4 /usr/local/clas/devel/VxWorks55/ppc/target/lib/ppc/PPC604/common/libos.a(assert.o)
 .rodata        0x004e48d0       0x20 /usr/local/clas/devel/VxWorks55/ppc/target/lib/ppc/PPC604/common/libwind.a(kernelLib.o)
 .rodata        0x004e48f0      0x234 /usr/local/clas/devel/VxWorks55/ppc/target/lib/ppc/PPC604/common/libwind.a(msgQShow.o)
 .rodata        0x004e4b24        0x4 /usr/local/clas/devel/VxWorks55/ppc/target/lib/ppc/PPC604/common/libwind.a(taskInfo.o)
 .rodata        0x004e4b28       0x10 /usr/local/clas/devel/VxWorks55/ppc/target/lib/ppc/PPC604/common/libwind.a(taskLib.o)
 *fill*         0x004e4b38        0x8
 .rodata        0x004e4b40      0x2a0 /usr/local/clas/devel/VxWorks55/ppc/target/lib/ppc/PPC604/common/libwind.a(taskShow.o)
 .rodata        0x004e4de0       0x2c /usr/local/clas/devel/VxWorks55/ppc/target/lib/ppc/PPC604/common/libwind.a(workQLib.o)
 .rodata        0x004e4e0c      0x240 /usr/local/clas/devel/VxWorks55/ppc/target/lib/ppc/PPC604/common/libwind.a(eventShow.o)
 *fill*         0x004e504c        0x4
 .rodata        0x004e5050      0x1b0 /usr/local/clas/devel/VxWorks55/ppc/target/lib/ppc/PPC604/common/libwindview.a(wvLib.o)
 .rodata        0x004e5200       0x40 /usr/local/clas/devel/VxWorks55/ppc/target/lib/ppc/PPC604/common/libwindview.a(evtLogLib.o)
 .rodata        0x004e5240       0x98 /usr/local/clas/devel/VxWorks55/ppc/target/lib/ppc/PPC604/common/libarch.a(taskArchLib.o)
 .rodata        0x004e52d8      0x100 /usr/local/clas/devel/VxWorks55/ppc/target/lib/ppc/PPC604/common/libgcc.a(_x_gnu__divdi3.o)
 .rodata        0x004e53d8      0x100 /usr/local/clas/devel/VxWorks55/ppc/target/lib/ppc/PPC604/common/libgcc.a(_x_gnu__udivdi3.o)
 .rodata        0x004e54d8      0x100 /usr/local/clas/devel/VxWorks55/ppc/target/lib/ppc/PPC604/common/libgcc.a(_x_gnu__umoddi3.o)
 *(.rodata.*)
 *(.gnu.linkonce.r*)
 *(.rodata1)
 *(.sdata2)
 *(.sbss2)
 *fill*         0x004e55d8        0x8
                0x004e55e0                .=ALIGN(0x10)
                0x004e55e0                .=ALIGN(0x10)
                0x004e55e0                wrs_kernel_text_end=.
                0x004e55e0                _wrs_kernel_text_end=.
                0x004e55e0                etext=.
                0x004e55e0                _etext=.

.data           0x004e55e0     0x5200
                0x004e55e0                wrs_kernel_data_start=.
                0x004e55e0                _wrs_kernel_data_start=.
 *(.data)
 .data          0x004e55e0      0x280 bootConfig.o
                0x004e56e0                mClBlkConfig
                0x004e5740                clDescTblNumEnt
                0x004e567c                scsiInitialized
                0x004e5794                sysClDescTblNumEnt
                0x004e5684                bootCmdTaskOptions
                0x004e56f0                clDescTbl
                0x004e5754                sysClDescTbl
                0x004e56c0                udpCfgParams
                0x004e579c                buffer
                0x004e56d0                ipCfgParams
                0x004e5744                sysMclBlkConfig
                0x004e55e0                endDevTbl
                0x004e5688                bootCmdTaskStackSize
                0x004e56cc                icmpCfgParams
                0x004e5694                tcpCfgParams
                0x004e5798                frc_end_of_vxworks
                0x004e5628                ipMaxUnits
                0x004e5680                bootCmdTaskPriority
 .data          0x004e5860       0x10 version.o
                0x004e5864                runtimeVersion
                0x004e586c                creationDate
                0x004e5860                runtimeName
                0x004e5868                vxWorksVersion
 .data          0x004e5870      0x244 sysLib.o
                0x004e5870                evtTimeStamp
                0x004e5a24                sysCpu
                0x004e5a2c                sysExcMsg
                0x004e5a28                sysBootLine
                0x004e5874                sysBatDesc
                0x004e58f4                sysPhysMemDesc
                0x004e5a20                sysBus
                0x004e5a30                sysProcNum
 .data          0x004e5ab4       0x28 itab.o
                0x004e5ab4                reginittab
 .data          0x004e5adc       0x18 pciConfigLib.o
                0x004e5aec                frcPciConfigWrite
                0x004e5ae0                pciConfigMech
                0x004e5ae4                pciMaxBus
                0x004e5adc                pciLibInitStatus
                0x004e5ae8                frcPciConfigRead
                0x004e5af0                pciConfigSpcl
 .data          0x004e5af4        0xc pciDevConfig.o
                0x004e5af8                noofgeidevices
                0x004e5af4                nooffeidevices
 .data          0x004e5b00        0x4 pciScan.o
                0x004e5b00                pciDebug
 .data          0x004e5b04       0x40 sysIntCtrl.o
 .data          0x004e5b44        0x4 userRsrvMem.o
 .data          0x004e5b48        0x4 gtCore.o
                0x004e5b48                gtInternalRegBaseAddr
 .data          0x004e5b4c        0x8 gtSram.o
                0x004e5b50                internalSramTopAddr
                0x004e5b4c                nextFreeBlkPtr
 .data          0x004e5b54       0x14 vxGppIntCtrl.o
 .data          0x004e5b68        0x8 vxCntmrIntCtrl.o
 .data          0x004e5b70        0xc vxDmaIntCtrl.o
 .data          0x004e5b7c        0x4 vxWatchDog.o
                0x004e5b7c                preset_val
 .data          0x004e5b80       0x14 vxEthernetIntCtrl.o
 .data          0x004e5b94       0x48 mgiEnd.obj
                0x004e5b94                bspEndIntConnect
                0x004e5b9c                bspEndIntEnable
                0x004e5ba0                bspEndIntDisable
                0x004e5b98                bspEndIntDisconnect
 .data          0x004e5bdc        0x4 cunit.o
 .data          0x004e5be0        0x8 vxCunitIntCtrl.o
 .data          0x004e5be8        0xc vxMpscIntCtrl.o
 .data          0x004e5bf4        0x8 vxSdmaIntCtrl.o
 .data          0x004e5bfc       0x14 vxMpscUart.o
 .data          0x004e5c10       0x98 bFlashDrv.o
                0x004e5c10                am29TopOffset
                0x004e5c5c                am29BotOffset
 .data          0x004e5ca8       0x50 flashDrv.o
                0x004e5cdc                flash_write
                0x004e5ce8                FlashCmdS
                0x004e5ce4                flashBlocks
                0x004e5ce0                flash_read
                0x004e5ca8                id
                0x004e5cd8                debug_flash_width
                0x004e5cf0                FlashCmdE
                0x004e5cd0                num_flash_dev
                0x004e5cd4                flash_width
 .data          0x004e5cf8        0xc i2cDrv.o
                0x004e5cfc                protectBIB
                0x004e5cf8                protectMAC
                0x004e5d00                protectPCI
 .data          0x004e5d04      0x960 frcBibShow.o
 .data          0x004e6664       0x10 frcBibDrv.o
                0x004e6664                bibMallocRtn
                0x004e666c                frcBibShowRtn
                0x004e6668                bibFreeRtn
 .data          0x004e6674      0x560 regFileBurn.o
                0x004e66f4                bootrom_sramregfile
                0x004e66b4                bootrom_pciregfile
                0x004e6b8c                non_monarchregfile
                0x004e6674                bootrom_userflregfile
                0x004e6b24                monarchregfile
 *fill*         0x004e6bd4        0x4
 .data          0x004e6bd8     0x16dc tests/testtool.o
                0x004e7c10                maxruns
                0x004e7c88                tbStart_lm
                0x004e6d70                global_fstruct
                0x004e7c64                tests_1arg
                0x004e7d40                IntLatencyTotal
                0x004e7d70                testInfo
                0x004e6cc8                paramnames
                0x004e7b34                wordcatarray
                0x004e82ac                frcTestWdInitConnect
                0x004e7c04                maxMove
                0x004e6c78                lx_bindex
                0x004e7d38                mpp24Initialized
                0x004e6bfc                ftestnames
                0x004e7d30                netWorkInitStatus
                0x004e8298                watchdogFlag
                0x004e7d3c                ioTemp
                0x004e7d34                mpp18Initialized
                0x004e7d68                intConnectSoft
                0x004e6d98                funcpointer
                0x004e82a4                wdgCnt
                0x004e7d6c                intConnectHard
                0x004e6c28                bindex
                0x004e7d58                tbTempHi
                0x004e6bf4                compilername
                0x004e6bf0                sysname
                0x004e7cd8                sysTimestampResetRtn
                0x004e7b30                inpath
                0x004e7c00                minMove
                0x004e829c                watchdogAppId
                0x004e7c14                run
                0x004e7c1c                tests_noarg
                0x004e7d50                IntTimeBaseEnd
                0x004e82a0                wdgService
                0x004e78b0                out_pats
                0x004e7c08                tbStart
                0x004e82a8                wdgNMICnt
                0x004e6dc0                in_pats
                0x004e7c0c                totalerrors
                0x004e7d60                tbTempLo
                0x004e82b0                frcTestWdInitDisconnect
                0x004e7c18                runerrors
                0x004e7d48                IntTimeBaseSt
                0x004e6bf8                compilerversion
 .data          0x004e82b4        0x4 /usr/local/clas/devel/VxWorks55/ppc/target/lib/ppc/PPC604/common/libarch.a(altivecArchLib.o)
                0x004e82b4                _func_altivecProbeRtn
 .data          0x004e82b8       0x28 /usr/local/clas/devel/VxWorks55/ppc/target/lib/ppc/PPC604/common/libarch.a(cacheArchLib.o)
                0x004e82b8                cachePpcReadOrigin
                0x004e82d8                _pSysL3CacheInvalEnableFunc
                0x004e82c8                _pSysL2CacheEnable
                0x004e82c4                _pSysL2CacheInvFunc
                0x004e82d0                _pSysL2CacheDisable
                0x004e82dc                _pSysL3CacheFlushDisableFunc
                0x004e82cc                _pSysL2CacheFlush
                0x004e82c0                cacheDToEnable
                0x004e82bc                cacheIToEnable
                0x004e82d4                snoopEnable
 .data          0x004e82e0      0x198 /usr/local/clas/devel/VxWorks55/ppc/target/lib/ppc/PPC604/common/libarch.a(excArchLib.o)
                0x004e82e0                _func_excTrapRtn
                0x004e82e4                excExtendedVectors
 .data          0x004e8478      0x100 /usr/local/clas/devel/VxWorks55/ppc/target/lib/ppc/PPC604/common/libarch.a(excArchShow.o)
                0x004e8508                fpExcMsgTbl
 .data          0x004e8578        0x4 /usr/local/clas/devel/VxWorks55/ppc/target/lib/ppc/PPC604/common/libarch.a(intALib.o)
 .data          0x004e857c       0x20 /usr/local/clas/devel/VxWorks55/ppc/target/lib/ppc/PPC604/common/libarch.a(intArchLib.o)
                0x004e857c                _func_intConnectRtn
                0x004e858c                _func_intVecBaseGetRtn
                0x004e8598                _func_intDisableRtn
                0x004e8588                _func_intVecBaseSetRtn
                0x004e8584                _func_intVecGetRtn
                0x004e8580                _func_intVecSetRtn
                0x004e8590                _func_intLevelSetRtn
                0x004e8594                _func_intEnableRtn
 .data          0x004e859c        0x8 /usr/local/clas/devel/VxWorks55/ppc/target/lib/ppc/PPC604/common/libarch.a(mmuArchVars.o)
                0x004e85a0                mmuPpcDEnabled
                0x004e859c                mmuPpcIEnabled
 .data          0x004e85a4        0x8 /usr/local/clas/devel/VxWorks55/ppc/target/lib/ppc/PPC604/common/libarch.a(trcLib.o)
                0x004e85a8                trcScanDepth
                0x004e85a4                trcDefaultArgs
 .data          0x004e85ac        0x4 /usr/local/clas/devel/VxWorks55/ppc/target/lib/ppc/PPC604/common/libarch.a(vxALib.o)
 .data          0x004e85b0        0xc /usr/local/clas/devel/VxWorks55/ppc/target/lib/ppc/PPC604/common/libarch.a(vxLib.o)
                0x004e85b4                _func_vxMemProbeHook
                0x004e85b0                vxPowMgtEnable
 *fill*         0x004e85bc        0x4
 .data          0x004e85c0      0xcf0 /usr/local/clas/devel/VxWorks55/ppc/target/lib/ppc/PPC604/common/libarch.a(pow.o)
 .data          0x004e92b0      0x420 /usr/local/clas/devel/VxWorks55/ppc/target/lib/ppc/PPC604/common/libarch.a(sqrt.o)
 .data          0x004e96d0       0xa0 /usr/local/clas/devel/VxWorks55/ppc/target/lib/ppc/PPC604/common/libarch.a(trig.o)
 .data          0x004e9770        0x4 /usr/local/clas/devel/VxWorks55/ppc/target/lib/ppc/PPC604/common/libarch.a(cacheALib.o)
 .data          0x004e9774        0x4 /usr/local/clas/devel/VxWorks55/ppc/target/lib/ppc/PPC604/common/libarch.a(excALib.o)
 .data          0x004e9778        0x8 /usr/local/clas/devel/VxWorks55/ppc/target/lib/ppc/PPC604/common/libnet.a(if.o)
 .data          0x004e9780       0x80 /usr/local/clas/devel/VxWorks55/ppc/target/lib/ppc/PPC604/common/libnet.a(if_ether.o)
                0x004e9780                llinfo_arp
                0x004e97b8                arpt_keep
                0x004e97c0                arpRxmitTicks
                0x004e97b4                arpt_prune
                0x004e97bc                arpt_down
                0x004e97ac                useloopback
                0x004e9798                arpintrq
                0x004e9794                arpinit_done
                0x004e97b0                arp_maxtries
                0x004e97c4                proxyArpHook
 .data          0x004e9800       0x1c /usr/local/clas/devel/VxWorks55/ppc/target/lib/ppc/PPC604/common/libnet.a(if_subr.o)
                0x004e980c                ether_ipmulticast_min
                0x004e9804                etherbroadcastaddr
                0x004e9814                ether_ipmulticast_max
 .data          0x004e981c        0xc /usr/local/clas/devel/VxWorks55/ppc/target/lib/ppc/PPC604/common/libnet.a(in.o)
                0x004e9820                mCastHashTblSize
                0x004e981c                subnetsarelocal
 .data          0x004e9828       0x44 /usr/local/clas/devel/VxWorks55/ppc/target/lib/ppc/PPC604/common/libnet.a(ip_input.o)
                0x004e982c                ip_defttl
                0x004e983c                ip_nhops
                0x004e9834                ipStrongEnded
                0x004e9854                inetctlerrmap
                0x004e9828                proxyBroadcastHook
                0x004e9830                ipfragttl
                0x004e9838                ipqmaxlen
                0x004e9844                input_ipaddr
 .data          0x004e986c        0x2 /usr/local/clas/devel/VxWorks55/ppc/target/lib/ppc/PPC604/common/libnet.a(ip_output.o)
 *fill*         0x004e986e        0x2
 .data          0x004e9870       0x14 /usr/local/clas/devel/VxWorks55/ppc/target/lib/ppc/PPC604/common/libnet.a(radix.o)
 .data          0x004e9884       0x10 /usr/local/clas/devel/VxWorks55/ppc/target/lib/ppc/PPC604/common/libnet.a(route.o)
                0x004e9884                rtmodified
 .data          0x004e9894       0x2c /usr/local/clas/devel/VxWorks55/ppc/target/lib/ppc/PPC604/common/libnet.a(udp_usrreq.o)
                0x004e98b0                udp_ttl
                0x004e98bc                udp_pcbhashsize
                0x004e98b4                udp_sendspace
                0x004e98b8                udp_recvspace
                0x004e9898                udpDoCkSumRcv
                0x004e989c                udp_in
                0x004e9894                udpcksum
                0x004e98ac                udp_last_inpcb
 .data          0x004e98c0        0xc /usr/local/clas/devel/VxWorks55/ppc/target/lib/ppc/PPC604/common/libnet.a(uipc_mbuf.o)
                0x004e98c0                _pNetDpool
                0x004e98c4                _pNetSysPool
 .data          0x004e98cc        0xc /usr/local/clas/devel/VxWorks55/ppc/target/lib/ppc/PPC604/common/libnet.a(uipc_sock2.o)
                0x004e98d0                sowakeupHook
                0x004e98d4                sb_max
 .data          0x004e98d8        0xc /usr/local/clas/devel/VxWorks55/ppc/target/lib/ppc/PPC604/common/libnet.a(unixLib.o)
                0x004e98e0                _panicHook
                0x004e98dc                mutexOptionsUnixLib
 .data          0x004e98e4        0x2 /usr/local/clas/devel/VxWorks55/ppc/target/lib/ppc/PPC604/common/libnet.a(ipProto.o)
 *fill*         0x004e98e6        0x2
 .data          0x004e98e8       0x54 /usr/local/clas/devel/VxWorks55/ppc/target/lib/ppc/PPC604/common/libnet.a(bsdSockLib.o)
                0x004e98ec                bsdSock43ApiFlag
                0x004e98f0                bsdSockFunc
 .data          0x004e993c        0x4 /usr/local/clas/devel/VxWorks55/ppc/target/lib/ppc/PPC604/common/libnet.a(etherMultiLib.o)
                0x004e993c                etherMultiDebug
 .data          0x004e9940       0x10 /usr/local/clas/devel/VxWorks55/ppc/target/lib/ppc/PPC604/common/libnet.a(ftpLib.o)
                0x004e9940                ftplPasvModeDisable
                0x004e994c                _func_ftpTransientFatal
                0x004e9944                ftplTransientMaxRetryCount
                0x004e9948                ftplTransientRetryInterval
 .data          0x004e9950       0x14 /usr/local/clas/devel/VxWorks55/ppc/target/lib/ppc/PPC604/common/libnet.a(hostLib.o)
                0x004e9958                _presolvHostLibGetByName
                0x004e9954                hostInitFlag
                0x004e995c                _presolvHostLibGetByAddr
                0x004e9960                mutexOptionsHostLib
                0x004e9950                hostListSem
 .data          0x004e9964        0x8 /usr/local/clas/devel/VxWorks55/ppc/target/lib/ppc/PPC604/common/libnet.a(icmpLib.o)
 .data          0x004e996c        0xc /usr/local/clas/devel/VxWorks55/ppc/target/lib/ppc/PPC604/common/libnet.a(muxTkLib.o)
                0x004e9974                muxMaxBinds
                0x004e996c                muxBibLock
                0x004e9970                muxTkDebug
 .data          0x004e9978       0x40 /usr/local/clas/devel/VxWorks55/ppc/target/lib/ppc/PPC604/common/libnet.a(netLib.o)
                0x004e99b4                rtNewAddrMsgHook
                0x004e99a0                _igmpLeaveGrpHook
                0x004e9998                netLibGenInitialized
                0x004e998c                _protoSwIndex
                0x004e9994                _mCastRouteFwdHook
                0x004e99b0                rtIfaceMsgHook
                0x004e99a8                _mCastRouteCmdHook
                0x004e997c                netTaskPriority
                0x004e9984                netTaskStackSize
                0x004e9988                netLibInitialized
                0x004e99ac                rtMissMsgHook
                0x004e999c                _igmpJoinGrpHook
                0x004e99a4                _ipFilterHook
                0x004e9990                _icmpErrorHook
                0x004e9978                netTaskSemId
                0x004e9980                netTaskOptions
 .data          0x004e99b8       0x14 /usr/local/clas/devel/VxWorks55/ppc/target/lib/ppc/PPC604/common/libnet.a(pingLib.o)
                0x004e99c0                _pingTxTmo
                0x004e99bc                _pingTxInterval
                0x004e99b8                _pingTxLen
 .data          0x004e99cc        0x8 /usr/local/clas/devel/VxWorks55/ppc/target/lib/ppc/PPC604/common/libnet.a(remLib.o)
                0x004e99d0                remStdErrSetupTimeout
                0x004e99cc                remLastResvPort
 .data          0x004e99d4        0xc /usr/local/clas/devel/VxWorks55/ppc/target/lib/ppc/PPC604/common/libnet.a(sockLib.o)
                0x004e99d4                pSockFdMap
 .data          0x004e99e0       0x30 /usr/local/clas/devel/VxWorks55/ppc/target/lib/ppc/PPC604/common/libnet.a(tcpLib.o)
                0x004e99e0                pTcpstates
                0x004e99e4                tcpstates
 .data          0x004e9a10       0xac /usr/local/clas/devel/VxWorks55/ppc/target/lib/ppc/PPC604/common/libnet.a(tftpLib.o)
                0x004e9a20                tftpTaskPriority
                0x004e9a24                tftpTaskOptions
                0x004e9a1c                tftpReXmit
                0x004e9a10                tftpVerbose
                0x004e9a18                tftpTimeout
                0x004e9a14                tftpTrace
                0x004e9a28                tftpTaskStackSize
 .data          0x004e9abc       0x30 /usr/local/clas/devel/VxWorks55/ppc/target/lib/ppc/PPC604/common/libnet.a(netBufLib.o)
                0x004e9abc                _pNetBufCollect
                0x004e9ae8                _pNetPoolFuncTbl
 .data          0x004e9aec        0x4 /usr/local/clas/devel/VxWorks55/ppc/target/lib/ppc/PPC604/common/libnet.a(ifIndexLib.o)
 .data          0x004e9af0        0x8 /usr/local/clas/devel/VxWorks55/ppc/target/lib/ppc/PPC604/common/libnet.a(igmp.o)
 .data          0x004e9af8        0x2 /usr/local/clas/devel/VxWorks55/ppc/target/lib/ppc/PPC604/common/libnet.a(in_pcb.o)
 *fill*         0x004e9afa        0x2
 .data          0x004e9afc       0x2c /usr/local/clas/devel/VxWorks55/ppc/target/lib/ppc/PPC604/common/libnet.a(in_proto.o)
                0x004e9afc                inetdomain
 .data          0x004e9b28       0xcc /usr/local/clas/devel/VxWorks55/ppc/target/lib/ppc/PPC604/common/libnet.a(ip_icmp.o)
                0x004e9b38                icmpmaskrepl
                0x004e9b28                icmpmask
 .data          0x004e9bf4       0x1c /usr/local/clas/devel/VxWorks55/ppc/target/lib/ppc/PPC604/common/libnet.a(raw_ip.o)
                0x004e9c0c                rip_recvspace
                0x004e9c08                rip_sendspace
 .data          0x004e9c10        0x2 /usr/local/clas/devel/VxWorks55/ppc/target/lib/ppc/PPC604/common/libnet.a(sys_socket.o)
 *fill*         0x004e9c12        0x2
 .data          0x004e9c14       0x10 /usr/local/clas/devel/VxWorks55/ppc/target/lib/ppc/PPC604/common/libnet.a(tcp_input.o)
                0x004e9c14                _landAttackSafe
                0x004e9c18                tcprexmtthresh
                0x004e9c1c                tcp_last_inpcb
 .data          0x004e9c24       0x10 /usr/local/clas/devel/VxWorks55/ppc/target/lib/ppc/PPC604/common/libnet.a(tcp_output.o)
                0x004e9c24                tcp_outflags
 .data          0x004e9c34       0x14 /usr/local/clas/devel/VxWorks55/ppc/target/lib/ppc/PPC604/common/libnet.a(tcp_subr.o)
                0x004e9c44                pTcpRandHook
                0x004e9c40                tcp_pcbhashsize
                0x004e9c38                tcp_rttdflt
                0x004e9c34                tcp_mssdflt
                0x004e9c3c                tcp_do_rfc1323
 .data          0x004e9c48       0x50 /usr/local/clas/devel/VxWorks55/ppc/target/lib/ppc/PPC604/common/libnet.a(tcp_timer.o)
                0x004e9c54                tcp_keepinit
                0x004e9c4c                tcp_keepintvl
                0x004e9c58                tcp_maxpersistidle
                0x004e9c50                tcp_keepcnt
                0x004e9c94                tcp_totbackoff
                0x004e9c48                tcp_keepidle
                0x004e9c60                tcp_backoff
 .data          0x004e9c98       0x14 /usr/local/clas/devel/VxWorks55/ppc/target/lib/ppc/PPC604/common/libnet.a(tcp_usrreq.o)
                0x004e9c98                tcpTraceRtn
                0x004e9c9c                tcpReportRtn
                0x004e9ca4                tcp_sendspace
                0x004e9ca8                tcp_recvspace
 .data          0x004e9cac        0x2 /usr/local/clas/devel/VxWorks55/ppc/target/lib/ppc/PPC604/common/libnet.a(uipc_sock.o)
 *fill*         0x004e9cae        0x2
 .data          0x004e9cb0       0xc4 /usr/local/clas/devel/VxWorks55/ppc/target/lib/ppc/PPC604/common/libnet.a(random.o)
 .data          0x004e9d74        0x4 /usr/local/clas/devel/VxWorks55/ppc/target/lib/ppc/PPC604/common/libos.a(__ctype_tab.o)
                0x004e9d74                __ctype
 .data          0x004e9d78        0xc /usr/local/clas/devel/VxWorks55/ppc/target/lib/ppc/PPC604/common/libos.a(stdioLib.o)
                0x004e9d80                fpClassId
 *fill*         0x004e9d84        0x4
 .data          0x004e9d88       0x28 /usr/local/clas/devel/VxWorks55/ppc/target/lib/ppc/PPC604/common/libos.a(strtod.o)
 .data          0x004e9db0       0x80 /usr/local/clas/devel/VxWorks55/ppc/target/lib/ppc/PPC604/common/libos.a(fpType.o)
 .data          0x004e9e30       0x14 /usr/local/clas/devel/VxWorks55/ppc/target/lib/ppc/PPC604/common/libos.a(cacheLib.o)
                0x004e9e40                cacheMmuAvailable
                0x004e9e3c                cacheDataEnabled
                0x004e9e30                cacheDmaMallocRtn
                0x004e9e38                cacheDataMode
                0x004e9e34                cacheDmaFreeRtn
 .data          0x004e9e44        0x4 /usr/local/clas/devel/VxWorks55/ppc/target/lib/ppc/PPC604/common/libos.a(classLib.o)
                0x004e9e44                classClassId
 .data          0x004e9e48       0x14 /usr/local/clas/devel/VxWorks55/ppc/target/lib/ppc/PPC604/common/libos.a(clockLib.o)
 .data          0x004e9e5c       0x10 /usr/local/clas/devel/VxWorks55/ppc/target/lib/ppc/PPC604/common/libos.a(excLib.o)
                0x004e9e60                excTaskOptions
                0x004e9e64                excTaskStackSize
                0x004e9e5c                excTaskPriority
 .data          0x004e9e6c       0x24 /usr/local/clas/devel/VxWorks55/ppc/target/lib/ppc/PPC604/common/libos.a(fioLib.o)
                0x004e9e6c                fieldSzIncludeSign
 .data          0x004e9e90       0xa0 /usr/local/clas/devel/VxWorks55/ppc/target/lib/ppc/PPC604/common/libos.a(funcBind.o)
                0x004e9ecc                cacheLib
                0x004e9f00                cacheNullFuncs
                0x004e9ea4                evtAction
                0x004e9e9c                m2If64BitCounters
                0x004e9e98                fastUdpInitialized
                0x004e9ea0                _procNumWasSet
                0x004e9f20                cacheUserFuncs
                0x004e9f10                cacheDmaFuncs
                0x004e9ea8                vmLibInfo
                0x004e9e94                ftplDebug
                0x004e9e90                _dbgDsmInstRtn
 .data          0x004e9f30        0x8 /usr/local/clas/devel/VxWorks55/ppc/target/lib/ppc/PPC604/common/libos.a(hashLib.o)
                0x004e9f34                hashClassId
 .data          0x004e9f38        0x4 /usr/local/clas/devel/VxWorks55/ppc/target/lib/ppc/PPC604/common/libos.a(intLib.o)
                0x004e9f38                intCnt
 .data          0x004e9f3c        0x4 /usr/local/clas/devel/VxWorks55/ppc/target/lib/ppc/PPC604/common/libos.a(ioLib.o)
                0x004e9f3c                ioMaxLinkLevels
 .data          0x004e9f40       0x10 /usr/local/clas/devel/VxWorks55/ppc/target/lib/ppc/PPC604/common/libos.a(iosLib.o)
                0x004e9f48                iosFdNewHookRtn
                0x004e9f4c                iosFdFreeHookRtn
                0x004e9f44                iosLibInitialized
                0x004e9f40                mutexOptionsIosLib
 .data          0x004e9f50       0x28 /usr/local/clas/devel/VxWorks55/ppc/target/lib/ppc/PPC604/common/libos.a(logLib.o)
                0x004e9f58                logTaskOptions
                0x004e9f50                logTaskId
                0x004e9f5c                logTaskStackSize
                0x004e9f54                logTaskPriority
                0x004e9f64                logFdFromRlogin
                0x004e9f60                mutexOptionsLogLib
 .data          0x004e9f78        0xc /usr/local/clas/devel/VxWorks55/ppc/target/lib/ppc/PPC604/common/libos.a(memLib.o)
                0x004e9f78                mutexOptionsMemLib
 .data          0x004e9f84       0x2c /usr/local/clas/devel/VxWorks55/ppc/target/lib/ppc/PPC604/common/libos.a(memPartLib.o)
                0x004e9fa8                memPartSemInitRtn
                0x004e9fa0                memPartBlockErrorRtn
                0x004e9f8c                smMemPartAllocRtn
                0x004e9f98                memSysPartId
                0x004e9f9c                memDefaultAlignment
                0x004e9f90                memPartClassId
                0x004e9fa4                memPartAllocErrorRtn
                0x004e9f94                memPartInstClassId
                0x004e9f84                smMemPartAddToPoolRtn
                0x004e9f88                smMemPartFreeRtn
                0x004e9fac                memPartOptionsDefault
 .data          0x004e9fb0        0x8 /usr/local/clas/devel/VxWorks55/ppc/target/lib/ppc/PPC604/common/libos.a(pipeDrv.o)
                0x004e9fb0                pipeMsgQOptions
 .data          0x004e9fb8        0x4 /usr/local/clas/devel/VxWorks55/ppc/target/lib/ppc/PPC604/common/libos.a(selectLib.o)
                0x004e9fb8                mutexOptionsSelectLib
 .data          0x004e9fbc       0x24 /usr/local/clas/devel/VxWorks55/ppc/target/lib/ppc/PPC604/common/libos.a(tyLib.o)
                0x004e9fbd                tyDeleteLineChar
                0x004e9fbe                tyEofChar
                0x004e9fc0                mutexOptionsTyLib
                0x004e9fbc                tyBackspaceChar
 .data          0x004e9fe0        0x4 /usr/local/clas/devel/VxWorks55/ppc/target/lib/ppc/PPC604/common/libos.a(bootLoadLib.o)
                0x004e9fe0                bootLoadRoutine
 .data          0x004e9fe4       0x10 /usr/local/clas/devel/VxWorks55/ppc/target/lib/ppc/PPC604/common/libos.a(usrDosFsOld.o)
                0x004e9ff0                dosFsCacheSizeDefault
 .data          0x004e9ff4      0x11c /usr/local/clas/devel/VxWorks55/ppc/target/lib/ppc/PPC604/common/libos.a(bootLib.o)
 .data          0x004ea110       0x40 /usr/local/clas/devel/VxWorks55/ppc/target/lib/ppc/PPC604/common/libos.a(qFifoLib.o)
                0x004ea14c                qFifoClassId
 .data          0x004ea150       0x40 /usr/local/clas/devel/VxWorks55/ppc/target/lib/ppc/PPC604/common/libos.a(qPriBMapLib.o)
                0x004ea18c                qPriBMapClassId
 .data          0x004ea190       0x80 /usr/local/clas/devel/VxWorks55/ppc/target/lib/ppc/PPC604/common/libos.a(qPriListLib.o)
                0x004ea20c                qPriListFromTailClassId
                0x004ea208                qPriListClassId
 .data          0x004ea210       0x54 /usr/local/clas/devel/VxWorks55/ppc/target/lib/ppc/PPC604/common/libos.a(dcacheCbio.o)
                0x004ea22c                dcacheUpdTaskOptions
                0x004ea218                dcacheUpdTaskStack
                0x004ea210                dcacheUpdTaskId
                0x004ea214                dcacheUpdTaskPriority
 .data          0x004ea264        0x8 /usr/local/clas/devel/VxWorks55/ppc/target/lib/ppc/PPC604/common/libos.a(dosChkLib.o)
                0x004ea268                dosChkMinDate
                0x004ea264                dosChkDebug
 .data          0x004ea26c        0x4 /usr/local/clas/devel/VxWorks55/ppc/target/lib/ppc/PPC604/common/libos.a(dosDirOldLib.o)
                0x004ea26c                dosDirOldDebug
 .data          0x004ea270        0x8 /usr/local/clas/devel/VxWorks55/ppc/target/lib/ppc/PPC604/common/libos.a(dosFsFat.o)
                0x004ea270                fat16Debug
                0x004ea274                fatClugFac
 .data          0x004ea278       0x70 /usr/local/clas/devel/VxWorks55/ppc/target/lib/ppc/PPC604/common/libos.a(dosFsLib.o)
                0x004ea2b0                dosDirHdlrsList
                0x004ea278                dosFsDrvNum
                0x004ea27c                dosFsDebug
                0x004ea2e0                dosFsChkRtn
                0x004ea2e4                dosFsVolFormatRtn
                0x004ea280                dosFatHdlrsList
 .data          0x004ea2e8        0x4 /usr/local/clas/devel/VxWorks55/ppc/target/lib/ppc/PPC604/common/libos.a(dosVDirLib.o)
                0x004ea2e8                dosVDirDebug
 .data          0x004ea2ec       0x18 /usr/local/clas/devel/VxWorks55/ppc/target/lib/ppc/PPC604/common/libos.a(print64Lib.o)
 .data          0x004ea304       0xc4 /usr/local/clas/devel/VxWorks55/ppc/target/lib/ppc/PPC604/common/libos.a(locTime.o)
                0x004ea3c4                __loctime
 .data          0x004ea3c8       0x30 /usr/local/clas/devel/VxWorks55/ppc/target/lib/ppc/PPC604/common/libos.a(gmtime.o)
 .data          0x004ea3f8       0x1c /usr/local/clas/devel/VxWorks55/ppc/target/lib/ppc/PPC604/common/libos.a(cbioLib.o)
                0x004ea400                cbioMutexSemOptions
                0x004ea3fc                cbioClassId
 .data          0x004ea414        0x8 /usr/local/clas/devel/VxWorks55/ppc/target/lib/ppc/PPC604/common/libos.a(sigLib.o)
 .data          0x004ea41c       0x10 /usr/local/clas/devel/VxWorks55/ppc/target/lib/ppc/PPC604/common/libwind.a(kernelLib.o)
                0x004ea41c                activeQHead
 .data          0x004ea42c        0x8 /usr/local/clas/devel/VxWorks55/ppc/target/lib/ppc/PPC604/common/libwind.a(msgQLib.o)
                0x004ea430                msgQInstClassId
                0x004ea42c                msgQClassId
 .data          0x004ea434       0xa8 /usr/local/clas/devel/VxWorks55/ppc/target/lib/ppc/PPC604/common/libwind.a(semLib.o)
                0x004ea45c                semTakeTbl
                0x004ea4bc                semFlushDeferTbl
                0x004ea43c                semGiveTbl
                0x004ea434                semClassId
                0x004ea49c                semGiveDeferTbl
                0x004ea47c                semFlushTbl
                0x004ea438                semInstClassId
 .data          0x004ea4dc       0x38 /usr/local/clas/devel/VxWorks55/ppc/target/lib/ppc/PPC604/common/libwind.a(taskLib.o)
                0x004ea4ec                restartTaskStackSize
                0x004ea4dc                taskClassId
                0x004ea4e0                namelessPrefix
                0x004ea4f0                restartTaskOptions
                0x004ea500                pTaskLastAltivecTcb
                0x004ea4f4                taskPriRangeCheck
                0x004ea4e8                restartTaskPriority
                0x004ea504                taskInstClassId
                0x004ea4e4                restartTaskName
                0x004ea4f8                pTaskLastFpTcb
                0x004ea4fc                pTaskLastDspTcb
 .data          0x004ea514       0xa8 /usr/local/clas/devel/VxWorks55/ppc/target/lib/ppc/PPC604/common/libwind.a(taskShow.o)
                0x004ea514                taskRegsFmt
 .data          0x004ea5bc        0x8 /usr/local/clas/devel/VxWorks55/ppc/target/lib/ppc/PPC604/common/libwind.a(wdLib.o)
                0x004ea5c0                wdInstClassId
                0x004ea5bc                wdClassId
 .data          0x004ea5c4        0x4 /usr/local/clas/devel/VxWorks55/ppc/target/lib/ppc/PPC604/common/libwind.a(workQLib.o)
 .data          0x004ea5c8       0x20 /usr/local/clas/devel/VxWorks55/ppc/target/lib/ppc/PPC604/common/libwind.a(semEvLib.o)
                0x004ea5c8                semEvIsFreeTbl
 .data          0x004ea5e8       0x18 /usr/local/clas/devel/VxWorks55/ppc/target/lib/ppc/PPC604/common/libwindview.a(wvLib.o)
                0x004ea5fc                wvEvtBufferFullNotify
                0x004ea5ec                wvUploadTaskStackSize
                0x004ea5f0                wvUploadTaskOptions
                0x004ea5f4                wvUploadMaxAttempts
                0x004ea5e8                wvUploadTaskPriority
                0x004ea5f8                wvUploadRetryBackoff
 .data          0x004ea600       0x50 /usr/local/clas/devel/VxWorks55/ppc/target/lib/ppc/PPC604/common/libarch.a(sigCtxLib.o)
                0x004ea600                _sigfaulttable
 .data          0x004ea650      0x13c /usr/local/clas/devel/VxWorks55/ppc/target/lib/ppc/PPC604/common/libarch.a(taskArchLib.o)
                0x004ea788                taskMsrDefault
                0x004ea650                taskRegName
 .data          0x004ea78c        0x1 /usr/local/clas/devel/VxWorks55/ppc/target/lib/ppc/PPC604/common/libgcc.a(_x_gnu__ashldi3.o)
                0x004ea78c                ___x_gnu__ashldi3_o
 .data          0x004ea78d        0x1 /usr/local/clas/devel/VxWorks55/ppc/target/lib/ppc/PPC604/common/libgcc.a(_x_gnu__ashrdi3.o)
                0x004ea78d                ___x_gnu__ashrdi3_o
 .data          0x004ea78e        0x1 /usr/local/clas/devel/VxWorks55/ppc/target/lib/ppc/PPC604/common/libgcc.a(_x_gnu__divdi3.o)
                0x004ea78e                ___x_gnu__divdi3_o
 .data          0x004ea78f        0x1 /usr/local/clas/devel/VxWorks55/ppc/target/lib/ppc/PPC604/common/libgcc.a(_x_gnu__udivdi3.o)
                0x004ea78f                ___x_gnu__udivdi3_o
 .data          0x004ea790        0x1 /usr/local/clas/devel/VxWorks55/ppc/target/lib/ppc/PPC604/common/libgcc.a(_x_gnu__umoddi3.o)
                0x004ea790                ___x_gnu__umoddi3_o
 *fill*         0x004ea791        0x3
 .data          0x004ea794       0x40 /usr/local/clas/devel/VxWorks55/ppc/target/lib/ppc/PPC604/common/libos.a(qJobLib.o)
                0x004ea7d0                qJobClassId
 *(.data.*)
 *(.gnu.linkonce.d*)
 *(.data1)
 *(.eh_frame)
 *(.gcc_except_table)
 *crtbegin.o(.ctors)
 EXCLUDE_FILE ( *crtend.o)*(.ctors)
 *(SORT(.ctors.*))
 *(.ctors)
 *crtbegin.o(.dtors)
 EXCLUDE_FILE ( *crtend.o)*(.dtors)
 *(SORT(.dtors.*))
 *(.dtors)
                0x004f27d0                _gp=(ALIGN(0x10)+0x7ff0)
 *(.got.plt)
 *(.got)
 *(.dynamic)
 *(.got2)
 *(.sdata)
 *(.sdata.*)
 *(.lit8)
 *(.lit4)
 *fill*         0x004ea7d4        0xc
                0x004ea7e0                .=ALIGN(0x10)
                0x004ea7e0                .=ALIGN(0x10)
                0x004ea7e0                edata=.
                0x004ea7e0                _edata=.
                0x004ea7e0                wrs_kernel_data_end=.
                0x004ea7e0                _wrs_kernel_data_end=.

.bss            0x004ea7e0    0x6a3d0
                0x004ea7e0                wrs_kernel_bss_start=.
                0x004ea7e0                _wrs_kernel_bss_start=.
 *(.sbss)
 *(.scommon)
 *(.dynbss)
 *(.bss)
 .bss           0x004ea7e0        0x4 bootConfig.o
 .bss           0x004ea7e4      0x958 sysLib.o
 .bss           0x004eb13c      0x118 pciDevConfig.o
 .bss           0x004eb254      0x408 gtIntControl.o
 .bss           0x004eb65c        0x8 userRsrvMem.o
 .bss           0x004eb664      0x200 vxGppIntCtrl.o
 .bss           0x004eb864       0x50 vxCntmrIntCtrl.o
 .bss           0x004eb8b4      0x240 vxDmaIntCtrl.o
 .bss           0x004ebaf4      0x800 vxEthernetIntCtrl.o
 .bss           0x004ec2f4       0x60 vxCunitIntCtrl.o
 .bss           0x004ec354      0x400 vxMpscIntCtrl.o
 .bss           0x004ec754       0x80 vxSdmaIntCtrl.o
 .bss           0x004ec7d4        0x4 bFlashDrv.o
 .bss           0x004ec7d8        0x4 frcBibShow.o
 *fill*         0x004ec7dc        0x4
 .bss           0x004ec7e0      0x1b0 tests/testtool.o
 .bss           0x004ec990        0x4 /usr/local/clas/devel/VxWorks55/ppc/target/lib/ppc/PPC604/common/libarch.a(altivecLib.o)
 .bss           0x004ec994        0xc /usr/local/clas/devel/VxWorks55/ppc/target/lib/ppc/PPC604/common/libarch.a(excArchLib.o)
 .bss           0x004ec9a0        0x8 /usr/local/clas/devel/VxWorks55/ppc/target/lib/ppc/PPC604/common/libnet.a(if.o)
 .bss           0x004ec9a8       0x1c /usr/local/clas/devel/VxWorks55/ppc/target/lib/ppc/PPC604/common/libnet.a(if_ether.o)
 .bss           0x004ec9c4       0x10 /usr/local/clas/devel/VxWorks55/ppc/target/lib/ppc/PPC604/common/libnet.a(if_subr.o)
 .bss           0x004ec9d4        0x4 /usr/local/clas/devel/VxWorks55/ppc/target/lib/ppc/PPC604/common/libnet.a(in.o)
 .bss           0x004ec9d8        0x4 /usr/local/clas/devel/VxWorks55/ppc/target/lib/ppc/PPC604/common/libnet.a(ip_input.o)
 .bss           0x004ec9dc        0x4 /usr/local/clas/devel/VxWorks55/ppc/target/lib/ppc/PPC604/common/libnet.a(ip_output.o)
 .bss           0x004ec9e0       0x10 /usr/local/clas/devel/VxWorks55/ppc/target/lib/ppc/PPC604/common/libnet.a(radix.o)
 .bss           0x004ec9f0       0x14 /usr/local/clas/devel/VxWorks55/ppc/target/lib/ppc/PPC604/common/libnet.a(route.o)
 .bss           0x004eca04        0x4 /usr/local/clas/devel/VxWorks55/ppc/target/lib/ppc/PPC604/common/libnet.a(udp_usrreq.o)
 .bss           0x004eca08        0x8 /usr/local/clas/devel/VxWorks55/ppc/target/lib/ppc/PPC604/common/libnet.a(uipc_dom.o)
 .bss           0x004eca10       0xb8 /usr/local/clas/devel/VxWorks55/ppc/target/lib/ppc/PPC604/common/libnet.a(uipc_mbuf.o)
 .bss           0x004ecac8        0x4 /usr/local/clas/devel/VxWorks55/ppc/target/lib/ppc/PPC604/common/libnet.a(uipc_sock2.o)
 .bss           0x004ecacc        0x4 /usr/local/clas/devel/VxWorks55/ppc/target/lib/ppc/PPC604/common/libnet.a(unixLib.o)
 .bss           0x004ecad0        0x4 /usr/local/clas/devel/VxWorks55/ppc/target/lib/ppc/PPC604/common/libnet.a(ipProto.o)
 .bss           0x004ecad4       0x14 /usr/local/clas/devel/VxWorks55/ppc/target/lib/ppc/PPC604/common/libnet.a(bsdSockLib.o)
 .bss           0x004ecae8      0x100 /usr/local/clas/devel/VxWorks55/ppc/target/lib/ppc/PPC604/common/libnet.a(ftpLib.o)
 .bss           0x004ecbe8       0x80 /usr/local/clas/devel/VxWorks55/ppc/target/lib/ppc/PPC604/common/libnet.a(hostLib.o)
 .bss           0x004ecc68       0x30 /usr/local/clas/devel/VxWorks55/ppc/target/lib/ppc/PPC604/common/libnet.a(icmpLib.o)
 .bss           0x004ecc98      0x79c /usr/local/clas/devel/VxWorks55/ppc/target/lib/ppc/PPC604/common/libnet.a(muxLib.o)
 .bss           0x004ed434        0x4 /usr/local/clas/devel/VxWorks55/ppc/target/lib/ppc/PPC604/common/libnet.a(muxTkLib.o)
 .bss           0x004ed438       0x2c /usr/local/clas/devel/VxWorks55/ppc/target/lib/ppc/PPC604/common/libnet.a(netLib.o)
 .bss           0x004ed464       0xc8 /usr/local/clas/devel/VxWorks55/ppc/target/lib/ppc/PPC604/common/libnet.a(remLib.o)
 .bss           0x004ed52c        0x4 /usr/local/clas/devel/VxWorks55/ppc/target/lib/ppc/PPC604/common/libnet.a(ifIndexLib.o)
 .bss           0x004ed530       0x28 /usr/local/clas/devel/VxWorks55/ppc/target/lib/ppc/PPC604/common/libnet.a(igmp.o)
 .bss           0x004ed558        0x4 /usr/local/clas/devel/VxWorks55/ppc/target/lib/ppc/PPC604/common/libnet.a(in_pcb.o)
 .bss           0x004ed55c        0x4 /usr/local/clas/devel/VxWorks55/ppc/target/lib/ppc/PPC604/common/libnet.a(ip_icmp.o)
 .bss           0x004ed560       0x18 /usr/local/clas/devel/VxWorks55/ppc/target/lib/ppc/PPC604/common/libnet.a(raw_ip.o)
 .bss           0x004ed578        0x4 /usr/local/clas/devel/VxWorks55/ppc/target/lib/ppc/PPC604/common/libnet.a(sys_socket.o)
 .bss           0x004ed57c        0x4 /usr/local/clas/devel/VxWorks55/ppc/target/lib/ppc/PPC604/common/libnet.a(tcp_input.o)
 .bss           0x004ed580        0x4 /usr/local/clas/devel/VxWorks55/ppc/target/lib/ppc/PPC604/common/libnet.a(tcp_output.o)
 .bss           0x004ed584        0x4 /usr/local/clas/devel/VxWorks55/ppc/target/lib/ppc/PPC604/common/libnet.a(tcp_subr.o)
 .bss           0x004ed588        0x4 /usr/local/clas/devel/VxWorks55/ppc/target/lib/ppc/PPC604/common/libnet.a(tcp_timer.o)
 .bss           0x004ed58c        0x4 /usr/local/clas/devel/VxWorks55/ppc/target/lib/ppc/PPC604/common/libnet.a(tcp_usrreq.o)
 .bss           0x004ed590        0x4 /usr/local/clas/devel/VxWorks55/ppc/target/lib/ppc/PPC604/common/libnet.a(uipc_sock.o)
 .bss           0x004ed594       0x34 /usr/local/clas/devel/VxWorks55/ppc/target/lib/ppc/PPC604/common/libos.a(stdioLib.o)
 .bss           0x004ed5c8       0x64 /usr/local/clas/devel/VxWorks55/ppc/target/lib/ppc/PPC604/common/libos.a(strerror.o)
 .bss           0x004ed62c       0x1c /usr/local/clas/devel/VxWorks55/ppc/target/lib/ppc/PPC604/common/libos.a(asctime.o)
 .bss           0x004ed648       0x24 /usr/local/clas/devel/VxWorks55/ppc/target/lib/ppc/PPC604/common/libos.a(localtime.o)
 .bss           0x004ed66c       0x34 /usr/local/clas/devel/VxWorks55/ppc/target/lib/ppc/PPC604/common/libos.a(classLib.o)
 .bss           0x004ed6a0        0x8 /usr/local/clas/devel/VxWorks55/ppc/target/lib/ppc/PPC604/common/libos.a(envLib.o)
 .bss           0x004ed6a8        0x4 /usr/local/clas/devel/VxWorks55/ppc/target/lib/ppc/PPC604/common/libos.a(excLib.o)
 .bss           0x004ed6ac        0x8 /usr/local/clas/devel/VxWorks55/ppc/target/lib/ppc/PPC604/common/libos.a(fioLib.o)
 .bss           0x004ed6b4       0x34 /usr/local/clas/devel/VxWorks55/ppc/target/lib/ppc/PPC604/common/libos.a(hashLib.o)
 .bss           0x004ed6e8        0xc /usr/local/clas/devel/VxWorks55/ppc/target/lib/ppc/PPC604/common/libos.a(ioLib.o)
 .bss           0x004ed6f4       0x38 /usr/local/clas/devel/VxWorks55/ppc/target/lib/ppc/PPC604/common/libos.a(iosLib.o)
 .bss           0x004ed72c       0x40 /usr/local/clas/devel/VxWorks55/ppc/target/lib/ppc/PPC604/common/libos.a(logLib.o)
 .bss           0x004ed76c        0x4 /usr/local/clas/devel/VxWorks55/ppc/target/lib/ppc/PPC604/common/libos.a(memLib.o)
 .bss           0x004ed770       0xbc /usr/local/clas/devel/VxWorks55/ppc/target/lib/ppc/PPC604/common/libos.a(memPartLib.o)
 .bss           0x004ed82c        0xc /usr/local/clas/devel/VxWorks55/ppc/target/lib/ppc/PPC604/common/libos.a(rebootLib.o)
 .bss           0x004ed838        0x4 /usr/local/clas/devel/VxWorks55/ppc/target/lib/ppc/PPC604/common/libos.a(ttyDrv.o)
 .bss           0x004ed83c        0x4 /usr/local/clas/devel/VxWorks55/ppc/target/lib/ppc/PPC604/common/libos.a(bootElfLib.o)
 .bss           0x004ed840       0x1c /usr/local/clas/devel/VxWorks55/ppc/target/lib/ppc/PPC604/common/libos.a(ctime.o)
 .bss           0x004ed85c       0x24 /usr/local/clas/devel/VxWorks55/ppc/target/lib/ppc/PPC604/common/libos.a(gmtime.o)
 .bss           0x004ed880        0x4 /usr/local/clas/devel/VxWorks55/ppc/target/lib/ppc/PPC604/common/libos.a(cbioLib.o)
 .bss           0x004ed884        0x8 /usr/local/clas/devel/VxWorks55/ppc/target/lib/ppc/PPC604/common/libos.a(ldiv.o)
 .bss           0x004ed88c       0x6c /usr/local/clas/devel/VxWorks55/ppc/target/lib/ppc/PPC604/common/libwind.a(msgQLib.o)
 .bss           0x004ed8f8        0x4 /usr/local/clas/devel/VxWorks55/ppc/target/lib/ppc/PPC604/common/libwind.a(semBLib.o)
 .bss           0x004ed8fc        0x4 /usr/local/clas/devel/VxWorks55/ppc/target/lib/ppc/PPC604/common/libwind.a(semCLib.o)
 .bss           0x004ed900        0x4 /usr/local/clas/devel/VxWorks55/ppc/target/lib/ppc/PPC604/common/libwind.a(semLib.o)
 .bss           0x004ed904        0x4 /usr/local/clas/devel/VxWorks55/ppc/target/lib/ppc/PPC604/common/libwind.a(semMLib.o)
 .bss           0x004ed908        0x4 /usr/local/clas/devel/VxWorks55/ppc/target/lib/ppc/PPC604/common/libwind.a(taskInfo.o)
 .bss           0x004ed90c       0x70 /usr/local/clas/devel/VxWorks55/ppc/target/lib/ppc/PPC604/common/libwind.a(taskLib.o)
 .bss           0x004ed97c       0x6c /usr/local/clas/devel/VxWorks55/ppc/target/lib/ppc/PPC604/common/libwind.a(wdLib.o)
 .bss           0x004ed9e8        0x8 /usr/local/clas/devel/VxWorks55/ppc/target/lib/ppc/PPC604/common/libwindview.a(wvLib.o)
 *(COMMON)
 COMMON         0x004ed9f0      0xde0 bootConfig.o
                                  0x0 (size before relaxing)
                0x004ed9f0                consoleName
                0x004eda04                consoleFd
                0x004eda08                frc_vxworks_size
                0x004eda0c                sysSymTbl
                0x004eda10                sdramSize
                0x004eda14                ipDrvCtrl
                0x004edb9c                cookieTbl
                0x004edd9c                sysStartType
                0x004edda0                pCookie
                0x004edda4                endM2Tbl
                0x004edfa8                statSymTbl
                0x004edfac                readyQBMap
 COMMON         0x004ee7d0      0x14c sysLib.o
                                  0x0 (size before relaxing)
                0x004ee7d0                frcSysBoardId
                0x004ee7d4                sysFlags
                0x004ee7d8                sysBootFile
                0x004ee878                sysPhysMemDescNumEnt
                0x004ee87c                sysBootHost
 COMMON         0x004ee91c        0xc pciConfigLib.o
                                  0x0 (size before relaxing)
                0x004ee91c                pciConfigAddr2
                0x004ee920                pciConfigAddr0
                0x004ee924                pciConfigAddr1
 COMMON         0x004ee928      0x17c pciDevConfig.o
                                  0x0 (size before relaxing)
                0x004ee928                busIoMemRanges
                0x004eea68                geidevices
                0x004eea7c                feidevices
 COMMON         0x004eeaa4        0x4 pciScan.o
                                  0x0 (size before relaxing)
                0x004eeaa4                pciActive
 COMMON         0x004eeaa8    0x12100 bFlashDrv.o
                                  0x0 (size before relaxing)
                0x004eeaa8                flashBuf
                0x004feaa8                flashBufNV
 COMMON         0x00500ba8    0x50044 flashDrv.o
                                  0x0 (size before relaxing)
                0x00500ba8                flash_index
                0x00500bac                uflashBuf
                0x00540bcc                flocalBuf
                0x00540bec                usrflashBuf
 COMMON         0x00550bec       0x20 rtc.o
                                  0x0 (size before relaxing)
                0x00550bec                hourr
                0x00550bf0                dayr
                0x00550bf4                secr
                0x00550bf8                monr
                0x00550bfc                yearr
                0x00550c00                dater
                0x00550c04                minr
                0x00550c08                cenr
 COMMON         0x00550c0c        0x4 frcBibShow.o
                                  0x0 (size before relaxing)
                0x00550c0c                frcModNumBase
 COMMON         0x00550c10        0x4 frcBibDrv.o
                                  0x0 (size before relaxing)
                0x00550c10                pIntf
 *fill*         0x00550c14        0x4
 COMMON         0x00550c18     0x24c8 tests/testtool.o
                                  0x0 (size before relaxing)
                0x00550c18                global_emfloatstruct
                0x00550c30                use_result_dummy
                0x00550c34                global_ofile_name
                0x00550c70                tot_out_error
                0x00550cc0                average_error
                0x00550cc8                global_ofile
                0x00550cd0                mid_wt_cum_change
                0x00551590                mid_error
                0x005515d0                global_lustruct
                0x005515e8                LUtempvv
                0x005515ec                numpats
                0x005515f0                avg_out_error
                0x00551640                worst_error
                0x00551648                global_numsortstruct
                0x00551660                s1
                0x00551668                global_bitopstruct
                0x00551680                learned
                0x00551684                iteration_count
                0x00551688                mid_wt_change
                0x00551f48                numpasses
                0x00551f4c                mem_array
                0x00551ff0                mid_out
                0x00552030                global_huffstruct
                0x00552048                mid_wts
                0x00552908                global_min_seconds
                0x00552910                out_wt_cum_change
                0x00552b10                start_addr
                0x00552b14                global_allstats
                0x00552b18                global_strsortstruct
                0x00552b30                global_min_ticks
                0x00552b34                write_to_file
                0x00552b38                memsplit
                0x00552b3c                end_addr
                0x00552b40                out_out
                0x00552b80                bp2
                0x00552b84                count
                0x00552b88                silent_test
                0x00552b8c                s2
                0x00552b90                outBuffer
                0x00552bf4                mem_array_ents
                0x00552bf8                buf
                0x00552bfc                tests_to_do
                0x00552c28                out_wts
                0x00552e28                out_error
                0x00552e68                global_align
                0x00552e6c                global_custrun
                0x00552e70                global_assignstruct
                0x00552e88                global_nnetstruct
                0x00552ea0                bp1
                0x00552ea8                global_ideastruct
                0x00552ec0                global_fourierstruct
                0x00552ed8                membytes
                0x00552edc                ftiming
                0x00552ee0                out_wt_change
 COMMON         0x005530e0        0xc /usr/local/clas/devel/VxWorks55/ppc/target/lib/ppc/PPC604/common/libarch.a(altivecLib.o)
                                  0x0 (size before relaxing)
                0x005530e0                pAltivecTaskIdPrevious
                0x005530e4                altivecCreateHookRtn
                0x005530e8                altivecDisplayHookRtn
 COMMON         0x005530ec        0x4 /usr/local/clas/devel/VxWorks55/ppc/target/lib/ppc/PPC604/common/libdrv.a(endLib.o)
                                  0x0 (size before relaxing)
                0x005530ec                pMibRtn
 COMMON         0x005530f0       0x94 /usr/local/clas/devel/VxWorks55/ppc/target/lib/ppc/PPC604/common/libdrv.a(if_loop.o)
                                  0x0 (size before relaxing)
                0x005530f0                loif
 COMMON         0x00553184        0xc /usr/local/clas/devel/VxWorks55/ppc/target/lib/ppc/PPC604/common/libnet.a(if.o)
                                  0x0 (size before relaxing)
                0x00553184                ifnet
                0x00553188                _m2IfTableUpdate
                0x0055318c                _m2SetIfLastChange
 COMMON         0x00553190       0x10 /usr/local/clas/devel/VxWorks55/ppc/target/lib/ppc/PPC604/common/libnet.a(if_ether.o)
                                  0x0 (size before relaxing)
                0x00553190                arp_allocated
                0x00553194                arpMaxEntries
                0x00553198                arp_inuse
                0x0055319c                arp_intimer
 COMMON         0x005531a0        0xc /usr/local/clas/devel/VxWorks55/ppc/target/lib/ppc/PPC604/common/libnet.a(in.o)
                                  0x0 (size before relaxing)
                0x005531a0                mCastHashInfo
                0x005531a8                in_interfaces
 COMMON         0x005531ac      0x1b8 /usr/local/clas/devel/VxWorks55/ppc/target/lib/ppc/PPC604/common/libnet.a(ip_input.o)
                                  0x0 (size before relaxing)
                0x005531ac                ip_id
                0x005531b0                ip_protox
                0x005532b0                _func_ipsecFilterHook
                0x005532b4                in_ifaddr
                0x005532b8                ipstat
                0x00553318                ipintrq
                0x0055332c                _func_ipsecInput
                0x00553330                ipforward_rt
                0x00553344                _ipCfgFlags
                0x00553348                ipq
 COMMON         0x00553364        0x4 /usr/local/clas/devel/VxWorks55/ppc/target/lib/ppc/PPC604/common/libnet.a(ip_output.o)
                                  0x0 (size before relaxing)
                0x00553364                _func_ipsecOutput
 COMMON         0x00553368        0xc /usr/local/clas/devel/VxWorks55/ppc/target/lib/ppc/PPC604/common/libnet.a(radix.o)
                                  0x0 (size before relaxing)
                0x00553368                mask_rnhead
                0x0055336c                rn_mkfreelist
                0x00553370                max_keylen
 COMMON         0x00553374       0x8a /usr/local/clas/devel/VxWorks55/ppc/target/lib/ppc/PPC604/common/libnet.a(route.o)
                                  0x0 (size before relaxing)
                0x00553374                rttrash
                0x00553378                rt_tables
                0x005533e4                wildcard
                0x005533f4                rtstat
 *fill*         0x005533fe        0x2
 COMMON         0x00553400       0x3c /usr/local/clas/devel/VxWorks55/ppc/target/lib/ppc/PPC604/common/libnet.a(udp_usrreq.o)
                                  0x0 (size before relaxing)
                0x00553400                udpstat
                0x00553428                udb
                0x0055342c                udbinfo
 COMMON         0x0055343c       0x10 /usr/local/clas/devel/VxWorks55/ppc/target/lib/ppc/PPC604/common/libnet.a(uipc_dom.o)
                                  0x0 (size before relaxing)
                0x0055343c                max_protohdr
                0x00553440                max_hdr
                0x00553444                max_linkhdr
                0x00553448                domains
 COMMON         0x0055344c        0xc /usr/local/clas/devel/VxWorks55/ppc/target/lib/ppc/PPC604/common/libnet.a(unixLib.o)
                                  0x0 (size before relaxing)
                0x0055344c                splSemId
                0x00553450                splTid
                0x00553454                panicSuspend
 COMMON         0x00553458        0xc /usr/local/clas/devel/VxWorks55/ppc/target/lib/ppc/PPC604/common/libnet.a(hostLib.o)
                                  0x0 (size before relaxing)
                0x00553458                hostList
 COMMON         0x00553464        0x4 /usr/local/clas/devel/VxWorks55/ppc/target/lib/ppc/PPC604/common/libnet.a(netLib.o)
                                  0x0 (size before relaxing)
                0x00553464                netTaskId
 COMMON         0x00553468       0x34 /usr/local/clas/devel/VxWorks55/ppc/target/lib/ppc/PPC604/common/libnet.a(igmp.o)
                                  0x0 (size before relaxing)
                0x00553468                _igmpQuerierTimeUpdateHook
                0x0055346c                _igmpLeaveAlertHook
                0x00553470                _igmpMessageHook
                0x00553474                _igmpJoinAlertHook
                0x00553478                igmpstat
 COMMON         0x0055349c        0x4 /usr/local/clas/devel/VxWorks55/ppc/target/lib/ppc/PPC604/common/libnet.a(in_pcb.o)
                                  0x0 (size before relaxing)
                0x0055349c                zeroin_addr
 COMMON         0x005534a0      0x340 /usr/local/clas/devel/VxWorks55/ppc/target/lib/ppc/PPC604/common/libnet.a(in_proto.o)
                                  0x0 (size before relaxing)
                0x005534a0                inetsw
 COMMON         0x005537e0       0xb8 /usr/local/clas/devel/VxWorks55/ppc/target/lib/ppc/PPC604/common/libnet.a(ip_icmp.o)
                                  0x0 (size before relaxing)
                0x005537e0                icmpstat
 COMMON         0x00553898      0x124 /usr/local/clas/devel/VxWorks55/ppc/target/lib/ppc/PPC604/common/libnet.a(tcp_input.o)
                                  0x0 (size before relaxing)
                0x00553898                tcpstat
                0x00553968                tcbinfo
                0x00553978                tcpOutRsts
                0x0055397c                tcp_alpha
                0x00553980                tcp_msl
                0x00553984                tcp_beta
                0x00553988                tcp_now
                0x0055398c                tcp_saveti
                0x005539b4                tcpcb
                0x005539b8                tcp_iss
 COMMON         0x005539bc        0x4 /usr/local/clas/devel/VxWorks55/ppc/target/lib/ppc/PPC604/common/libnet.a(tcp_timer.o)
                                  0x0 (size before relaxing)
                0x005539bc                tcp_maxidle
 COMMON         0x005539c0        0x4 /usr/local/clas/devel/VxWorks55/ppc/target/lib/ppc/PPC604/common/libnet.a(uipc_sock.o)
                                  0x0 (size before relaxing)
                0x005539c0                somaxconn
 *fill*         0x005539c4        0x4
 COMMON         0x005539c8       0x10 /usr/local/clas/devel/VxWorks55/ppc/target/lib/ppc/PPC604/common/libos.a(clockLib.o)
                                  0x0 (size before relaxing)
                0x005539c8                _clockRealtime
 COMMON         0x005539d8        0x4 /usr/local/clas/devel/VxWorks55/ppc/target/lib/ppc/PPC604/common/libos.a(envLib.o)
                                  0x0 (size before relaxing)
                0x005539d8                ppGlobalEnviron
 COMMON         0x005539dc        0x4 /usr/local/clas/devel/VxWorks55/ppc/target/lib/ppc/PPC604/common/libos.a(errnoLib.o)
                                  0x0 (size before relaxing)
                0x005539dc                errno
 COMMON         0x005539e0        0xc /usr/local/clas/devel/VxWorks55/ppc/target/lib/ppc/PPC604/common/libos.a(excLib.o)
                                  0x0 (size before relaxing)
                0x005539e0                excMsgQId
                0x005539e4                excExcepHook
                0x005539e8                excTaskId
 COMMON         0x005539ec      0x168 /usr/local/clas/devel/VxWorks55/ppc/target/lib/ppc/PPC604/common/libos.a(funcBind.o)
                                  0x0 (size before relaxing)
                0x005539ec                _func_smObjObjShow
                0x005539f0                msgQDistShowRtn
                0x005539f4                _func_evtLogT1_noTS
                0x005539f8                _func_spyStop
                0x005539fc                _func_excInfoShow
                0x00553a00                _func_evtLogReserveTaskName
                0x00553a04                _func_trgCheck
                0x00553a08                pWvNetEventMap
                0x00553a0c                _func_taskCreateHookAdd
                0x00553a10                _func_dspRegsListHook
                0x00553a14                _func_tmrConnect
                0x00553a18                _func_evtLogTSched
                0x00553a1c                _func_dspTaskRegsShow
                0x00553a20                trgEvtClass
                0x00553a24                _func_selPtyDelete
                0x00553a28                _func_evtLogO
                0x00553a2c                _func_selWakeupListInit
                0x00553a30                trgCnt
                0x00553a34                _func_ioTaskStdSet
                0x00553a38                _func_excIntHook
                0x00553a3c                _func_selPtyAdd
                0x00553a40                _func_evtLogM1
                0x00553a44                _func_sigExcKill
                0x00553a48                _func_wvNetPortFilterTest
                0x00553a4c                _func_bdall
                0x00553a50                _func_symNameGet
                0x00553a54                _func_logMsg
                0x00553a58                _func_tmrFreq
                0x00553a5c                _func_tmrEnable
                0x00553a60                _func_excPanicHook
                0x00553a64                _func_spy
                0x00553a68                _func_fastUdpInput
                0x00553a6c                _func_remCurIdGet
                0x00553a70                _func_selTyDelete
                0x00553a74                _func_pthread_setcanceltype
                0x00553a78                _func_evtLogT0
                0x00553a7c                smMemPartShowRtn
                0x00553a80                _func_sseTaskRegsShow
                0x00553a84                _func_tmrStampLock
                0x00553a88                _func_valloc
                0x00553a8c                _func_evtLogM3
                0x00553a90                _func_fastUdpErrorNotify
                0x00553a94                _func_evtLogPoint
                0x00553a98                msgQSmShowRtn
                0x00553a9c                _func_symValueGet
                0x00553aa0                _func_spyClkStart
                0x00553aa4                _func_excBaseHook
                0x00553aa8                _func_tmrPeriod
                0x00553aac                _func_altivecProbe
                0x00553ab0                _func_tmrStamp
                0x00553ab4                msgQSmInfoGetRtn
                0x00553ab8                _func_ftpLs
                0x00553abc                wvInstIsOn
                0x00553ac0                _func_evtLogM2
                0x00553ac4                _func_evtLogT0_noInt
                0x00553ac8                _func_spyReport
                0x00553acc                msgQDistInfoGetRtn
                0x00553ad0                _func_selTyAdd
                0x00553ad4                _func_fclose
                0x00553ad8                _func_spyClkStop
                0x00553adc                _func_tmrDisable
                0x00553ae0                _func_evtLogString
                0x00553ae4                wvEvtClass
                0x00553ae8                _func_symFindSymbol
                0x00553aec                _func_printErr
                0x00553af0                _func_evtLogT1
                0x00553af4                _func_taskDeleteHookAdd
                0x00553af8                _func_netLsByName
                0x00553afc                _func_fppTaskRegsShow
                0x00553b00                _func_altivecTaskRegsGet
                0x00553b04                _func_symFindByValue
                0x00553b08                _func_selWakeupListTerm
                0x00553b0c                _func_memalign
                0x00553b10                _func_evtLogM0
                0x00553b14                semSmShowRtn
                0x00553b18                _func_sigprocmask
                0x00553b1c                _func_symTypeGet
                0x00553b20                _func_altivecTaskRegsShow
                0x00553b24                _func_remCurIdSet
                0x00553b28                _func_dspMregsHook
                0x00553b2c                _func_excJobAdd
                0x00553b30                _func_spyTask
                0x00553b34                _func_wvNetAddressFilterTest
                0x00553b38                _func_fastUdpPortTest
                0x00553b3c                _func_selWakeupAll
                0x00553b40                wvObjIsEnabled
                0x00553b44                _func_sigTimeoutRecalc
                0x00553b48                _func_symFindByValueAndType
                0x00553b4c                semSmInfoRtn
                0x00553b50                _func_evtLogOIntLock
 COMMON         0x00553b54      0x118 /usr/local/clas/devel/VxWorks55/ppc/target/lib/ppc/PPC604/common/libos.a(iosLib.o)
                                  0x0 (size before relaxing)
                0x00553b54                drvTable
                0x00553b58                ioDefPath
                0x00553c58                maxFiles
                0x00553c5c                maxDrivers
                0x00553c60                fdTable
                0x00553c64                iosDvList
 COMMON         0x00553c6c        0xc /usr/local/clas/devel/VxWorks55/ppc/target/lib/ppc/PPC604/common/libos.a(memLib.o)
                                  0x0 (size before relaxing)
                0x00553c6c                smMemPartOptionsSetRtn
                0x00553c70                smMemPartFindMaxRtn
                0x00553c74                smMemPartReallocRtn
 COMMON         0x00553c78      0x880 /usr/local/clas/devel/VxWorks55/ppc/target/lib/ppc/PPC604/common/libos.a(dcacheCbio.o)
                                  0x0 (size before relaxing)
                0x00553c78                DCACHE_CTRL
                0x00553cf8                dcacheCtrl
 COMMON         0x005544f8       0x34 /usr/local/clas/devel/VxWorks55/ppc/target/lib/ppc/PPC604/common/libos.a(cbioLib.o)
                                  0x0 (size before relaxing)
                0x005544f8                cbioClass
 COMMON         0x0055452c        0x8 /usr/local/clas/devel/VxWorks55/ppc/target/lib/ppc/PPC604/common/libos.a(sigLib.o)
                                  0x0 (size before relaxing)
                0x0055452c                sigEvtRtn
                0x00554530                _pSigQueueFreeHead
 COMMON         0x00554534       0x14 /usr/local/clas/devel/VxWorks55/ppc/target/lib/ppc/PPC604/common/libwind.a(eventLib.o)
                                  0x0 (size before relaxing)
                0x00554534                eventEvtRtn
                0x00554538                vxEventPendQ
 COMMON         0x00554548       0x3c /usr/local/clas/devel/VxWorks55/ppc/target/lib/ppc/PPC604/common/libwind.a(kernelLib.o)
                                  0x0 (size before relaxing)
                0x00554548                vxIntStackBase
                0x0055454c                tickQHead
                0x0055455c                rootTaskId
                0x00554560                roundRobinSlice
                0x00554564                vxIntStackEnd
                0x00554568                rootMemNBytes
                0x0055456c                readyQHead
                0x0055457c                pRootMemStart
                0x00554580                roundRobinOn
 COMMON         0x00554584       0x18 /usr/local/clas/devel/VxWorks55/ppc/target/lib/ppc/PPC604/common/libwind.a(msgQLib.o)
                                  0x0 (size before relaxing)
                0x00554584                msgQDistNumMsgsRtn
                0x00554588                msgQSmReceiveRtn
                0x0055458c                msgQDistSendRtn
                0x00554590                msgQSmNumMsgsRtn
                0x00554594                msgQSmSendRtn
                0x00554598                msgQDistReceiveRtn
 COMMON         0x0055459c       0x68 /usr/local/clas/devel/VxWorks55/ppc/target/lib/ppc/PPC604/common/libwind.a(semLib.o)
                                  0x0 (size before relaxing)
                0x0055459c                semClass
                0x005545d0                semInstClass
 COMMON         0x00554604        0x4 /usr/local/clas/devel/VxWorks55/ppc/target/lib/ppc/PPC604/common/libwind.a(semMLib.o)
                                  0x0 (size before relaxing)
                0x00554604                semMGiveKernWork
 COMMON         0x00554608      0x168 /usr/local/clas/devel/VxWorks55/ppc/target/lib/ppc/PPC604/common/libwind.a(taskLib.o)
                                  0x0 (size before relaxing)
                0x00554608                taskSwitchTable
                0x0055464c                taskSwapTable
                0x00554690                smObjTcbFreeFailRtn
                0x00554694                taskBpHook
                0x00554698                taskDeleteTable
                0x005546dc                smObjTaskDeleteFailRtn
                0x005546e0                smObjTcbFreeRtn
                0x005546e4                taskIdCurrent
                0x005546e8                taskCreateTable
                0x0055472c                taskSwapReference
 COMMON         0x00554770        0x4 /usr/local/clas/devel/VxWorks55/ppc/target/lib/ppc/PPC604/common/libwind.a(taskShow.o)
                                  0x0 (size before relaxing)
                0x00554770                _func_taskRegsShowRtn
 *fill*         0x00554774        0x4
 COMMON         0x00554778        0xc /usr/local/clas/devel/VxWorks55/ppc/target/lib/ppc/PPC604/common/libwind.a(tickLib.o)
                                  0x0 (size before relaxing)
                0x00554778                vxAbsTicks
                0x00554780                vxTicks
 COMMON         0x00554784       0x10 /usr/local/clas/devel/VxWorks55/ppc/target/lib/ppc/PPC604/common/libwind.a(windLib.o)
                                  0x0 (size before relaxing)
                0x00554784                kernelState
                0x00554788                localToGlobalOffset
                0x0055478c                smObjPoolMinusOne
                0x00554790                kernelIsIdle
 COMMON         0x00554794      0x408 /usr/local/clas/devel/VxWorks55/ppc/target/lib/ppc/PPC604/common/libwind.a(workQLib.o)
                                  0x0 (size before relaxing)
                0x00554794                workQWriteIx
                0x00554795                workQReadIx
                0x00554798                workQIsEmpty
                0x0055479c                pJobPool
 COMMON         0x00554b9c        0x4 /usr/local/clas/devel/VxWorks55/ppc/target/lib/ppc/PPC604/common/libwindview.a(wvLib.o)
                                  0x0 (size before relaxing)
                0x00554b9c                pmPartId
 COMMON         0x00554ba0        0x4 /usr/local/clas/devel/VxWorks55/ppc/target/lib/ppc/PPC604/common/libwindview.a(evtLogLib.o)
                                  0x0 (size before relaxing)
                0x00554ba0                evtBufferId
 *fill*         0x00554ba4        0xc
                0x00554bb0                .=ALIGN(0x10)
                0x00554bb0                .=ALIGN(0x10)
                0x00554bb0                end=.
                0x00554bb0                _end=.
                0x00554bb0                wrs_kernel_bss_end=.
                0x00554bb0                _wrs_kernel_bss_end=.

/DISCARD/
 *(.note)
 *(.comment)
 *(.pdr)

.stab
 *(.stab)

.stabstr
 *(.stabstr)

.stab.excl
 *(.stab.excl)

.stab.exclstr
 *(.stab.exclstr)

.stab.index
 *(.stab.index)

.stab.indexstr
 *(.stab.indexstr)

.comment
 *(.comment)

.debug
 *(.debug)

.line
 *(.line)

.debug_srcinfo
 *(.debug_srcinfo)

.debug_sfnames
 *(.debug_sfnames)

.debug_aranges
 *(.debug_aranges)

.debug_pubnames
 *(.debug_pubnames)

.debug_info
 *(.debug_info)

.debug_abbrev
 *(.debug_abbrev)

.debug_line
 *(.debug_line)

.debug_frame
 *(.debug_frame)

.debug_str
 *(.debug_str)

.debug_loc
 *(.debug_loc)

.debug_macinfo
 *(.debug_macinfo)

.debug_weaknames
 *(.debug_weaknames)

.debug_funcnames
 *(.debug_funcnames)

.debug_typenames
 *(.debug_typenames)

.debug_varnames
 *(.debug_varnames)
OUTPUT(tmp.o elf32-powerpc)
